libicui18n.so.67:_Z19uprv_decNumberClassPK9decNumberP10decContext
libicui18n.so.67:_Z34uspoof_getSkeletonUnicodeString_67PK13USpoofCheckerjRKN6icu_6713UnicodeStringERS3_P10UErrorCode
libicui18n.so.67:_ZN6icu_6710BucketListD0Ev
libicui18n.so.67:_ZN6icu_6710BucketListD1Ev
libicui18n.so.67:_ZN6icu_6710BucketListD2Ev
libicui18n.so.67:_ZN6icu_6710CECalendar6ceToJDEiiii
libicui18n.so.67:_ZN6icu_6710CECalendar6jdToCEEiiRiS1_S1_
libicui18n.so.67:_ZN6icu_6710CECalendarC1ERKNS_6LocaleER10UErrorCode
libicui18n.so.67:_ZN6icu_6710CECalendarC1ERKS0_
libicui18n.so.67:_ZN6icu_6710CECalendarC2ERKNS_6LocaleER10UErrorCode
libicui18n.so.67:_ZN6icu_6710CECalendarC2ERKS0_
libicui18n.so.67:_ZN6icu_6710CECalendarD0Ev
libicui18n.so.67:_ZN6icu_6710CECalendarD1Ev
libicui18n.so.67:_ZN6icu_6710CECalendarD2Ev
libicui18n.so.67:_ZN6icu_6710CECalendaraSERKS0_
libicui18n.so.67:_ZN6icu_6710DateFormat10setContextE15UDisplayContextR10UErrorCode
libicui18n.so.67:_ZN6icu_6710DateFormat10setLenientEa
libicui18n.so.67:_ZN6icu_6710DateFormat11setCalendarERKNS_8CalendarE
libicui18n.so.67:_ZN6icu_6710DateFormat11setTimeZoneERKNS_8TimeZoneE
libicui18n.so.67:_ZN6icu_6710DateFormat13adoptCalendarEPNS_8CalendarE
libicui18n.so.67:_ZN6icu_6710DateFormat13adoptTimeZoneEPNS_8TimeZoneE
libicui18n.so.67:_ZN6icu_6710DateFormat14createInstanceEv
libicui18n.so.67:_ZN6icu_6710DateFormat14getBestPatternERKNS_6LocaleERKNS_13UnicodeStringER10UErrorCode
libicui18n.so.67:_ZN6icu_6710DateFormat15setNumberFormatERKNS_12NumberFormatE
libicui18n.so.67:_ZN6icu_6710DateFormat17adoptNumberFormatEPNS_12NumberFormatE
libicui18n.so.67:_ZN6icu_6710DateFormat18createDateInstanceENS0_6EStyleERKNS_6LocaleE
libicui18n.so.67:_ZN6icu_6710DateFormat18createTimeInstanceENS0_6EStyleERKNS_6LocaleE
libicui18n.so.67:_ZN6icu_6710DateFormat18setCalendarLenientEa
libicui18n.so.67:_ZN6icu_6710DateFormat19getAvailableLocalesERi
libicui18n.so.67:_ZN6icu_6710DateFormat19setBooleanAttributeE27UDateFormatBooleanAttributeaR10UErrorCode
libicui18n.so.67:_ZN6icu_6710DateFormat22createDateTimeInstanceENS0_6EStyleES1_RKNS_6LocaleE
libicui18n.so.67:_ZN6icu_6710DateFormat25createInstanceForSkeletonEPNS_8CalendarERKNS_13UnicodeStringERKNS_6LocaleER10UErrorCode
libicui18n.so.67:_ZN6icu_6710DateFormat25createInstanceForSkeletonERKNS_13UnicodeStringER10UErrorCode
libicui18n.so.67:_ZN6icu_6710DateFormat25createInstanceForSkeletonERKNS_13UnicodeStringERKNS_6LocaleER10UErrorCode
libicui18n.so.67:_ZN6icu_6710DateFormat6createENS0_6EStyleES1_RKNS_6LocaleE
libicui18n.so.67:_ZN6icu_6710DateFormatC1ERKS0_
libicui18n.so.67:_ZN6icu_6710DateFormatC1Ev
libicui18n.so.67:_ZN6icu_6710DateFormatC2ERKS0_
libicui18n.so.67:_ZN6icu_6710DateFormatC2Ev
libicui18n.so.67:_ZN6icu_6710DateFormatD0Ev
libicui18n.so.67:_ZN6icu_6710DateFormatD1Ev
libicui18n.so.67:_ZN6icu_6710DateFormatD2Ev
libicui18n.so.67:_ZN6icu_6710DateFormataSERKS0_
libicui18n.so.67:_ZN6icu_6710GenderInfo11getInstanceERKNS_6LocaleER10UErrorCode
libicui18n.so.67:_ZN6icu_6710GenderInfo12loadInstanceERKNS_6LocaleER10UErrorCode
libicui18n.so.67:_ZN6icu_6710GenderInfo18getNeutralInstanceEv
libicui18n.so.67:_ZN6icu_6710GenderInfo21getMaleTaintsInstanceEv
libicui18n.so.67:_ZN6icu_6710GenderInfo23getMixedNeutralInstanceEv
libicui18n.so.67:_ZN6icu_6710GenderInfoC1Ev
libicui18n.so.67:_ZN6icu_6710GenderInfoC2Ev
libicui18n.so.67:_ZN6icu_6710GenderInfoD0Ev
libicui18n.so.67:_ZN6icu_6710GenderInfoD1Ev
libicui18n.so.67:_ZN6icu_6710GenderInfoD2Ev
libicui18n.so.67:_ZN6icu_6710PatternMap16getDuplicateElemERKNS_13UnicodeStringERKNS_11PtnSkeletonEPNS_7PtnElemE
libicui18n.so.67:_ZN6icu_6710PatternMap3addERKNS_13UnicodeStringERKNS_11PtnSkeletonES3_aR10UErrorCode
libicui18n.so.67:_ZN6icu_6710PatternMap8copyFromERKS0_R10UErrorCode
libicui18n.so.67:_ZN6icu_6710PatternMapC1Ev
libicui18n.so.67:_ZN6icu_6710PatternMapC2Ev
libicui18n.so.67:_ZN6icu_6710PatternMapD0Ev
libicui18n.so.67:_ZN6icu_6710PatternMapD1Ev
libicui18n.so.67:_ZN6icu_6710PatternMapD2Ev
libicui18n.so.67:_ZN6icu_6710Quantifier16getStaticClassIDEv
libicui18n.so.67:_ZN6icu_6710Quantifier7matchesERKNS_11ReplaceableERiia
libicui18n.so.67:_ZN6icu_6710Quantifier7setDataEPKNS_23TransliterationRuleDataE
libicui18n.so.67:_ZN6icu_6710QuantifierC1EPNS_14UnicodeFunctorEjj
libicui18n.so.67:_ZN6icu_6710QuantifierC1ERKS0_
libicui18n.so.67:_ZN6icu_6710QuantifierC2EPNS_14UnicodeFunctorEjj
libicui18n.so.67:_ZN6icu_6710QuantifierC2ERKS0_
libicui18n.so.67:_ZN6icu_6710QuantifierD0Ev
libicui18n.so.67:_ZN6icu_6710QuantifierD1Ev
libicui18n.so.67:_ZN6icu_6710QuantifierD2Ev
libicui18n.so.67:_ZN6icu_6710util64_powEjt
libicui18n.so.67:_ZN6icu_6710util64_touElPDsjja
libicui18n.so.67:_ZN6icu_6711CEFinalizerD0Ev
libicui18n.so.67:_ZN6icu_6711CEFinalizerD1Ev
libicui18n.so.67:_ZN6icu_6711CEFinalizerD2Ev
libicui18n.so.67:_ZN6icu_6711CheckResult12validateThisEP17USpoofCheckResultR10UErrorCode
libicui18n.so.67:_ZN6icu_6711CheckResult12validateThisEPK17USpoofCheckResultR10UErrorCode
libicui18n.so.67:_ZN6icu_6711CheckResult17toCombinedBitmaskEi
libicui18n.so.67:_ZN6icu_6711CheckResult19asUSpoofCheckResultEv
libicui18n.so.67:_ZN6icu_6711CheckResult5clearEv
libicui18n.so.67:_ZN6icu_6711CheckResultC1Ev
libicui18n.so.67:_ZN6icu_6711CheckResultC2Ev
libicui18n.so.67:_ZN6icu_6711CheckResultD0Ev
libicui18n.so.67:_ZN6icu_6711CheckResultD1Ev
libicui18n.so.67:_ZN6icu_6711CheckResultD2Ev
libicui18n.so.67:_ZN6icu_6711Formattable10adoptArrayEPS0_i
libicui18n.so.67:_ZN6icu_6711Formattable11adoptObjectEPNS_7UObjectE
libicui18n.so.67:_ZN6icu_6711Formattable11adoptStringEPNS_13UnicodeStringE
libicui18n.so.67:_ZN6icu_6711Formattable16getDecimalNumberER10UErrorCode
libicui18n.so.67:_ZN6icu_6711Formattable16getStaticClassIDEv
libicui18n.so.67:_ZN6icu_6711Formattable16setDecimalNumberENS_11StringPieceER10UErrorCode
libicui18n.so.67:_ZN6icu_6711Formattable20adoptDecimalQuantityEPNS_6number4impl15DecimalQuantityE
libicui18n.so.67:_ZN6icu_6711Formattable21internalGetCharStringER10UErrorCode
libicui18n.so.67:_ZN6icu_6711Formattable4initEv
libicui18n.so.67:_ZN6icu_6711Formattable7disposeEv
libicui18n.so.67:_ZN6icu_6711Formattable7setDateEd
libicui18n.so.67:_ZN6icu_6711Formattable7setLongEi
libicui18n.so.67:_ZN6icu_6711Formattable8setArrayEPKS0_i
libicui18n.so.67:_ZN6icu_6711Formattable8setInt64El
libicui18n.so.67:_ZN6icu_6711Formattable9getStringER10UErrorCode
libicui18n.so.67:_ZN6icu_6711Formattable9setDoubleEd
libicui18n.so.67:_ZN6icu_6711Formattable9setStringERKNS_13UnicodeStringE
libicui18n.so.67:_ZN6icu_6711FormattableC1ENS_11StringPieceER10UErrorCode
libicui18n.so.67:_ZN6icu_6711FormattableC1EPKS0_i
libicui18n.so.67:_ZN6icu_6711FormattableC1EPKc
libicui18n.so.67:_ZN6icu_6711FormattableC1EPNS_13UnicodeStringE
libicui18n.so.67:_ZN6icu_6711FormattableC1EPNS_7UObjectE
libicui18n.so.67:_ZN6icu_6711FormattableC1ERKNS_13UnicodeStringE
libicui18n.so.67:_ZN6icu_6711FormattableC1ERKS0_
libicui18n.so.67:_ZN6icu_6711FormattableC1Ed
libicui18n.so.67:_ZN6icu_6711FormattableC1EdNS0_6ISDATEE
libicui18n.so.67:_ZN6icu_6711FormattableC1Ei
libicui18n.so.67:_ZN6icu_6711FormattableC1El
libicui18n.so.67:_ZN6icu_6711FormattableC1Ev
libicui18n.so.67:_ZN6icu_6711FormattableC2ENS_11StringPieceER10UErrorCode
libicui18n.so.67:_ZN6icu_6711FormattableC2EPKS0_i
libicui18n.so.67:_ZN6icu_6711FormattableC2EPKc
libicui18n.so.67:_ZN6icu_6711FormattableC2EPNS_13UnicodeStringE
libicui18n.so.67:_ZN6icu_6711FormattableC2EPNS_7UObjectE
libicui18n.so.67:_ZN6icu_6711FormattableC2ERKNS_13UnicodeStringE
libicui18n.so.67:_ZN6icu_6711FormattableC2ERKS0_
libicui18n.so.67:_ZN6icu_6711FormattableC2Ed
libicui18n.so.67:_ZN6icu_6711FormattableC2EdNS0_6ISDATEE
libicui18n.so.67:_ZN6icu_6711FormattableC2Ei
libicui18n.so.67:_ZN6icu_6711FormattableC2El
libicui18n.so.67:_ZN6icu_6711FormattableC2Ev
libicui18n.so.67:_ZN6icu_6711FormattableD0Ev
libicui18n.so.67:_ZN6icu_6711FormattableD1Ev
libicui18n.so.67:_ZN6icu_6711FormattableD2Ev
libicui18n.so.67:_ZN6icu_6711FormattableaSERKS0_
libicui18n.so.67:_ZN6icu_6711MeasureUnit10createAcreER10UErrorCode
libicui18n.so.67:_ZN6icu_6711MeasureUnit10createByteER10UErrorCode
libicui18n.so.67:_ZN6icu_6711MeasureUnit10createFootER10UErrorCode
libicui18n.so.67:_ZN6icu_6711MeasureUnit10createGramER10UErrorCode
libicui18n.so.67:_ZN6icu_6711MeasureUnit10createHourER10UErrorCode
libicui18n.so.67:_ZN6icu_6711MeasureUnit10createInchER10UErrorCode
libicui18n.so.67:_ZN6icu_6711MeasureUnit10createKnotER10UErrorCode
libicui18n.so.67:_ZN6icu_6711MeasureUnit10createMileER10UErrorCode
libicui18n.so.67:_ZN6icu_6711MeasureUnit10createMoleER10UErrorCode
libicui18n.so.67:_ZN6icu_6711MeasureUnit10createPintER10UErrorCode
libicui18n.so.67:_ZN6icu_6711MeasureUnit10createVoltER10UErrorCode
libicui18n.so.67:_ZN6icu_6711MeasureUnit10createWattER10UErrorCode
libicui18n.so.67:_ZN6icu_6711MeasureUnit10createWeekER10UErrorCode
libicui18n.so.67:_ZN6icu_6711MeasureUnit10createYardER10UErrorCode
libicui18n.so.67:_ZN6icu_6711MeasureUnit10createYearER10UErrorCode
libicui18n.so.67:_ZN6icu_6711MeasureUnit10getCalorieEv
libicui18n.so.67:_ZN6icu_6711MeasureUnit10getCelsiusEv
libicui18n.so.67:_ZN6icu_6711MeasureUnit10getCenturyEv
libicui18n.so.67:_ZN6icu_6711MeasureUnit10getFurlongEv
libicui18n.so.67:_ZN6icu_6711MeasureUnit10getGigabitEv
libicui18n.so.67:_ZN6icu_6711MeasureUnit10getHectareEv
libicui18n.so.67:_ZN6icu_6711MeasureUnit10getKilobitEv
libicui18n.so.67:_ZN6icu_6711MeasureUnit10getMegabitEv
libicui18n.so.67:_ZN6icu_6711MeasureUnit10getPercentEv
libicui18n.so.67:_ZN6icu_6711MeasureUnit10getTerabitEv
libicui18n.so.67:_ZN6icu_6711MeasureUnit10getThermUsEv
libicui18n.so.67:_ZN6icu_6711MeasureUnit10initNoUnitEPKc
libicui18n.so.67:_ZN6icu_6711MeasureUnit11createCaratER10UErrorCode
libicui18n.so.67:_ZN6icu_6711MeasureUnit11createDunamER10UErrorCode
libicui18n.so.67:_ZN6icu_6711MeasureUnit11createHertzER10UErrorCode
libicui18n.so.67:_ZN6icu_6711MeasureUnit11createJouleER10UErrorCode
libicui18n.so.67:_ZN6icu_6711MeasureUnit11createKaratER10UErrorCode
libicui18n.so.67:_ZN6icu_6711MeasureUnit11createLiterER10UErrorCode
libicui18n.so.67:_ZN6icu_6711MeasureUnit11createMeterER10UErrorCode
libicui18n.so.67:_ZN6icu_6711MeasureUnit11createMonthER10UErrorCode
libicui18n.so.67:_ZN6icu_6711MeasureUnit11createOunceER10UErrorCode
libicui18n.so.67:_ZN6icu_6711MeasureUnit11createPixelER10UErrorCode
libicui18n.so.67:_ZN6icu_6711MeasureUnit11createPointER10UErrorCode
libicui18n.so.67:_ZN6icu_6711MeasureUnit11createPoundER10UErrorCode
libicui18n.so.67:_ZN6icu_6711MeasureUnit11createQuartER10UErrorCode
libicui18n.so.67:_ZN6icu_6711MeasureUnit11createStoneER10UErrorCode
libicui18n.so.67:_ZN6icu_6711MeasureUnit11getAcreFootEv
libicui18n.so.67:_ZN6icu_6711MeasureUnit11getGigabyteEv
libicui18n.so.67:_ZN6icu_6711MeasureUnit11getGigawattEv
libicui18n.so.67:_ZN6icu_6711MeasureUnit11getKilobyteEv
libicui18n.so.67:_ZN6icu_6711MeasureUnit11getKilogramEv
libicui18n.so.67:_ZN6icu_6711MeasureUnit11getKilowattEv
libicui18n.so.67:_ZN6icu_6711MeasureUnit11getMegabyteEv
libicui18n.so.67:_ZN6icu_6711MeasureUnit11getMegawattEv
libicui18n.so.67:_ZN6icu_6711MeasureUnit11getMillibarEv
libicui18n.so.67:_ZN6icu_6711MeasureUnit11getPermilleEv
libicui18n.so.67:_ZN6icu_6711MeasureUnit11getPetabyteEv
libicui18n.so.67:_ZN6icu_6711MeasureUnit11getTeaspoonEv
libicui18n.so.67:_ZN6icu_6711MeasureUnit11getTerabyteEv
libicui18n.so.67:_ZN6icu_6711MeasureUnit12createAmpereER10UErrorCode
libicui18n.so.67:_ZN6icu_6711MeasureUnit12createBarrelER10UErrorCode
libicui18n.so.67:_ZN6icu_6711MeasureUnit12createBushelER10UErrorCode
libicui18n.so.67:_ZN6icu_6711MeasureUnit12createDaltonER10UErrorCode
libicui18n.so.67:_ZN6icu_6711MeasureUnit12createDecadeER10UErrorCode
libicui18n.so.67:_ZN6icu_6711MeasureUnit12createDegreeER10UErrorCode
libicui18n.so.67:_ZN6icu_6711MeasureUnit12createFathomER10UErrorCode
libicui18n.so.67:_ZN6icu_6711MeasureUnit12createGForceER10UErrorCode
libicui18n.so.67:_ZN6icu_6711MeasureUnit12createGallonER10UErrorCode
libicui18n.so.67:_ZN6icu_6711MeasureUnit12createInchHgER10UErrorCode
libicui18n.so.67:_ZN6icu_6711MeasureUnit12createKelvinER10UErrorCode
libicui18n.so.67:_ZN6icu_6711MeasureUnit12createMinuteER10UErrorCode
libicui18n.so.67:_ZN6icu_6711MeasureUnit12createNewtonER10UErrorCode
libicui18n.so.67:_ZN6icu_6711MeasureUnit12createParsecER10UErrorCode
libicui18n.so.67:_ZN6icu_6711MeasureUnit12createPascalER10UErrorCode
libicui18n.so.67:_ZN6icu_6711MeasureUnit12createRadianER10UErrorCode
libicui18n.so.67:_ZN6icu_6711MeasureUnit12createSecondER10UErrorCode
libicui18n.so.67:_ZN6icu_6711MeasureUnit12getArcMinuteEv
libicui18n.so.67:_ZN6icu_6711MeasureUnit12getArcSecondEv
libicui18n.so.67:_ZN6icu_6711MeasureUnit12getAvailableEPKcPS0_iR10UErrorCode
libicui18n.so.67:_ZN6icu_6711MeasureUnit12getAvailableEPS0_iR10UErrorCode
libicui18n.so.67:_ZN6icu_6711MeasureUnit12getCubicFootEv
libicui18n.so.67:_ZN6icu_6711MeasureUnit12getCubicInchEv
libicui18n.so.67:_ZN6icu_6711MeasureUnit12getCubicMileEv
libicui18n.so.67:_ZN6icu_6711MeasureUnit12getCubicYardEv
libicui18n.so.67:_ZN6icu_6711MeasureUnit12getCupMetricEv
libicui18n.so.67:_ZN6icu_6711MeasureUnit12getDayPersonEv
libicui18n.so.67:_ZN6icu_6711MeasureUnit12getDeciliterEv
libicui18n.so.67:_ZN6icu_6711MeasureUnit12getDecimeterEv
libicui18n.so.67:_ZN6icu_6711MeasureUnit12getEarthMassEv
libicui18n.so.67:_ZN6icu_6711MeasureUnit12getGigahertzEv
libicui18n.so.67:_ZN6icu_6711MeasureUnit12getKilohertzEv
libicui18n.so.67:_ZN6icu_6711MeasureUnit12getKilojouleEv
libicui18n.so.67:_ZN6icu_6711MeasureUnit12getKilometerEv
libicui18n.so.67:_ZN6icu_6711MeasureUnit12getLightYearEv
libicui18n.so.67:_ZN6icu_6711MeasureUnit12getMegahertzEv
libicui18n.so.67:_ZN6icu_6711MeasureUnit12getMegaliterEv
libicui18n.so.67:_ZN6icu_6711MeasureUnit12getMegapixelEv
libicui18n.so.67:_ZN6icu_6711MeasureUnit12getMetricTonEv
libicui18n.so.67:_ZN6icu_6711MeasureUnit12getMicrogramEv
libicui18n.so.67:_ZN6icu_6711MeasureUnit12getMilligramEv
libicui18n.so.67:_ZN6icu_6711MeasureUnit12getMilliwattEv
libicui18n.so.67:_ZN6icu_6711MeasureUnit12getNanometerEv
libicui18n.so.67:_ZN6icu_6711MeasureUnit12getOunceTroyEv
libicui18n.so.67:_ZN6icu_6711MeasureUnit12getPermyriadEv
libicui18n.so.67:_ZN6icu_6711MeasureUnit12getPicometerEv
libicui18n.so.67:_ZN6icu_6711MeasureUnit12getPoundFootEv
libicui18n.so.67:_ZN6icu_6711MeasureUnit12getSolarMassEv
libicui18n.so.67:_ZN6icu_6711MeasureUnit12initCurrencyENS_11StringPieceE
libicui18n.so.67:_ZN6icu_6711MeasureUnit13createCalorieER10UErrorCode
libicui18n.so.67:_ZN6icu_6711MeasureUnit13createCelsiusER10UErrorCode
libicui18n.so.67:_ZN6icu_6711MeasureUnit13createCenturyER10UErrorCode
libicui18n.so.67:_ZN6icu_6711MeasureUnit13createFurlongER10UErrorCode
libicui18n.so.67:_ZN6icu_6711MeasureUnit13createGigabitER10UErrorCode
libicui18n.so.67:_ZN6icu_6711MeasureUnit13createHectareER10UErrorCode
libicui18n.so.67:_ZN6icu_6711MeasureUnit13createKilobitER10UErrorCode
libicui18n.so.67:_ZN6icu_6711MeasureUnit13createMegabitER10UErrorCode
libicui18n.so.67:_ZN6icu_6711MeasureUnit13createPercentER10UErrorCode
libicui18n.so.67:_ZN6icu_6711MeasureUnit13createTerabitER10UErrorCode
libicui18n.so.67:_ZN6icu_6711MeasureUnit13createThermUsER10UErrorCode
libicui18n.so.67:_ZN6icu_6711MeasureUnit13findBySubTypeENS_11StringPieceEPS0_
libicui18n.so.67:_ZN6icu_6711MeasureUnit13forIdentifierENS_11StringPieceER10UErrorCode
libicui18n.so.67:_ZN6icu_6711MeasureUnit13getAtmosphereEv
libicui18n.so.67:_ZN6icu_6711MeasureUnit13getCentiliterEv
libicui18n.so.67:_ZN6icu_6711MeasureUnit13getCentimeterEv
libicui18n.so.67:_ZN6icu_6711MeasureUnit13getCubicMeterEv
libicui18n.so.67:_ZN6icu_6711MeasureUnit13getDotPerInchEv
libicui18n.so.67:_ZN6icu_6711MeasureUnit13getFahrenheitEv
libicui18n.so.67:_ZN6icu_6711MeasureUnit13getFluidOunceEv
libicui18n.so.67:_ZN6icu_6711MeasureUnit13getHectoliterEv
libicui18n.so.67:_ZN6icu_6711MeasureUnit13getHorsepowerEv
libicui18n.so.67:_ZN6icu_6711MeasureUnit13getIndexCountEv
libicui18n.so.67:_ZN6icu_6711MeasureUnit13getKilopascalEv
libicui18n.so.67:_ZN6icu_6711MeasureUnit13getMegapascalEv
libicui18n.so.67:_ZN6icu_6711MeasureUnit13getMicrometerEv
libicui18n.so.67:_ZN6icu_6711MeasureUnit13getMilliliterEv
libicui18n.so.67:_ZN6icu_6711MeasureUnit13getMillimeterEv
libicui18n.so.67:_ZN6icu_6711MeasureUnit13getNanosecondEv
libicui18n.so.67:_ZN6icu_6711MeasureUnit13getPintMetricEv
libicui18n.so.67:_ZN6icu_6711MeasureUnit13getPoundForceEv
libicui18n.so.67:_ZN6icu_6711MeasureUnit13getSquareFootEv
libicui18n.so.67:_ZN6icu_6711MeasureUnit13getSquareInchEv
libicui18n.so.67:_ZN6icu_6711MeasureUnit13getSquareMileEv
libicui18n.so.67:_ZN6icu_6711MeasureUnit13getSquareYardEv
libicui18n.so.67:_ZN6icu_6711MeasureUnit13getTablespoonEv
libicui18n.so.67:_ZN6icu_6711MeasureUnit13getWeekPersonEv
libicui18n.so.67:_ZN6icu_6711MeasureUnit13getYearPersonEv
libicui18n.so.67:_ZN6icu_6711MeasureUnit14createAcreFootER10UErrorCode
libicui18n.so.67:_ZN6icu_6711MeasureUnit14createGigabyteER10UErrorCode
libicui18n.so.67:_ZN6icu_6711MeasureUnit14createGigawattER10UErrorCode
libicui18n.so.67:_ZN6icu_6711MeasureUnit14createKilobyteER10UErrorCode
libicui18n.so.67:_ZN6icu_6711MeasureUnit14createKilogramER10UErrorCode
libicui18n.so.67:_ZN6icu_6711MeasureUnit14createKilowattER10UErrorCode
libicui18n.so.67:_ZN6icu_6711MeasureUnit14createMegabyteER10UErrorCode
libicui18n.so.67:_ZN6icu_6711MeasureUnit14createMegawattER10UErrorCode
libicui18n.so.67:_ZN6icu_6711MeasureUnit14createMillibarER10UErrorCode
libicui18n.so.67:_ZN6icu_6711MeasureUnit14createPermilleER10UErrorCode
libicui18n.so.67:_ZN6icu_6711MeasureUnit14createPetabyteER10UErrorCode
libicui18n.so.67:_ZN6icu_6711MeasureUnit14createTeaspoonER10UErrorCode
libicui18n.so.67:_ZN6icu_6711MeasureUnit14createTerabyteER10UErrorCode
libicui18n.so.67:_ZN6icu_6711MeasureUnit14getFoodcalorieEv
libicui18n.so.67:_ZN6icu_6711MeasureUnit14getHectopascalEv
libicui18n.so.67:_ZN6icu_6711MeasureUnit14getKilocalorieEv
libicui18n.so.67:_ZN6icu_6711MeasureUnit14getMicrosecondEv
libicui18n.so.67:_ZN6icu_6711MeasureUnit14getMilePerHourEv
libicui18n.so.67:_ZN6icu_6711MeasureUnit14getMilliampereEv
libicui18n.so.67:_ZN6icu_6711MeasureUnit14getMillisecondEv
libicui18n.so.67:_ZN6icu_6711MeasureUnit14getMonthPersonEv
libicui18n.so.67:_ZN6icu_6711MeasureUnit14getNewtonMeterEv
libicui18n.so.67:_ZN6icu_6711MeasureUnit14getSolarRadiusEv
libicui18n.so.67:_ZN6icu_6711MeasureUnit14getSquareMeterEv
libicui18n.so.67:_ZN6icu_6711MeasureUnit15createArcMinuteER10UErrorCode
libicui18n.so.67:_ZN6icu_6711MeasureUnit15createArcSecondER10UErrorCode
libicui18n.so.67:_ZN6icu_6711MeasureUnit15createCubicFootER10UErrorCode
libicui18n.so.67:_ZN6icu_6711MeasureUnit15createCubicInchER10UErrorCode
libicui18n.so.67:_ZN6icu_6711MeasureUnit15createCubicMileER10UErrorCode
libicui18n.so.67:_ZN6icu_6711MeasureUnit15createCubicYardER10UErrorCode
libicui18n.so.67:_ZN6icu_6711MeasureUnit15createCupMetricER10UErrorCode
libicui18n.so.67:_ZN6icu_6711MeasureUnit15createDayPersonER10UErrorCode
libicui18n.so.67:_ZN6icu_6711MeasureUnit15createDeciliterER10UErrorCode
libicui18n.so.67:_ZN6icu_6711MeasureUnit15createDecimeterER10UErrorCode
libicui18n.so.67:_ZN6icu_6711MeasureUnit15createEarthMassER10UErrorCode
libicui18n.so.67:_ZN6icu_6711MeasureUnit15createGigahertzER10UErrorCode
libicui18n.so.67:_ZN6icu_6711MeasureUnit15createKilohertzER10UErrorCode
libicui18n.so.67:_ZN6icu_6711MeasureUnit15createKilojouleER10UErrorCode
libicui18n.so.67:_ZN6icu_6711MeasureUnit15createKilometerER10UErrorCode
libicui18n.so.67:_ZN6icu_6711MeasureUnit15createLightYearER10UErrorCode
libicui18n.so.67:_ZN6icu_6711MeasureUnit15createMegahertzER10UErrorCode
libicui18n.so.67:_ZN6icu_6711MeasureUnit15createMegaliterER10UErrorCode
libicui18n.so.67:_ZN6icu_6711MeasureUnit15createMegapixelER10UErrorCode
libicui18n.so.67:_ZN6icu_6711MeasureUnit15createMetricTonER10UErrorCode
libicui18n.so.67:_ZN6icu_6711MeasureUnit15createMicrogramER10UErrorCode
libicui18n.so.67:_ZN6icu_6711MeasureUnit15createMilligramER10UErrorCode
libicui18n.so.67:_ZN6icu_6711MeasureUnit15createMilliwattER10UErrorCode
libicui18n.so.67:_ZN6icu_6711MeasureUnit15createNanometerER10UErrorCode
libicui18n.so.67:_ZN6icu_6711MeasureUnit15createOunceTroyER10UErrorCode
libicui18n.so.67:_ZN6icu_6711MeasureUnit15createPermyriadER10UErrorCode
libicui18n.so.67:_ZN6icu_6711MeasureUnit15createPicometerER10UErrorCode
libicui18n.so.67:_ZN6icu_6711MeasureUnit15createPoundFootER10UErrorCode
libicui18n.so.67:_ZN6icu_6711MeasureUnit15createSolarMassER10UErrorCode
libicui18n.so.67:_ZN6icu_6711MeasureUnit15getElectronvoltEv
libicui18n.so.67:_ZN6icu_6711MeasureUnit15getKilowattHourEv
libicui18n.so.67:_ZN6icu_6711MeasureUnit15getNauticalMileEv
libicui18n.so.67:_ZN6icu_6711MeasureUnit15getPixelPerInchEv
libicui18n.so.67:_ZN6icu_6711MeasureUnit16createAtmosphereER10UErrorCode
libicui18n.so.67:_ZN6icu_6711MeasureUnit16createCentiliterER10UErrorCode
libicui18n.so.67:_ZN6icu_6711MeasureUnit16createCentimeterER10UErrorCode
libicui18n.so.67:_ZN6icu_6711MeasureUnit16createCubicMeterER10UErrorCode
libicui18n.so.67:_ZN6icu_6711MeasureUnit16createDotPerInchER10UErrorCode
libicui18n.so.67:_ZN6icu_6711MeasureUnit16createFahrenheitER10UErrorCode
libicui18n.so.67:_ZN6icu_6711MeasureUnit16createFluidOunceER10UErrorCode
libicui18n.so.67:_ZN6icu_6711MeasureUnit16createHectoliterER10UErrorCode
libicui18n.so.67:_ZN6icu_6711MeasureUnit16createHorsepowerER10UErrorCode
libicui18n.so.67:_ZN6icu_6711MeasureUnit16createKilopascalER10UErrorCode
libicui18n.so.67:_ZN6icu_6711MeasureUnit16createMegapascalER10UErrorCode
libicui18n.so.67:_ZN6icu_6711MeasureUnit16createMicrometerER10UErrorCode
libicui18n.so.67:_ZN6icu_6711MeasureUnit16createMilliliterER10UErrorCode
libicui18n.so.67:_ZN6icu_6711MeasureUnit16createMillimeterER10UErrorCode
libicui18n.so.67:_ZN6icu_6711MeasureUnit16createNanosecondER10UErrorCode
libicui18n.so.67:_ZN6icu_6711MeasureUnit16createPintMetricER10UErrorCode
libicui18n.so.67:_ZN6icu_6711MeasureUnit16createPoundForceER10UErrorCode
libicui18n.so.67:_ZN6icu_6711MeasureUnit16createSquareFootER10UErrorCode
libicui18n.so.67:_ZN6icu_6711MeasureUnit16createSquareInchER10UErrorCode
libicui18n.so.67:_ZN6icu_6711MeasureUnit16createSquareMileER10UErrorCode
libicui18n.so.67:_ZN6icu_6711MeasureUnit16createSquareYardER10UErrorCode
libicui18n.so.67:_ZN6icu_6711MeasureUnit16createTablespoonER10UErrorCode
libicui18n.so.67:_ZN6icu_6711MeasureUnit16createWeekPersonER10UErrorCode
libicui18n.so.67:_ZN6icu_6711MeasureUnit16createYearPersonER10UErrorCode
libicui18n.so.67:_ZN6icu_6711MeasureUnit16getMilePerGallonEv
libicui18n.so.67:_ZN6icu_6711MeasureUnit16getStaticClassIDEv
libicui18n.so.67:_ZN6icu_6711MeasureUnit17createFoodcalorieER10UErrorCode
libicui18n.so.67:_ZN6icu_6711MeasureUnit17createHectopascalER10UErrorCode
libicui18n.so.67:_ZN6icu_6711MeasureUnit17createKilocalorieER10UErrorCode
libicui18n.so.67:_ZN6icu_6711MeasureUnit17createMicrosecondER10UErrorCode
libicui18n.so.67:_ZN6icu_6711MeasureUnit17createMilePerHourER10UErrorCode
libicui18n.so.67:_ZN6icu_6711MeasureUnit17createMilliampereER10UErrorCode
libicui18n.so.67:_ZN6icu_6711MeasureUnit17createMillisecondER10UErrorCode
libicui18n.so.67:_ZN6icu_6711MeasureUnit17createMonthPersonER10UErrorCode
libicui18n.so.67:_ZN6icu_6711MeasureUnit17createNewtonMeterER10UErrorCode
libicui18n.so.67:_ZN6icu_6711MeasureUnit17createSolarRadiusER10UErrorCode
libicui18n.so.67:_ZN6icu_6711MeasureUnit17createSquareMeterER10UErrorCode
libicui18n.so.67:_ZN6icu_6711MeasureUnit17getAvailableTypesER10UErrorCode
libicui18n.so.67:_ZN6icu_6711MeasureUnit17getCubicKilometerEv
libicui18n.so.67:_ZN6icu_6711MeasureUnit17getGallonImperialEv
libicui18n.so.67:_ZN6icu_6711MeasureUnit17getMeterPerSecondEv
libicui18n.so.67:_ZN6icu_6711MeasureUnit17getPartPerMillionEv
libicui18n.so.67:_ZN6icu_6711MeasureUnit18createElectronvoltER10UErrorCode
libicui18n.so.67:_ZN6icu_6711MeasureUnit18createKilowattHourER10UErrorCode
libicui18n.so.67:_ZN6icu_6711MeasureUnit18createNauticalMileER10UErrorCode
libicui18n.so.67:_ZN6icu_6711MeasureUnit18createPixelPerInchER10UErrorCode
libicui18n.so.67:_ZN6icu_6711MeasureUnit18getCubicCentimeterEv
libicui18n.so.67:_ZN6icu_6711MeasureUnit18getRevolutionAngleEv
libicui18n.so.67:_ZN6icu_6711MeasureUnit18getSolarLuminosityEv
libicui18n.so.67:_ZN6icu_6711MeasureUnit18getSquareKilometerEv
libicui18n.so.67:_ZN6icu_6711MeasureUnit18resolveUnitPerUnitERKS0_S2_Pb
libicui18n.so.67:_ZN6icu_6711MeasureUnit19createMilePerGallonER10UErrorCode
libicui18n.so.67:_ZN6icu_6711MeasureUnit19getAstronomicalUnitEv
libicui18n.so.67:_ZN6icu_6711MeasureUnit19getDotPerCentimeterEv
libicui18n.so.67:_ZN6icu_6711MeasureUnit19getKilometerPerHourEv
libicui18n.so.67:_ZN6icu_6711MeasureUnit19getMileScandinavianEv
libicui18n.so.67:_ZN6icu_6711MeasureUnit19getSquareCentimeterEv
libicui18n.so.67:_ZN6icu_6711MeasureUnit20createCubicKilometerER10UErrorCode
libicui18n.so.67:_ZN6icu_6711MeasureUnit20createGallonImperialER10UErrorCode
libicui18n.so.67:_ZN6icu_6711MeasureUnit20createMeterPerSecondER10UErrorCode
libicui18n.so.67:_ZN6icu_6711MeasureUnit20createPartPerMillionER10UErrorCode
libicui18n.so.67:_ZN6icu_6711MeasureUnit20getLiterPerKilometerEv
libicui18n.so.67:_ZN6icu_6711MeasureUnit20getMillimolePerLiterEv
libicui18n.so.67:_ZN6icu_6711MeasureUnit21createCubicCentimeterER10UErrorCode
libicui18n.so.67:_ZN6icu_6711MeasureUnit21createRevolutionAngleER10UErrorCode
libicui18n.so.67:_ZN6icu_6711MeasureUnit21createSolarLuminosityER10UErrorCode
libicui18n.so.67:_ZN6icu_6711MeasureUnit21createSquareKilometerER10UErrorCode
libicui18n.so.67:_ZN6icu_6711MeasureUnit21getBritishThermalUnitEv
libicui18n.so.67:_ZN6icu_6711MeasureUnit21getFluidOunceImperialEv
libicui18n.so.67:_ZN6icu_6711MeasureUnit21getGenericTemperatureEv
libicui18n.so.67:_ZN6icu_6711MeasureUnit21getPixelPerCentimeterEv
libicui18n.so.67:_ZN6icu_6711MeasureUnit21getPoundPerSquareInchEv
libicui18n.so.67:_ZN6icu_6711MeasureUnit22createAstronomicalUnitER10UErrorCode
libicui18n.so.67:_ZN6icu_6711MeasureUnit22createDotPerCentimeterER10UErrorCode
libicui18n.so.67:_ZN6icu_6711MeasureUnit22createKilometerPerHourER10UErrorCode
libicui18n.so.67:_ZN6icu_6711MeasureUnit22createMileScandinavianER10UErrorCode
libicui18n.so.67:_ZN6icu_6711MeasureUnit22createSquareCentimeterER10UErrorCode
libicui18n.so.67:_ZN6icu_6711MeasureUnit22getMillimeterOfMercuryEv
libicui18n.so.67:_ZN6icu_6711MeasureUnit23createLiterPerKilometerER10UErrorCode
libicui18n.so.67:_ZN6icu_6711MeasureUnit23createMillimolePerLiterER10UErrorCode
libicui18n.so.67:_ZN6icu_6711MeasureUnit24createBritishThermalUnitER10UErrorCode
libicui18n.so.67:_ZN6icu_6711MeasureUnit24createFluidOunceImperialER10UErrorCode
libicui18n.so.67:_ZN6icu_6711MeasureUnit24createGenericTemperatureER10UErrorCode
libicui18n.so.67:_ZN6icu_6711MeasureUnit24createPixelPerCentimeterER10UErrorCode
libicui18n.so.67:_ZN6icu_6711MeasureUnit24createPoundPerSquareInchER10UErrorCode
libicui18n.so.67:_ZN6icu_6711MeasureUnit24getLiterPer100KilometersEv
libicui18n.so.67:_ZN6icu_6711MeasureUnit24getMeterPerSecondSquaredEv
libicui18n.so.67:_ZN6icu_6711MeasureUnit24getMilePerGallonImperialEv
libicui18n.so.67:_ZN6icu_6711MeasureUnit24getMilligramPerDeciliterEv
libicui18n.so.67:_ZN6icu_6711MeasureUnit25createMillimeterOfMercuryER10UErrorCode
libicui18n.so.67:_ZN6icu_6711MeasureUnit27createLiterPer100KilometersER10UErrorCode
libicui18n.so.67:_ZN6icu_6711MeasureUnit27createMeterPerSecondSquaredER10UErrorCode
libicui18n.so.67:_ZN6icu_6711MeasureUnit27createMilePerGallonImperialER10UErrorCode
libicui18n.so.67:_ZN6icu_6711MeasureUnit27createMilligramPerDeciliterER10UErrorCode
libicui18n.so.67:_ZN6icu_6711MeasureUnit33internalGetIndexForTypeAndSubtypeEPKcS2_
libicui18n.so.67:_ZN6icu_6711MeasureUnit5getEmEv
libicui18n.so.67:_ZN6icu_6711MeasureUnit5setToEii
libicui18n.so.67:_ZN6icu_6711MeasureUnit6createEiiR10UErrorCode
libicui18n.so.67:_ZN6icu_6711MeasureUnit6getBarEv
libicui18n.so.67:_ZN6icu_6711MeasureUnit6getBitEv
libicui18n.so.67:_ZN6icu_6711MeasureUnit6getCupEv
libicui18n.so.67:_ZN6icu_6711MeasureUnit6getDayEv
libicui18n.so.67:_ZN6icu_6711MeasureUnit6getLuxEv
libicui18n.so.67:_ZN6icu_6711MeasureUnit6getOhmEv
libicui18n.so.67:_ZN6icu_6711MeasureUnit6getTonEv
libicui18n.so.67:_ZN6icu_6711MeasureUnit7getAcreEv
libicui18n.so.67:_ZN6icu_6711MeasureUnit7getByteEv
libicui18n.so.67:_ZN6icu_6711MeasureUnit7getFootEv
libicui18n.so.67:_ZN6icu_6711MeasureUnit7getGramEv
libicui18n.so.67:_ZN6icu_6711MeasureUnit7getHourEv
libicui18n.so.67:_ZN6icu_6711MeasureUnit7getInchEv
libicui18n.so.67:_ZN6icu_6711MeasureUnit7getKnotEv
libicui18n.so.67:_ZN6icu_6711MeasureUnit7getMileEv
libicui18n.so.67:_ZN6icu_6711MeasureUnit7getMoleEv
libicui18n.so.67:_ZN6icu_6711MeasureUnit7getPintEv
libicui18n.so.67:_ZN6icu_6711MeasureUnit7getVoltEv
libicui18n.so.67:_ZN6icu_6711MeasureUnit7getWattEv
libicui18n.so.67:_ZN6icu_6711MeasureUnit7getWeekEv
libicui18n.so.67:_ZN6icu_6711MeasureUnit7getYardEv
libicui18n.so.67:_ZN6icu_6711MeasureUnit7getYearEv
libicui18n.so.67:_ZN6icu_6711MeasureUnit8createEmER10UErrorCode
libicui18n.so.67:_ZN6icu_6711MeasureUnit8getCaratEv
libicui18n.so.67:_ZN6icu_6711MeasureUnit8getDunamEv
libicui18n.so.67:_ZN6icu_6711MeasureUnit8getHertzEv
libicui18n.so.67:_ZN6icu_6711MeasureUnit8getJouleEv
libicui18n.so.67:_ZN6icu_6711MeasureUnit8getKaratEv
libicui18n.so.67:_ZN6icu_6711MeasureUnit8getLiterEv
libicui18n.so.67:_ZN6icu_6711MeasureUnit8getMeterEv
libicui18n.so.67:_ZN6icu_6711MeasureUnit8getMonthEv
libicui18n.so.67:_ZN6icu_6711MeasureUnit8getOunceEv
libicui18n.so.67:_ZN6icu_6711MeasureUnit8getPixelEv
libicui18n.so.67:_ZN6icu_6711MeasureUnit8getPointEv
libicui18n.so.67:_ZN6icu_6711MeasureUnit8getPoundEv
libicui18n.so.67:_ZN6icu_6711MeasureUnit8getQuartEv
libicui18n.so.67:_ZN6icu_6711MeasureUnit8getStoneEv
libicui18n.so.67:_ZN6icu_6711MeasureUnit8initTimeEPKc
libicui18n.so.67:_ZN6icu_6711MeasureUnit9createBarER10UErrorCode
libicui18n.so.67:_ZN6icu_6711MeasureUnit9createBitER10UErrorCode
libicui18n.so.67:_ZN6icu_6711MeasureUnit9createCupER10UErrorCode
libicui18n.so.67:_ZN6icu_6711MeasureUnit9createDayER10UErrorCode
libicui18n.so.67:_ZN6icu_6711MeasureUnit9createLuxER10UErrorCode
libicui18n.so.67:_ZN6icu_6711MeasureUnit9createOhmER10UErrorCode
libicui18n.so.67:_ZN6icu_6711MeasureUnit9createTonER10UErrorCode
libicui18n.so.67:_ZN6icu_6711MeasureUnit9getAmpereEv
libicui18n.so.67:_ZN6icu_6711MeasureUnit9getBarrelEv
libicui18n.so.67:_ZN6icu_6711MeasureUnit9getBushelEv
libicui18n.so.67:_ZN6icu_6711MeasureUnit9getDaltonEv
libicui18n.so.67:_ZN6icu_6711MeasureUnit9getDecadeEv
libicui18n.so.67:_ZN6icu_6711MeasureUnit9getDegreeEv
libicui18n.so.67:_ZN6icu_6711MeasureUnit9getFathomEv
libicui18n.so.67:_ZN6icu_6711MeasureUnit9getGForceEv
libicui18n.so.67:_ZN6icu_6711MeasureUnit9getGallonEv
libicui18n.so.67:_ZN6icu_6711MeasureUnit9getInchHgEv
libicui18n.so.67:_ZN6icu_6711MeasureUnit9getKelvinEv
libicui18n.so.67:_ZN6icu_6711MeasureUnit9getMinuteEv
libicui18n.so.67:_ZN6icu_6711MeasureUnit9getNewtonEv
libicui18n.so.67:_ZN6icu_6711MeasureUnit9getParsecEv
libicui18n.so.67:_ZN6icu_6711MeasureUnit9getPascalEv
libicui18n.so.67:_ZN6icu_6711MeasureUnit9getRadianEv
libicui18n.so.67:_ZN6icu_6711MeasureUnit9getSecondEv
libicui18n.so.67:_ZN6icu_6711MeasureUnitC1EONS_15MeasureUnitImplE
libicui18n.so.67:_ZN6icu_6711MeasureUnitC1EOS0_
libicui18n.so.67:_ZN6icu_6711MeasureUnitC1ERKS0_
libicui18n.so.67:_ZN6icu_6711MeasureUnitC1Eii
libicui18n.so.67:_ZN6icu_6711MeasureUnitC1Ev
libicui18n.so.67:_ZN6icu_6711MeasureUnitC2EONS_15MeasureUnitImplE
libicui18n.so.67:_ZN6icu_6711MeasureUnitC2EOS0_
libicui18n.so.67:_ZN6icu_6711MeasureUnitC2ERKS0_
libicui18n.so.67:_ZN6icu_6711MeasureUnitC2Eii
libicui18n.so.67:_ZN6icu_6711MeasureUnitC2Ev
libicui18n.so.67:_ZN6icu_6711MeasureUnitD0Ev
libicui18n.so.67:_ZN6icu_6711MeasureUnitD1Ev
libicui18n.so.67:_ZN6icu_6711MeasureUnitD2Ev
libicui18n.so.67:_ZN6icu_6711MeasureUnitaSEOS0_
libicui18n.so.67:_ZN6icu_6711MeasureUnitaSERKS0_
libicui18n.so.67:_ZN6icu_6711NGramParser15parseCharactersEPNS_9InputTextE
libicui18n.so.67:_ZN6icu_6711NGramParser5parseEPNS_9InputTextE
libicui18n.so.67:_ZN6icu_6711NGramParser6lookupEi
libicui18n.so.67:_ZN6icu_6711NGramParser6searchEPKii
libicui18n.so.67:_ZN6icu_6711NGramParser7addByteEi
libicui18n.so.67:_ZN6icu_6711NGramParser8nextByteEPNS_9InputTextE
libicui18n.so.67:_ZN6icu_6711NGramParserC1EPKiPKh
libicui18n.so.67:_ZN6icu_6711NGramParserC2EPKiPKh
libicui18n.so.67:_ZN6icu_6711NGramParserD0Ev
libicui18n.so.67:_ZN6icu_6711NGramParserD1Ev
libicui18n.so.67:_ZN6icu_6711NGramParserD2Ev
libicui18n.so.67:_ZN6icu_6711PluralRules10getSamplesERKNS_13UnicodeStringEPdiR10UErrorCode
libicui18n.so.67:_ZN6icu_6711PluralRules11createRulesERKNS_13UnicodeStringER10UErrorCode
libicui18n.so.67:_ZN6icu_6711PluralRules16getStaticClassIDEv
libicui18n.so.67:_ZN6icu_6711PluralRules17internalForLocaleERKNS_6LocaleE11UPluralTypeR10UErrorCode
libicui18n.so.67:_ZN6icu_6711PluralRules18createDefaultRulesER10UErrorCode
libicui18n.so.67:_ZN6icu_6711PluralRules19getAllKeywordValuesERKNS_13UnicodeStringEPdiR10UErrorCode
libicui18n.so.67:_ZN6icu_6711PluralRules19getAvailableLocalesER10UErrorCode
libicui18n.so.67:_ZN6icu_6711PluralRules19getRuleFromResourceERKNS_6LocaleE11UPluralTypeR10UErrorCode
libicui18n.so.67:_ZN6icu_6711PluralRules20createSharedInstanceERKNS_6LocaleE11UPluralTypeR10UErrorCode
libicui18n.so.67:_ZN6icu_6711PluralRules21getUniqueKeywordValueERKNS_13UnicodeStringE
libicui18n.so.67:_ZN6icu_6711PluralRules9forLocaleERKNS_6LocaleE11UPluralTypeR10UErrorCode
libicui18n.so.67:_ZN6icu_6711PluralRules9forLocaleERKNS_6LocaleER10UErrorCode
libicui18n.so.67:_ZN6icu_6711PluralRulesC1ER10UErrorCode
libicui18n.so.67:_ZN6icu_6711PluralRulesC1ERKS0_
libicui18n.so.67:_ZN6icu_6711PluralRulesC2ER10UErrorCode
libicui18n.so.67:_ZN6icu_6711PluralRulesC2ERKS0_
libicui18n.so.67:_ZN6icu_6711PluralRulesD0Ev
libicui18n.so.67:_ZN6icu_6711PluralRulesD1Ev
libicui18n.so.67:_ZN6icu_6711PluralRulesD2Ev
libicui18n.so.67:_ZN6icu_6711PluralRulesaSERKS0_
libicui18n.so.67:_ZN6icu_6711PtnSkeleton5clearEv
libicui18n.so.67:_ZN6icu_6711PtnSkeleton8copyFromERKS0_
libicui18n.so.67:_ZN6icu_6711PtnSkeletonC1ERKS0_
libicui18n.so.67:_ZN6icu_6711PtnSkeletonC1Ev
libicui18n.so.67:_ZN6icu_6711PtnSkeletonC2ERKS0_
libicui18n.so.67:_ZN6icu_6711PtnSkeletonC2Ev
libicui18n.so.67:_ZN6icu_6711PtnSkeletonD0Ev
libicui18n.so.67:_ZN6icu_6711PtnSkeletonD1Ev
libicui18n.so.67:_ZN6icu_6711PtnSkeletonD2Ev
libicui18n.so.67:_ZN6icu_6711TailoredSet10handleCE32Eiij
libicui18n.so.67:_ZN6icu_6711TailoredSet11addPrefixesEPKNS_13CollationDataEiPKDs
libicui18n.so.67:_ZN6icu_6711TailoredSet15addContractionsEiPKDs
libicui18n.so.67:_ZN6icu_6711TailoredSet15comparePrefixesEiPKDsS2_
libicui18n.so.67:_ZN6icu_6711TailoredSet19compareContractionsEiPKDsS2_
libicui18n.so.67:_ZN6icu_6711TailoredSet3addEi
libicui18n.so.67:_ZN6icu_6711TailoredSet7compareEijj
libicui18n.so.67:_ZN6icu_6711TailoredSet7forDataEPKNS_13CollationDataER10UErrorCode
libicui18n.so.67:_ZN6icu_6711TailoredSet9addPrefixEPKNS_13CollationDataERKNS_13UnicodeStringEij
libicui18n.so.67:_ZN6icu_6711TailoredSet9addSuffixEiRKNS_13UnicodeStringE
libicui18n.so.67:_ZN6icu_6711TextTrieMap12addChildNodeEPNS_13CharacterNodeEDsR10UErrorCode
libicui18n.so.67:_ZN6icu_6711TextTrieMap3putEPKDsPvR10UErrorCode
libicui18n.so.67:_ZN6icu_6711TextTrieMap3putERKNS_13UnicodeStringEPvRNS_12ZNStringPoolER10UErrorCode
libicui18n.so.67:_ZN6icu_6711TextTrieMap7putImplERKNS_13UnicodeStringEPvR10UErrorCode
libicui18n.so.67:_ZN6icu_6711TextTrieMap9buildTrieER10UErrorCode
libicui18n.so.67:_ZN6icu_6711TextTrieMap9growNodesEv
libicui18n.so.67:_ZN6icu_6711TextTrieMapC1EaPFvPvE
libicui18n.so.67:_ZN6icu_6711TextTrieMapC2EaPFvPvE
libicui18n.so.67:_ZN6icu_6711TextTrieMapD0Ev
libicui18n.so.67:_ZN6icu_6711TextTrieMapD1Ev
libicui18n.so.67:_ZN6icu_6711TextTrieMapD2Ev
libicui18n.so.67:_ZN6icu_6712ArgExtractorC1ERKNS_12NumberFormatERKNS_11FormattableER10UErrorCode
libicui18n.so.67:_ZN6icu_6712ArgExtractorC2ERKNS_12NumberFormatERKNS_11FormattableER10UErrorCode
libicui18n.so.67:_ZN6icu_6712ArgExtractorD1Ev
libicui18n.so.67:_ZN6icu_6712ArgExtractorD2Ev
libicui18n.so.67:_ZN6icu_6712CharsetMatch3setEPNS_9InputTextEPKNS_17CharsetRecognizerEiPKcS7_
libicui18n.so.67:_ZN6icu_6712CharsetMatchC1Ev
libicui18n.so.67:_ZN6icu_6712CharsetMatchC2Ev
libicui18n.so.67:_ZN6icu_6712ChoiceFormat10setChoicesEPKdPKNS_13UnicodeStringEi
libicui18n.so.67:_ZN6icu_6712ChoiceFormat10setChoicesEPKdPKaPKNS_13UnicodeStringEi
libicui18n.so.67:_ZN6icu_6712ChoiceFormat10setChoicesEPKdPKaPKNS_13UnicodeStringEiR10UErrorCode
libicui18n.so.67:_ZN6icu_6712ChoiceFormat12applyPatternERKNS_13UnicodeStringER10UErrorCode
libicui18n.so.67:_ZN6icu_6712ChoiceFormat12applyPatternERKNS_13UnicodeStringER11UParseErrorR10UErrorCode
libicui18n.so.67:_ZN6icu_6712ChoiceFormat13parseArgumentERKNS_14MessagePatternEiRKNS_13UnicodeStringERNS_13ParsePositionE
libicui18n.so.67:_ZN6icu_6712ChoiceFormat14findSubMessageERKNS_14MessagePatternEid
libicui18n.so.67:_ZN6icu_6712ChoiceFormat16getStaticClassIDEv
libicui18n.so.67:_ZN6icu_6712ChoiceFormat25matchStringUntilLimitPartERKNS_14MessagePatternEiiRKNS_13UnicodeStringEi
libicui18n.so.67:_ZN6icu_6712ChoiceFormat4dtosEdRNS_13UnicodeStringE
libicui18n.so.67:_ZN6icu_6712ChoiceFormatC1EPKdPKNS_13UnicodeStringEi
libicui18n.so.67:_ZN6icu_6712ChoiceFormatC1EPKdPKaPKNS_13UnicodeStringEi
libicui18n.so.67:_ZN6icu_6712ChoiceFormatC1ERKNS_13UnicodeStringER10UErrorCode
libicui18n.so.67:_ZN6icu_6712ChoiceFormatC1ERKNS_13UnicodeStringER11UParseErrorR10UErrorCode
libicui18n.so.67:_ZN6icu_6712ChoiceFormatC1ERKS0_
libicui18n.so.67:_ZN6icu_6712ChoiceFormatC2EPKdPKNS_13UnicodeStringEi
libicui18n.so.67:_ZN6icu_6712ChoiceFormatC2EPKdPKaPKNS_13UnicodeStringEi
libicui18n.so.67:_ZN6icu_6712ChoiceFormatC2ERKNS_13UnicodeStringER10UErrorCode
libicui18n.so.67:_ZN6icu_6712ChoiceFormatC2ERKNS_13UnicodeStringER11UParseErrorR10UErrorCode
libicui18n.so.67:_ZN6icu_6712ChoiceFormatC2ERKS0_
libicui18n.so.67:_ZN6icu_6712ChoiceFormatD0Ev
libicui18n.so.67:_ZN6icu_6712ChoiceFormatD1Ev
libicui18n.so.67:_ZN6icu_6712ChoiceFormatD2Ev
libicui18n.so.67:_ZN6icu_6712ChoiceFormataSERKS0_
libicui18n.so.67:_ZN6icu_6712CollationKey10reallocateEii
libicui18n.so.67:_ZN6icu_6712CollationKey10setToBogusEv
libicui18n.so.67:_ZN6icu_6712CollationKey16getStaticClassIDEv
libicui18n.so.67:_ZN6icu_6712CollationKey5resetEv
libicui18n.so.67:_ZN6icu_6712CollationKey9setLengthEi
libicui18n.so.67:_ZN6icu_6712CollationKeyC1EPKhi
libicui18n.so.67:_ZN6icu_6712CollationKeyC1ERKS0_
libicui18n.so.67:_ZN6icu_6712CollationKeyC1Ev
libicui18n.so.67:_ZN6icu_6712CollationKeyC2EPKhi
libicui18n.so.67:_ZN6icu_6712CollationKeyC2ERKS0_
libicui18n.so.67:_ZN6icu_6712CollationKeyC2Ev
libicui18n.so.67:_ZN6icu_6712CollationKeyD0Ev
libicui18n.so.67:_ZN6icu_6712CollationKeyD1Ev
libicui18n.so.67:_ZN6icu_6712CollationKeyD2Ev
libicui18n.so.67:_ZN6icu_6712CollationKeyaSERKS0_
libicui18n.so.67:_ZN6icu_6712CurrencyUnit16getStaticClassIDEv
libicui18n.so.67:_ZN6icu_6712CurrencyUnitC1ENS_11StringPieceER10UErrorCode
libicui18n.so.67:_ZN6icu_6712CurrencyUnitC1ENS_14ConstChar16PtrER10UErrorCode
libicui18n.so.67:_ZN6icu_6712CurrencyUnitC1ERKNS_11MeasureUnitER10UErrorCode
libicui18n.so.67:_ZN6icu_6712CurrencyUnitC1ERKS0_
libicui18n.so.67:_ZN6icu_6712CurrencyUnitC1Ev
libicui18n.so.67:_ZN6icu_6712CurrencyUnitC2ENS_11StringPieceER10UErrorCode
libicui18n.so.67:_ZN6icu_6712CurrencyUnitC2ENS_14ConstChar16PtrER10UErrorCode
libicui18n.so.67:_ZN6icu_6712CurrencyUnitC2ERKNS_11MeasureUnitER10UErrorCode
libicui18n.so.67:_ZN6icu_6712CurrencyUnitC2ERKS0_
libicui18n.so.67:_ZN6icu_6712CurrencyUnitC2Ev
libicui18n.so.67:_ZN6icu_6712CurrencyUnitD0Ev
libicui18n.so.67:_ZN6icu_6712CurrencyUnitD1Ev
libicui18n.so.67:_ZN6icu_6712CurrencyUnitD2Ev
libicui18n.so.67:_ZN6icu_6712CurrencyUnitaSERKS0_
libicui18n.so.67:_ZN6icu_6712DateTimeRule16getStaticClassIDEv
libicui18n.so.67:_ZN6icu_6712DateTimeRuleC1ERKS0_
libicui18n.so.67:_ZN6icu_6712DateTimeRuleC1EiiiNS0_12TimeRuleTypeE
libicui18n.so.67:_ZN6icu_6712DateTimeRuleC1EiiiaiNS0_12TimeRuleTypeE
libicui18n.so.67:_ZN6icu_6712DateTimeRuleC1EiiiiNS0_12TimeRuleTypeE
libicui18n.so.67:_ZN6icu_6712DateTimeRuleC2ERKS0_
libicui18n.so.67:_ZN6icu_6712DateTimeRuleC2EiiiNS0_12TimeRuleTypeE
libicui18n.so.67:_ZN6icu_6712DateTimeRuleC2EiiiaiNS0_12TimeRuleTypeE
libicui18n.so.67:_ZN6icu_6712DateTimeRuleC2EiiiiNS0_12TimeRuleTypeE
libicui18n.so.67:_ZN6icu_6712DateTimeRuleD0Ev
libicui18n.so.67:_ZN6icu_6712DateTimeRuleD1Ev
libicui18n.so.67:_ZN6icu_6712DateTimeRuleD2Ev
libicui18n.so.67:_ZN6icu_6712DateTimeRuleaSERKS0_
libicui18n.so.67:_ZN6icu_6712DistanceInfo5setToERKS0_
libicui18n.so.67:_ZN6icu_6712DistanceInfoD0Ev
libicui18n.so.67:_ZN6icu_6712DistanceInfoD1Ev
libicui18n.so.67:_ZN6icu_6712DistanceInfoD2Ev
libicui18n.so.67:_ZN6icu_6712FixedDecimal19getFractionalDigitsEdi
libicui18n.so.67:_ZN6icu_6712FixedDecimal26adjustForMinFractionDigitsEi
libicui18n.so.67:_ZN6icu_6712FixedDecimal4initEd
libicui18n.so.67:_ZN6icu_6712FixedDecimal4initEdil
libicui18n.so.67:_ZN6icu_6712FixedDecimal8decimalsEd
libicui18n.so.67:_ZN6icu_6712FixedDecimal9quickInitEd
libicui18n.so.67:_ZN6icu_6712FixedDecimalC1ERKNS_13UnicodeStringER10UErrorCode
libicui18n.so.67:_ZN6icu_6712FixedDecimalC1ERKS0_
libicui18n.so.67:_ZN6icu_6712FixedDecimalC1Ed
libicui18n.so.67:_ZN6icu_6712FixedDecimalC1Edi
libicui18n.so.67:_ZN6icu_6712FixedDecimalC1Edil
libicui18n.so.67:_ZN6icu_6712FixedDecimalC1Ev
libicui18n.so.67:_ZN6icu_6712FixedDecimalC2ERKNS_13UnicodeStringER10UErrorCode
libicui18n.so.67:_ZN6icu_6712FixedDecimalC2ERKS0_
libicui18n.so.67:_ZN6icu_6712FixedDecimalC2Ed
libicui18n.so.67:_ZN6icu_6712FixedDecimalC2Edi
libicui18n.so.67:_ZN6icu_6712FixedDecimalC2Edil
libicui18n.so.67:_ZN6icu_6712FixedDecimalC2Ev
libicui18n.so.67:_ZN6icu_6712FixedDecimalD0Ev
libicui18n.so.67:_ZN6icu_6712FixedDecimalD1Ev
libicui18n.so.67:_ZN6icu_6712FixedDecimalD2Ev
libicui18n.so.67:_ZN6icu_6712FormatParser14isQuoteLiteralERKNS_13UnicodeStringE
libicui18n.so.67:_ZN6icu_6712FormatParser15getQuoteLiteralERNS_13UnicodeStringEPi
libicui18n.so.67:_ZN6icu_6712FormatParser17getCanonicalIndexERKNS_13UnicodeStringEa
libicui18n.so.67:_ZN6icu_6712FormatParser3setERKNS_13UnicodeStringE
libicui18n.so.67:_ZN6icu_6712FormatParser9setTokensERKNS_13UnicodeStringEiPi
libicui18n.so.67:_ZN6icu_6712FormatParserC1Ev
libicui18n.so.67:_ZN6icu_6712FormatParserC2Ev
libicui18n.so.67:_ZN6icu_6712FormatParserD0Ev
libicui18n.so.67:_ZN6icu_6712FormatParserD1Ev
libicui18n.so.67:_ZN6icu_6712FormatParserD2Ev
libicui18n.so.67:_ZN6icu_6712IteratedChar8nextByteEPNS_9InputTextE
libicui18n.so.67:_ZN6icu_6712IteratedCharC1Ev
libicui18n.so.67:_ZN6icu_6712IteratedCharC2Ev
libicui18n.so.67:_ZN6icu_6712NumberFormat10setContextE15UDisplayContextR10UErrorCode
libicui18n.so.67:_ZN6icu_6712NumberFormat10setLenientEa
libicui18n.so.67:_ZN6icu_6712NumberFormat10unregisterEPKvR10UErrorCode
libicui18n.so.67:_ZN6icu_6712NumberFormat11setCurrencyEPKDsR10UErrorCode
libicui18n.so.67:_ZN6icu_6712NumberFormat12makeInstanceERKNS_6LocaleE18UNumberFormatStyleR10UErrorCode
libicui18n.so.67:_ZN6icu_6712NumberFormat12makeInstanceERKNS_6LocaleE18UNumberFormatStyleaR10UErrorCode
libicui18n.so.67:_ZN6icu_6712NumberFormat14createInstanceER10UErrorCode
libicui18n.so.67:_ZN6icu_6712NumberFormat14createInstanceERKNS_6LocaleE18UNumberFormatStyleR10UErrorCode
libicui18n.so.67:_ZN6icu_6712NumberFormat14createInstanceERKNS_6LocaleER10UErrorCode
libicui18n.so.67:_ZN6icu_6712NumberFormat15registerFactoryEPNS_19NumberFormatFactoryER10UErrorCode
libicui18n.so.67:_ZN6icu_6712NumberFormat15setGroupingUsedEa
libicui18n.so.67:_ZN6icu_6712NumberFormat15setRoundingModeENS0_13ERoundingModeE
libicui18n.so.67:_ZN6icu_6712NumberFormat16getStaticClassIDEv
libicui18n.so.67:_ZN6icu_6712NumberFormat16isStyleSupportedE18UNumberFormatStyle
libicui18n.so.67:_ZN6icu_6712NumberFormat19getAvailableLocalesERi
libicui18n.so.67:_ZN6icu_6712NumberFormat19getAvailableLocalesEv
libicui18n.so.67:_ZN6icu_6712NumberFormat19setParseIntegerOnlyEa
libicui18n.so.67:_ZN6icu_6712NumberFormat20createSharedInstanceERKNS_6LocaleE18UNumberFormatStyleR10UErrorCode
libicui18n.so.67:_ZN6icu_6712NumberFormat21createPercentInstanceER10UErrorCode
libicui18n.so.67:_ZN6icu_6712NumberFormat21createPercentInstanceERKNS_6LocaleER10UErrorCode
libicui18n.so.67:_ZN6icu_6712NumberFormat22createCurrencyInstanceER10UErrorCode
libicui18n.so.67:_ZN6icu_6712NumberFormat22createCurrencyInstanceERKNS_6LocaleER10UErrorCode
libicui18n.so.67:_ZN6icu_6712NumberFormat22internalCreateInstanceERKNS_6LocaleE18UNumberFormatStyleR10UErrorCode
libicui18n.so.67:_ZN6icu_6712NumberFormat23setMaximumIntegerDigitsEi
libicui18n.so.67:_ZN6icu_6712NumberFormat23setMinimumIntegerDigitsEi
libicui18n.so.67:_ZN6icu_6712NumberFormat24createScientificInstanceER10UErrorCode
libicui18n.so.67:_ZN6icu_6712NumberFormat24createScientificInstanceERKNS_6LocaleER10UErrorCode
libicui18n.so.67:_ZN6icu_6712NumberFormat24setMaximumFractionDigitsEi
libicui18n.so.67:_ZN6icu_6712NumberFormat24setMinimumFractionDigitsEi
libicui18n.so.67:_ZN6icu_6712NumberFormatC1ERKS0_
libicui18n.so.67:_ZN6icu_6712NumberFormatC1Ev
libicui18n.so.67:_ZN6icu_6712NumberFormatC2ERKS0_
libicui18n.so.67:_ZN6icu_6712NumberFormatC2Ev
libicui18n.so.67:_ZN6icu_6712NumberFormatD0Ev
libicui18n.so.67:_ZN6icu_6712NumberFormatD1Ev
libicui18n.so.67:_ZN6icu_6712NumberFormatD2Ev
libicui18n.so.67:_ZN6icu_6712NumberFormataSERKS0_
libicui18n.so.67:_ZN6icu_6712OrConstraint11isFulfilledERKNS_13IFixedDecimalE
libicui18n.so.67:_ZN6icu_6712OrConstraint3addER10UErrorCode
libicui18n.so.67:_ZN6icu_6712OrConstraintC1ERKS0_
libicui18n.so.67:_ZN6icu_6712OrConstraintC2ERKS0_
libicui18n.so.67:_ZN6icu_6712OrConstraintD0Ev
libicui18n.so.67:_ZN6icu_6712OrConstraintD1Ev
libicui18n.so.67:_ZN6icu_6712OrConstraintD2Ev
libicui18n.so.67:_ZN6icu_6712PluralFormat11copyObjectsERKS0_
libicui18n.so.67:_ZN6icu_6712PluralFormat12applyPatternERKNS_13UnicodeStringER10UErrorCode
libicui18n.so.67:_ZN6icu_6712PluralFormat14PluralSelectorD0Ev
libicui18n.so.67:_ZN6icu_6712PluralFormat14PluralSelectorD1Ev
libicui18n.so.67:_ZN6icu_6712PluralFormat14PluralSelectorD2Ev
libicui18n.so.67:_ZN6icu_6712PluralFormat14findSubMessageERKNS_14MessagePatternEiRKNS0_14PluralSelectorEPvdR10UErrorCode
libicui18n.so.67:_ZN6icu_6712PluralFormat15setNumberFormatEPKNS_12NumberFormatER10UErrorCode
libicui18n.so.67:_ZN6icu_6712PluralFormat16getStaticClassIDEv
libicui18n.so.67:_ZN6icu_6712PluralFormat21PluralSelectorAdapter5resetEv
libicui18n.so.67:_ZN6icu_6712PluralFormat21PluralSelectorAdapterD0Ev
libicui18n.so.67:_ZN6icu_6712PluralFormat21PluralSelectorAdapterD1Ev
libicui18n.so.67:_ZN6icu_6712PluralFormat21PluralSelectorAdapterD2Ev
libicui18n.so.67:_ZN6icu_6712PluralFormat4initEPKNS_11PluralRulesE11UPluralTypeR10UErrorCode
libicui18n.so.67:_ZN6icu_6712PluralFormat9setLocaleERKNS_6LocaleER10UErrorCode
libicui18n.so.67:_ZN6icu_6712PluralFormat9toPatternERNS_13UnicodeStringE
libicui18n.so.67:_ZN6icu_6712PluralFormatC1ER10UErrorCode
libicui18n.so.67:_ZN6icu_6712PluralFormatC1ERKNS_11PluralRulesER10UErrorCode
libicui18n.so.67:_ZN6icu_6712PluralFormatC1ERKNS_11PluralRulesERKNS_13UnicodeStringER10UErrorCode
libicui18n.so.67:_ZN6icu_6712PluralFormatC1ERKNS_13UnicodeStringER10UErrorCode
libicui18n.so.67:_ZN6icu_6712PluralFormatC1ERKNS_6LocaleE11UPluralTypeR10UErrorCode
libicui18n.so.67:_ZN6icu_6712PluralFormatC1ERKNS_6LocaleE11UPluralTypeRKNS_13UnicodeStringER10UErrorCode
libicui18n.so.67:_ZN6icu_6712PluralFormatC1ERKNS_6LocaleER10UErrorCode
libicui18n.so.67:_ZN6icu_6712PluralFormatC1ERKNS_6LocaleERKNS_11PluralRulesER10UErrorCode
libicui18n.so.67:_ZN6icu_6712PluralFormatC1ERKNS_6LocaleERKNS_11PluralRulesERKNS_13UnicodeStringER10UErrorCode
libicui18n.so.67:_ZN6icu_6712PluralFormatC1ERKNS_6LocaleERKNS_13UnicodeStringER10UErrorCode
libicui18n.so.67:_ZN6icu_6712PluralFormatC1ERKS0_
libicui18n.so.67:_ZN6icu_6712PluralFormatC2ER10UErrorCode
libicui18n.so.67:_ZN6icu_6712PluralFormatC2ERKNS_11PluralRulesER10UErrorCode
libicui18n.so.67:_ZN6icu_6712PluralFormatC2ERKNS_11PluralRulesERKNS_13UnicodeStringER10UErrorCode
libicui18n.so.67:_ZN6icu_6712PluralFormatC2ERKNS_13UnicodeStringER10UErrorCode
libicui18n.so.67:_ZN6icu_6712PluralFormatC2ERKNS_6LocaleE11UPluralTypeR10UErrorCode
libicui18n.so.67:_ZN6icu_6712PluralFormatC2ERKNS_6LocaleE11UPluralTypeRKNS_13UnicodeStringER10UErrorCode
libicui18n.so.67:_ZN6icu_6712PluralFormatC2ERKNS_6LocaleER10UErrorCode
libicui18n.so.67:_ZN6icu_6712PluralFormatC2ERKNS_6LocaleERKNS_11PluralRulesER10UErrorCode
libicui18n.so.67:_ZN6icu_6712PluralFormatC2ERKNS_6LocaleERKNS_11PluralRulesERKNS_13UnicodeStringER10UErrorCode
libicui18n.so.67:_ZN6icu_6712PluralFormatC2ERKNS_6LocaleERKNS_13UnicodeStringER10UErrorCode
libicui18n.so.67:_ZN6icu_6712PluralFormatC2ERKS0_
libicui18n.so.67:_ZN6icu_6712PluralFormatD0Ev
libicui18n.so.67:_ZN6icu_6712PluralFormatD1Ev
libicui18n.so.67:_ZN6icu_6712PluralFormatD2Ev
libicui18n.so.67:_ZN6icu_6712PluralFormataSERKS0_
libicui18n.so.67:_ZN6icu_6712RegexCompile10compileSetEPNS_10UnicodeSetE
libicui18n.so.67:_ZN6icu_6712RegexCompile10nextCharLLEv
libicui18n.so.67:_ZN6icu_6712RegexCompile10peekCharLLEv
libicui18n.so.67:_ZN6icu_6712RegexCompile11blockTopLocEa
libicui18n.so.67:_ZN6icu_6712RegexCompile11fixLiteralsEa
libicui18n.so.67:_ZN6icu_6712RegexCompile11literalCharEi
libicui18n.so.67:_ZN6icu_6712RegexCompile12allocateDataEi
libicui18n.so.67:_ZN6icu_6712RegexCompile13scanNamedCharEv
libicui18n.so.67:_ZN6icu_6712RegexCompile13scanPosixPropEv
libicui18n.so.67:_ZN6icu_6712RegexCompile14doParseActionsEi
libicui18n.so.67:_ZN6icu_6712RegexCompile14matchStartTypeEv
libicui18n.so.67:_ZN6icu_6712RegexCompile14maxMatchLengthEii
libicui18n.so.67:_ZN6icu_6712RegexCompile14minMatchLengthEii
libicui18n.so.67:_ZN6icu_6712RegexCompile15compileIntervalEii
libicui18n.so.67:_ZN6icu_6712RegexCompile16handleCloseParenEv
libicui18n.so.67:_ZN6icu_6712RegexCompile17allocateStackDataEi
libicui18n.so.67:_ZN6icu_6712RegexCompile20createSetForPropertyERKNS_13UnicodeStringEa
libicui18n.so.67:_ZN6icu_6712RegexCompile21compileInlineIntervalEv
libicui18n.so.67:_ZN6icu_6712RegexCompile27findCaseInsensitiveStartersEiPNS_10UnicodeSetE
libicui18n.so.67:_ZN6icu_6712RegexCompile5errorE10UErrorCode
libicui18n.so.67:_ZN6icu_6712RegexCompile7buildOpEii
libicui18n.so.67:_ZN6icu_6712RegexCompile7compileEP5UTextR11UParseErrorR10UErrorCode
libicui18n.so.67:_ZN6icu_6712RegexCompile7compileERKNS_13UnicodeStringER11UParseErrorR10UErrorCode
libicui18n.so.67:_ZN6icu_6712RegexCompile7setEvalEi
libicui18n.so.67:_ZN6icu_6712RegexCompile8appendOpEi
libicui18n.so.67:_ZN6icu_6712RegexCompile8appendOpEii
libicui18n.so.67:_ZN6icu_6712RegexCompile8insertOpEi
libicui18n.so.67:_ZN6icu_6712RegexCompile8nextCharERNS0_16RegexPatternCharE
libicui18n.so.67:_ZN6icu_6712RegexCompile8scanPropEv
libicui18n.so.67:_ZN6icu_6712RegexCompile9setPushOpEi
libicui18n.so.67:_ZN6icu_6712RegexCompile9stripNOPsEv
libicui18n.so.67:_ZN6icu_6712RegexCompileC1EPNS_12RegexPatternER10UErrorCode
libicui18n.so.67:_ZN6icu_6712RegexCompileC2EPNS_12RegexPatternER10UErrorCode
libicui18n.so.67:_ZN6icu_6712RegexCompileD0Ev
libicui18n.so.67:_ZN6icu_6712RegexCompileD1Ev
libicui18n.so.67:_ZN6icu_6712RegexCompileD2Ev
libicui18n.so.67:_ZN6icu_6712RegexMatcher10appendTailEP5UTextR10UErrorCode
libicui18n.so.67:_ZN6icu_6712RegexMatcher10appendTailERNS_13UnicodeStringE
libicui18n.so.67:_ZN6icu_6712RegexMatcher10replaceAllEP5UTextS2_R10UErrorCode
libicui18n.so.67:_ZN6icu_6712RegexMatcher10replaceAllERKNS_13UnicodeStringER10UErrorCode
libicui18n.so.67:_ZN6icu_6712RegexMatcher10resetStackEv
libicui18n.so.67:_ZN6icu_6712RegexMatcher12MatchChunkAtEiaR10UErrorCode
libicui18n.so.67:_ZN6icu_6712RegexMatcher12replaceFirstEP5UTextS2_R10UErrorCode
libicui18n.so.67:_ZN6icu_6712RegexMatcher12replaceFirstERKNS_13UnicodeStringER10UErrorCode
libicui18n.so.67:_ZN6icu_6712RegexMatcher12setTimeLimitEiR10UErrorCode
libicui18n.so.67:_ZN6icu_6712RegexMatcher13IncrementTimeER10UErrorCode
libicui18n.so.67:_ZN6icu_6712RegexMatcher13setStackLimitEiR10UErrorCode
libicui18n.so.67:_ZN6icu_6712RegexMatcher14findUsingChunkER10UErrorCode
libicui18n.so.67:_ZN6icu_6712RegexMatcher14isWordBoundaryEl
libicui18n.so.67:_ZN6icu_6712RegexMatcher15isUWordBoundaryElR10UErrorCode
libicui18n.so.67:_ZN6icu_6712RegexMatcher16getMatchCallbackERPFaPKviERS2_R10UErrorCode
libicui18n.so.67:_ZN6icu_6712RegexMatcher16getStaticClassIDEv
libicui18n.so.67:_ZN6icu_6712RegexMatcher16refreshInputTextEP5UTextR10UErrorCode
libicui18n.so.67:_ZN6icu_6712RegexMatcher16setMatchCallbackEPFaPKviES2_R10UErrorCode
libicui18n.so.67:_ZN6icu_6712RegexMatcher17appendReplacementEP5UTextS2_R10UErrorCode
libicui18n.so.67:_ZN6icu_6712RegexMatcher17appendReplacementERNS_13UnicodeStringERKS1_R10UErrorCode
libicui18n.so.67:_ZN6icu_6712RegexMatcher18useAnchoringBoundsEa
libicui18n.so.67:_ZN6icu_6712RegexMatcher19followingGCBoundaryElR10UErrorCode
libicui18n.so.67:_ZN6icu_6712RegexMatcher19isChunkWordBoundaryEi
libicui18n.so.67:_ZN6icu_6712RegexMatcher19resetPreserveRegionEv
libicui18n.so.67:_ZN6icu_6712RegexMatcher20useTransparentBoundsEa
libicui18n.so.67:_ZN6icu_6712RegexMatcher23getFindProgressCallbackERPFaPKvlERS2_R10UErrorCode
libicui18n.so.67:_ZN6icu_6712RegexMatcher23setFindProgressCallbackEPFaPKvlES2_R10UErrorCode
libicui18n.so.67:_ZN6icu_6712RegexMatcher4findER10UErrorCode
libicui18n.so.67:_ZN6icu_6712RegexMatcher4findElR10UErrorCode
libicui18n.so.67:_ZN6icu_6712RegexMatcher4findEv
libicui18n.so.67:_ZN6icu_6712RegexMatcher4initER10UErrorCode
libicui18n.so.67:_ZN6icu_6712RegexMatcher5init2EP5UTextR10UErrorCode
libicui18n.so.67:_ZN6icu_6712RegexMatcher5resetEP5UText
libicui18n.so.67:_ZN6icu_6712RegexMatcher5resetERKNS_13UnicodeStringE
libicui18n.so.67:_ZN6icu_6712RegexMatcher5resetElR10UErrorCode
libicui18n.so.67:_ZN6icu_6712RegexMatcher5resetEv
libicui18n.so.67:_ZN6icu_6712RegexMatcher5splitEP5UTextPS2_iR10UErrorCode
libicui18n.so.67:_ZN6icu_6712RegexMatcher5splitERKNS_13UnicodeStringEPS1_iR10UErrorCode
libicui18n.so.67:_ZN6icu_6712RegexMatcher6regionEllR10UErrorCode
libicui18n.so.67:_ZN6icu_6712RegexMatcher6regionElllR10UErrorCode
libicui18n.so.67:_ZN6icu_6712RegexMatcher7MatchAtElaR10UErrorCode
libicui18n.so.67:_ZN6icu_6712RegexMatcher7matchesER10UErrorCode
libicui18n.so.67:_ZN6icu_6712RegexMatcher7matchesElR10UErrorCode
libicui18n.so.67:_ZN6icu_6712RegexMatcher8setTraceEa
libicui18n.so.67:_ZN6icu_6712RegexMatcher9lookingAtER10UErrorCode
libicui18n.so.67:_ZN6icu_6712RegexMatcher9lookingAtElR10UErrorCode
libicui18n.so.67:_ZN6icu_6712RegexMatcherC1EP5UTextS2_jR10UErrorCode
libicui18n.so.67:_ZN6icu_6712RegexMatcherC1EP5UTextjR10UErrorCode
libicui18n.so.67:_ZN6icu_6712RegexMatcherC1EPKNS_12RegexPatternE
libicui18n.so.67:_ZN6icu_6712RegexMatcherC1ERKNS_13UnicodeStringES3_jR10UErrorCode
libicui18n.so.67:_ZN6icu_6712RegexMatcherC1ERKNS_13UnicodeStringEjR10UErrorCode
libicui18n.so.67:_ZN6icu_6712RegexMatcherD0Ev
libicui18n.so.67:_ZN6icu_6712RegexMatcherD1Ev
libicui18n.so.67:_ZN6icu_6712RegexPattern16getStaticClassIDEv
libicui18n.so.67:_ZN6icu_6712RegexPattern19initNamedCaptureMapEv
libicui18n.so.67:_ZN6icu_6712RegexPattern3zapEv
libicui18n.so.67:_ZN6icu_6712RegexPattern4initEv
libicui18n.so.67:_ZN6icu_6712RegexPattern7compileEP5UTextR11UParseErrorR10UErrorCode
libicui18n.so.67:_ZN6icu_6712RegexPattern7compileEP5UTextjR10UErrorCode
libicui18n.so.67:_ZN6icu_6712RegexPattern7compileEP5UTextjR11UParseErrorR10UErrorCode
libicui18n.so.67:_ZN6icu_6712RegexPattern7compileERKNS_13UnicodeStringER11UParseErrorR10UErrorCode
libicui18n.so.67:_ZN6icu_6712RegexPattern7compileERKNS_13UnicodeStringEjR10UErrorCode
libicui18n.so.67:_ZN6icu_6712RegexPattern7compileERKNS_13UnicodeStringEjR11UParseErrorR10UErrorCode
libicui18n.so.67:_ZN6icu_6712RegexPattern7matchesEP5UTextS2_R11UParseErrorR10UErrorCode
libicui18n.so.67:_ZN6icu_6712RegexPattern7matchesERKNS_13UnicodeStringES3_R11UParseErrorR10UErrorCode
libicui18n.so.67:_ZN6icu_6712RegexPatternC1ERKS0_
libicui18n.so.67:_ZN6icu_6712RegexPatternC1Ev
libicui18n.so.67:_ZN6icu_6712RegexPatternD0Ev
libicui18n.so.67:_ZN6icu_6712RegexPatternD1Ev
libicui18n.so.67:_ZN6icu_6712RegexPatternaSERKS0_
libicui18n.so.67:_ZN6icu_6712SelectFormat12applyPatternERKNS_13UnicodeStringER10UErrorCode
libicui18n.so.67:_ZN6icu_6712SelectFormat14findSubMessageERKNS_14MessagePatternEiRKNS_13UnicodeStringER10UErrorCode
libicui18n.so.67:_ZN6icu_6712SelectFormat16getStaticClassIDEv
libicui18n.so.67:_ZN6icu_6712SelectFormat9toPatternERNS_13UnicodeStringE
libicui18n.so.67:_ZN6icu_6712SelectFormatC1ERKNS_13UnicodeStringER10UErrorCode
libicui18n.so.67:_ZN6icu_6712SelectFormatC1ERKS0_
libicui18n.so.67:_ZN6icu_6712SelectFormatC2ERKNS_13UnicodeStringER10UErrorCode
libicui18n.so.67:_ZN6icu_6712SelectFormatC2ERKS0_
libicui18n.so.67:_ZN6icu_6712SelectFormatD0Ev
libicui18n.so.67:_ZN6icu_6712SelectFormatD1Ev
libicui18n.so.67:_ZN6icu_6712SelectFormatD2Ev
libicui18n.so.67:_ZN6icu_6712SelectFormataSERKS0_
libicui18n.so.67:_ZN6icu_6712StringSearch10handleNextEiR10UErrorCode
libicui18n.so.67:_ZN6icu_6712StringSearch10handlePrevEiR10UErrorCode
libicui18n.so.67:_ZN6icu_6712StringSearch10setPatternERKNS_13UnicodeStringER10UErrorCode
libicui18n.so.67:_ZN6icu_6712StringSearch11setCollatorEPNS_17RuleBasedCollatorER10UErrorCode
libicui18n.so.67:_ZN6icu_6712StringSearch16getStaticClassIDEv
libicui18n.so.67:_ZN6icu_6712StringSearch5resetEv
libicui18n.so.67:_ZN6icu_6712StringSearch7setTextERKNS_13UnicodeStringER10UErrorCode
libicui18n.so.67:_ZN6icu_6712StringSearch7setTextERNS_17CharacterIteratorER10UErrorCode
libicui18n.so.67:_ZN6icu_6712StringSearch9setOffsetEiR10UErrorCode
libicui18n.so.67:_ZN6icu_6712StringSearchC1ERKNS_13UnicodeStringERNS_17CharacterIteratorEPNS_17RuleBasedCollatorEPNS_13BreakIteratorER10UErrorCode
libicui18n.so.67:_ZN6icu_6712StringSearchC1ERKNS_13UnicodeStringERNS_17CharacterIteratorERKNS_6LocaleEPNS_13BreakIteratorER10UErrorCode
libicui18n.so.67:_ZN6icu_6712StringSearchC1ERKNS_13UnicodeStringES3_PNS_17RuleBasedCollatorEPNS_13BreakIteratorER10UErrorCode
libicui18n.so.67:_ZN6icu_6712StringSearchC1ERKNS_13UnicodeStringES3_RKNS_6LocaleEPNS_13BreakIteratorER10UErrorCode
libicui18n.so.67:_ZN6icu_6712StringSearchC1ERKS0_
libicui18n.so.67:_ZN6icu_6712StringSearchD0Ev
libicui18n.so.67:_ZN6icu_6712StringSearchD1Ev
libicui18n.so.67:_ZN6icu_6712StringSearchaSERKS0_
libicui18n.so.67:_ZN6icu_6712TimeZoneRuleC1ERKNS_13UnicodeStringEii
libicui18n.so.67:_ZN6icu_6712TimeZoneRuleC1ERKS0_
libicui18n.so.67:_ZN6icu_6712TimeZoneRuleC2ERKNS_13UnicodeStringEii
libicui18n.so.67:_ZN6icu_6712TimeZoneRuleC2ERKS0_
libicui18n.so.67:_ZN6icu_6712TimeZoneRuleD0Ev
libicui18n.so.67:_ZN6icu_6712TimeZoneRuleD1Ev
libicui18n.so.67:_ZN6icu_6712TimeZoneRuleD2Ev
libicui18n.so.67:_ZN6icu_6712TimeZoneRuleaSERKS0_
libicui18n.so.67:_ZN6icu_6712ZNStringPool3getEPKDsR10UErrorCode
libicui18n.so.67:_ZN6icu_6712ZNStringPool3getERKNS_13UnicodeStringER10UErrorCode
libicui18n.so.67:_ZN6icu_6712ZNStringPool5adoptEPKDsR10UErrorCode
libicui18n.so.67:_ZN6icu_6712ZNStringPool6freezeEv
libicui18n.so.67:_ZN6icu_6712ZNStringPoolC1ER10UErrorCode
libicui18n.so.67:_ZN6icu_6712ZNStringPoolC2ER10UErrorCode
libicui18n.so.67:_ZN6icu_6712ZNStringPoolD1Ev
libicui18n.so.67:_ZN6icu_6712ZNStringPoolD2Ev
libicui18n.so.67:_ZN6icu_6713AndConstraint11isFulfilledERKNS_13IFixedDecimalE
libicui18n.so.67:_ZN6icu_6713AndConstraint3addER10UErrorCode
libicui18n.so.67:_ZN6icu_6713AndConstraintC1ERKS0_
libicui18n.so.67:_ZN6icu_6713AndConstraintC2ERKS0_
libicui18n.so.67:_ZN6icu_6713AndConstraintD0Ev
libicui18n.so.67:_ZN6icu_6713AndConstraintD1Ev
libicui18n.so.67:_ZN6icu_6713AndConstraintD2Ev
libicui18n.so.67:_ZN6icu_6713BasicTimeZoneC1ERKNS_13UnicodeStringE
libicui18n.so.67:_ZN6icu_6713BasicTimeZoneC1ERKS0_
libicui18n.so.67:_ZN6icu_6713BasicTimeZoneC1Ev
libicui18n.so.67:_ZN6icu_6713BasicTimeZoneC2ERKNS_13UnicodeStringE
libicui18n.so.67:_ZN6icu_6713BasicTimeZoneC2ERKS0_
libicui18n.so.67:_ZN6icu_6713BasicTimeZoneC2Ev
libicui18n.so.67:_ZN6icu_6713BasicTimeZoneD0Ev
libicui18n.so.67:_ZN6icu_6713BasicTimeZoneD1Ev
libicui18n.so.67:_ZN6icu_6713BasicTimeZoneD2Ev
libicui18n.so.67:_ZN6icu_6713CalendarCache11createCacheEPPS0_R10UErrorCode
libicui18n.so.67:_ZN6icu_6713CalendarCache3getEPPS0_iR10UErrorCode
libicui18n.so.67:_ZN6icu_6713CalendarCache3putEPPS0_iiR10UErrorCode
libicui18n.so.67:_ZN6icu_6713CalendarCacheC1EiR10UErrorCode
libicui18n.so.67:_ZN6icu_6713CalendarCacheC2EiR10UErrorCode
libicui18n.so.67:_ZN6icu_6713CalendarCacheD0Ev
libicui18n.so.67:_ZN6icu_6713CalendarCacheD1Ev
libicui18n.so.67:_ZN6icu_6713CalendarCacheD2Ev
libicui18n.so.67:_ZN6icu_6713CharacterNode12deleteValuesEPFvPvE
libicui18n.so.67:_ZN6icu_6713CharacterNode5clearEv
libicui18n.so.67:_ZN6icu_6713CharacterNode8addValueEPvPFvS1_ER10UErrorCode
libicui18n.so.67:_ZN6icu_6713CollationKeys13LevelCallback11needToWriteENS_9Collation5LevelE
libicui18n.so.67:_ZN6icu_6713CollationKeys13LevelCallbackD0Ev
libicui18n.so.67:_ZN6icu_6713CollationKeys13LevelCallbackD1Ev
libicui18n.so.67:_ZN6icu_6713CollationKeys13LevelCallbackD2Ev
libicui18n.so.67:_ZN6icu_6713CollationKeys26writeSortKeyUpToQuaternaryERNS_17CollationIteratorEPKaRKNS_17CollationSettingsERNS_15SortKeyByteSinkENS_9Collation5LevelERNS0_13LevelCallbackEaR10UErrorCode
libicui18n.so.67:_ZN6icu_6713CollationRoot11getSettingsER10UErrorCode
libicui18n.so.67:_ZN6icu_6713CollationRoot17getRootCacheEntryER10UErrorCode
libicui18n.so.67:_ZN6icu_6713CollationRoot4loadER10UErrorCode
libicui18n.so.67:_ZN6icu_6713CollationRoot7getDataER10UErrorCode
libicui18n.so.67:_ZN6icu_6713CollationRoot7getRootER10UErrorCode
libicui18n.so.67:_ZN6icu_6713DangiCalendar16getStaticClassIDEv
libicui18n.so.67:_ZN6icu_6713DangiCalendarC1ERKNS_6LocaleER10UErrorCode
libicui18n.so.67:_ZN6icu_6713DangiCalendarC1ERKS0_
libicui18n.so.67:_ZN6icu_6713DangiCalendarC2ERKNS_6LocaleER10UErrorCode
libicui18n.so.67:_ZN6icu_6713DangiCalendarC2ERKS0_
libicui18n.so.67:_ZN6icu_6713DangiCalendarD0Ev
libicui18n.so.67:_ZN6icu_6713DangiCalendarD1Ev
libicui18n.so.67:_ZN6icu_6713DangiCalendarD2Ev
libicui18n.so.67:_ZN6icu_6713DecimalFormat10setLenientEa
libicui18n.so.67:_ZN6icu_6713DecimalFormat11setCurrencyEPKDs
libicui18n.so.67:_ZN6icu_6713DecimalFormat11setCurrencyEPKDsR10UErrorCode
libicui18n.so.67:_ZN6icu_6713DecimalFormat12applyPatternERKNS_13UnicodeStringER10UErrorCode
libicui18n.so.67:_ZN6icu_6713DecimalFormat12applyPatternERKNS_13UnicodeStringER11UParseErrorR10UErrorCode
libicui18n.so.67:_ZN6icu_6713DecimalFormat12setAttributeE22UNumberFormatAttributeiR10UErrorCode
libicui18n.so.67:_ZN6icu_6713DecimalFormat12touchNoErrorEv
libicui18n.so.67:_ZN6icu_6713DecimalFormat13setMultiplierEi
libicui18n.so.67:_ZN6icu_6713DecimalFormat14setFormatWidthEi
libicui18n.so.67:_ZN6icu_6713DecimalFormat14setPadPositionENS0_12EPadPositionE
libicui18n.so.67:_ZN6icu_6713DecimalFormat15setGroupingSizeEi
libicui18n.so.67:_ZN6icu_6713DecimalFormat15setGroupingUsedEa
libicui18n.so.67:_ZN6icu_6713DecimalFormat15setPadCharacterERKNS_13UnicodeStringE
libicui18n.so.67:_ZN6icu_6713DecimalFormat15setRoundingModeENS_12NumberFormat13ERoundingModeE
libicui18n.so.67:_ZN6icu_6713DecimalFormat15setupFastFormatEv
libicui18n.so.67:_ZN6icu_6713DecimalFormat16getStaticClassIDEv
libicui18n.so.67:_ZN6icu_6713DecimalFormat16setCurrencyUsageE14UCurrencyUsageP10UErrorCode
libicui18n.so.67:_ZN6icu_6713DecimalFormat16setParseAllInputE27UNumberFormatAttributeValue
libicui18n.so.67:_ZN6icu_6713DecimalFormat17setNegativePrefixERKNS_13UnicodeStringE
libicui18n.so.67:_ZN6icu_6713DecimalFormat17setNegativeSuffixERKNS_13UnicodeStringE
libicui18n.so.67:_ZN6icu_6713DecimalFormat17setPositivePrefixERKNS_13UnicodeStringE
libicui18n.so.67:_ZN6icu_6713DecimalFormat17setPositiveSuffixERKNS_13UnicodeStringE
libicui18n.so.67:_ZN6icu_6713DecimalFormat18setMultiplierScaleEi
libicui18n.so.67:_ZN6icu_6713DecimalFormat18setParseNoExponentEa
libicui18n.so.67:_ZN6icu_6713DecimalFormat18setSignAlwaysShownEa
libicui18n.so.67:_ZN6icu_6713DecimalFormat19fieldPositionHelperERKNS_6number4impl20UFormattedNumberDataERNS_13FieldPositionEiR10UErrorCode
libicui18n.so.67:_ZN6icu_6713DecimalFormat19setParseIntegerOnlyEa
libicui18n.so.67:_ZN6icu_6713DecimalFormat20setRoundingIncrementEd
libicui18n.so.67:_ZN6icu_6713DecimalFormat21applyLocalizedPatternERKNS_13UnicodeStringER10UErrorCode
libicui18n.so.67:_ZN6icu_6713DecimalFormat21applyLocalizedPatternERKNS_13UnicodeStringER11UParseErrorR10UErrorCode
libicui18n.so.67:_ZN6icu_6713DecimalFormat21setCurrencyPluralInfoERKNS_18CurrencyPluralInfoE
libicui18n.so.67:_ZN6icu_6713DecimalFormat21setParseCaseSensitiveEa
libicui18n.so.67:_ZN6icu_6713DecimalFormat21setScientificNotationEa
libicui18n.so.67:_ZN6icu_6713DecimalFormat23adoptCurrencyPluralInfoEPNS_18CurrencyPluralInfoE
libicui18n.so.67:_ZN6icu_6713DecimalFormat23setDecimalFormatSymbolsERKNS_20DecimalFormatSymbolsE
libicui18n.so.67:_ZN6icu_6713DecimalFormat23setMaximumIntegerDigitsEi
libicui18n.so.67:_ZN6icu_6713DecimalFormat23setMinimumIntegerDigitsEi
libicui18n.so.67:_ZN6icu_6713DecimalFormat24setMaximumFractionDigitsEi
libicui18n.so.67:_ZN6icu_6713DecimalFormat24setMinimumExponentDigitsEa
libicui18n.so.67:_ZN6icu_6713DecimalFormat24setMinimumFractionDigitsEi
libicui18n.so.67:_ZN6icu_6713DecimalFormat24setMinimumGroupingDigitsEi
libicui18n.so.67:_ZN6icu_6713DecimalFormat24setPropertiesFromPatternERKNS_13UnicodeStringEiR10UErrorCode
libicui18n.so.67:_ZN6icu_6713DecimalFormat24setSecondaryGroupingSizeEi
libicui18n.so.67:_ZN6icu_6713DecimalFormat24setSignificantDigitsUsedEa
libicui18n.so.67:_ZN6icu_6713DecimalFormat25adoptDecimalFormatSymbolsEPNS_20DecimalFormatSymbolsE
libicui18n.so.67:_ZN6icu_6713DecimalFormat26setExponentSignAlwaysShownEa
libicui18n.so.67:_ZN6icu_6713DecimalFormat27fieldPositionIteratorHelperERKNS_6number4impl20UFormattedNumberDataEPNS_21FieldPositionIteratorEiR10UErrorCode
libicui18n.so.67:_ZN6icu_6713DecimalFormat27setMaximumSignificantDigitsEi
libicui18n.so.67:_ZN6icu_6713DecimalFormat27setMinimumSignificantDigitsEi
libicui18n.so.67:_ZN6icu_6713DecimalFormat30setDecimalPatternMatchRequiredEa
libicui18n.so.67:_ZN6icu_6713DecimalFormat30setDecimalSeparatorAlwaysShownEa
libicui18n.so.67:_ZN6icu_6713DecimalFormat32setFormatFailIfMoreThanMaxDigitsEa
libicui18n.so.67:_ZN6icu_6713DecimalFormat5touchER10UErrorCode
libicui18n.so.67:_ZN6icu_6713DecimalFormatC1EPKNS_20DecimalFormatSymbolsER10UErrorCode
libicui18n.so.67:_ZN6icu_6713DecimalFormatC1ER10UErrorCode
libicui18n.so.67:_ZN6icu_6713DecimalFormatC1ERKNS_13UnicodeStringEPNS_20DecimalFormatSymbolsE18UNumberFormatStyleR10UErrorCode
libicui18n.so.67:_ZN6icu_6713DecimalFormatC1ERKNS_13UnicodeStringEPNS_20DecimalFormatSymbolsER10UErrorCode
libicui18n.so.67:_ZN6icu_6713DecimalFormatC1ERKNS_13UnicodeStringEPNS_20DecimalFormatSymbolsER11UParseErrorR10UErrorCode
libicui18n.so.67:_ZN6icu_6713DecimalFormatC1ERKNS_13UnicodeStringER10UErrorCode
libicui18n.so.67:_ZN6icu_6713DecimalFormatC1ERKNS_13UnicodeStringERKNS_20DecimalFormatSymbolsER10UErrorCode
libicui18n.so.67:_ZN6icu_6713DecimalFormatC1ERKS0_
libicui18n.so.67:_ZN6icu_6713DecimalFormatC2EPKNS_20DecimalFormatSymbolsER10UErrorCode
libicui18n.so.67:_ZN6icu_6713DecimalFormatC2ER10UErrorCode
libicui18n.so.67:_ZN6icu_6713DecimalFormatC2ERKNS_13UnicodeStringEPNS_20DecimalFormatSymbolsE18UNumberFormatStyleR10UErrorCode
libicui18n.so.67:_ZN6icu_6713DecimalFormatC2ERKNS_13UnicodeStringEPNS_20DecimalFormatSymbolsER10UErrorCode
libicui18n.so.67:_ZN6icu_6713DecimalFormatC2ERKNS_13UnicodeStringEPNS_20DecimalFormatSymbolsER11UParseErrorR10UErrorCode
libicui18n.so.67:_ZN6icu_6713DecimalFormatC2ERKNS_13UnicodeStringER10UErrorCode
libicui18n.so.67:_ZN6icu_6713DecimalFormatC2ERKNS_13UnicodeStringERKNS_20DecimalFormatSymbolsER10UErrorCode
libicui18n.so.67:_ZN6icu_6713DecimalFormatC2ERKS0_
libicui18n.so.67:_ZN6icu_6713DecimalFormatD0Ev
libicui18n.so.67:_ZN6icu_6713DecimalFormatD1Ev
libicui18n.so.67:_ZN6icu_6713DecimalFormatD2Ev
libicui18n.so.67:_ZN6icu_6713DecimalFormataSERKS0_
libicui18n.so.67:_ZN6icu_6713FieldPosition16getStaticClassIDEv
libicui18n.so.67:_ZN6icu_6713FieldPositionD0Ev
libicui18n.so.67:_ZN6icu_6713FieldPositionD1Ev
libicui18n.so.67:_ZN6icu_6713FieldPositionD2Ev
libicui18n.so.67:_ZN6icu_6713FormattedListC1EOS0_
libicui18n.so.67:_ZN6icu_6713FormattedListC2EOS0_
libicui18n.so.67:_ZN6icu_6713FormattedListD0Ev
libicui18n.so.67:_ZN6icu_6713FormattedListD1Ev
libicui18n.so.67:_ZN6icu_6713FormattedListD2Ev
libicui18n.so.67:_ZN6icu_6713FormattedListaSEOS0_
libicui18n.so.67:_ZN6icu_6713IFixedDecimalD0Ev
libicui18n.so.67:_ZN6icu_6713IFixedDecimalD1Ev
libicui18n.so.67:_ZN6icu_6713IFixedDecimalD2Ev
libicui18n.so.67:_ZN6icu_6713ListFormatter14createInstanceER10UErrorCode
libicui18n.so.67:_ZN6icu_6713ListFormatter14createInstanceERKNS_6LocaleE18UListFormatterType19UListFormatterWidthR10UErrorCode
libicui18n.so.67:_ZN6icu_6713ListFormatter14createInstanceERKNS_6LocaleEPKcR10UErrorCode
libicui18n.so.67:_ZN6icu_6713ListFormatter14createInstanceERKNS_6LocaleER10UErrorCode
libicui18n.so.67:_ZN6icu_6713ListFormatter14initializeHashER10UErrorCode
libicui18n.so.67:_ZN6icu_6713ListFormatter16ListPatternsSinkD0Ev
libicui18n.so.67:_ZN6icu_6713ListFormatter16ListPatternsSinkD1Ev
libicui18n.so.67:_ZN6icu_6713ListFormatter16ListPatternsSinkD2Ev
libicui18n.so.67:_ZN6icu_6713ListFormatter21getListFormatInternalERKNS_6LocaleEPKcR10UErrorCode
libicui18n.so.67:_ZN6icu_6713ListFormatter22loadListFormatInternalERKNS_6LocaleEPKcR10UErrorCode
libicui18n.so.67:_ZN6icu_6713ListFormatterC1EPKNS_18ListFormatInternalE
libicui18n.so.67:_ZN6icu_6713ListFormatterC1ERKNS_14ListFormatDataER10UErrorCode
libicui18n.so.67:_ZN6icu_6713ListFormatterC1ERKS0_
libicui18n.so.67:_ZN6icu_6713ListFormatterC2EPKNS_18ListFormatInternalE
libicui18n.so.67:_ZN6icu_6713ListFormatterC2ERKNS_14ListFormatDataER10UErrorCode
libicui18n.so.67:_ZN6icu_6713ListFormatterC2ERKS0_
libicui18n.so.67:_ZN6icu_6713ListFormatterD0Ev
libicui18n.so.67:_ZN6icu_6713ListFormatterD1Ev
libicui18n.so.67:_ZN6icu_6713ListFormatterD2Ev
libicui18n.so.67:_ZN6icu_6713ListFormatteraSERKS0_
libicui18n.so.67:_ZN6icu_6713LocDataParser10nextStringEv
libicui18n.so.67:_ZN6icu_6713LocDataParser10parseErrorEPKc
libicui18n.so.67:_ZN6icu_6713LocDataParser5parseEPDsi
libicui18n.so.67:_ZN6icu_6713LocDataParser7doParseEv
libicui18n.so.67:_ZN6icu_6713LocDataParser9nextArrayERi
libicui18n.so.67:_ZN6icu_6713MeasureFormat16getStaticClassIDEv
libicui18n.so.67:_ZN6icu_6713MeasureFormat17adoptNumberFormatEPNS_12NumberFormatER10UErrorCode
libicui18n.so.67:_ZN6icu_6713MeasureFormat17initMeasureFormatERKNS_6LocaleE19UMeasureFormatWidthPNS_12NumberFormatER10UErrorCode
libicui18n.so.67:_ZN6icu_6713MeasureFormat20createCurrencyFormatER10UErrorCode
libicui18n.so.67:_ZN6icu_6713MeasureFormat20createCurrencyFormatERKNS_6LocaleER10UErrorCode
libicui18n.so.67:_ZN6icu_6713MeasureFormat22setMeasureFormatLocaleERKNS_6LocaleER10UErrorCode
libicui18n.so.67:_ZN6icu_6713MeasureFormatC1ERKNS_6LocaleE19UMeasureFormatWidthPNS_12NumberFormatER10UErrorCode
libicui18n.so.67:_ZN6icu_6713MeasureFormatC1ERKNS_6LocaleE19UMeasureFormatWidthR10UErrorCode
libicui18n.so.67:_ZN6icu_6713MeasureFormatC1ERKS0_
libicui18n.so.67:_ZN6icu_6713MeasureFormatC1Ev
libicui18n.so.67:_ZN6icu_6713MeasureFormatC2ERKNS_6LocaleE19UMeasureFormatWidthPNS_12NumberFormatER10UErrorCode
libicui18n.so.67:_ZN6icu_6713MeasureFormatC2ERKNS_6LocaleE19UMeasureFormatWidthR10UErrorCode
libicui18n.so.67:_ZN6icu_6713MeasureFormatC2ERKS0_
libicui18n.so.67:_ZN6icu_6713MeasureFormatC2Ev
libicui18n.so.67:_ZN6icu_6713MeasureFormatD0Ev
libicui18n.so.67:_ZN6icu_6713MeasureFormatD1Ev
libicui18n.so.67:_ZN6icu_6713MeasureFormatD2Ev
libicui18n.so.67:_ZN6icu_6713MeasureFormataSERKS0_
libicui18n.so.67:_ZN6icu_6713MessageFormat10getArgNameEi
libicui18n.so.67:_ZN6icu_6713MessageFormat10setFormatsEPPKNS_6FormatEi
libicui18n.so.67:_ZN6icu_6713MessageFormat11adoptFormatERKNS_13UnicodeStringEPNS_6FormatER10UErrorCode
libicui18n.so.67:_ZN6icu_6713MessageFormat11adoptFormatEiPNS_6FormatE
libicui18n.so.67:_ZN6icu_6713MessageFormat11copyObjectsERKS0_R10UErrorCode
libicui18n.so.67:_ZN6icu_6713MessageFormat11findKeywordERKNS_13UnicodeStringEPKPKDs
libicui18n.so.67:_ZN6icu_6713MessageFormat12adoptFormatsEPPNS_6FormatEi
libicui18n.so.67:_ZN6icu_6713MessageFormat12applyPatternERKNS_13UnicodeStringE29UMessagePatternApostropheModeP11UParseErrorR10UErrorCode
libicui18n.so.67:_ZN6icu_6713MessageFormat12applyPatternERKNS_13UnicodeStringER10UErrorCode
libicui18n.so.67:_ZN6icu_6713MessageFormat12applyPatternERKNS_13UnicodeStringER11UParseErrorR10UErrorCode
libicui18n.so.67:_ZN6icu_6713MessageFormat12equalFormatsEPKvS2_
libicui18n.so.67:_ZN6icu_6713MessageFormat12resetPatternEv
libicui18n.so.67:_ZN6icu_6713MessageFormat14argNameMatchesEiRKNS_13UnicodeStringEi
libicui18n.so.67:_ZN6icu_6713MessageFormat14getFormatNamesER10UErrorCode
libicui18n.so.67:_ZN6icu_6713MessageFormat16allocateArgTypesEiR10UErrorCode
libicui18n.so.67:_ZN6icu_6713MessageFormat16getStaticClassIDEv
libicui18n.so.67:_ZN6icu_6713MessageFormat17setArgStartFormatEiPNS_6FormatER10UErrorCode
libicui18n.so.67:_ZN6icu_6713MessageFormat19autoQuoteApostropheERKNS_13UnicodeStringER10UErrorCode
libicui18n.so.67:_ZN6icu_6713MessageFormat20cacheExplicitFormatsER10UErrorCode
libicui18n.so.67:_ZN6icu_6713MessageFormat22PluralSelectorProvider5resetEv
libicui18n.so.67:_ZN6icu_6713MessageFormat22PluralSelectorProviderC1ERKS0_11UPluralType
libicui18n.so.67:_ZN6icu_6713MessageFormat22PluralSelectorProviderC2ERKS0_11UPluralType
libicui18n.so.67:_ZN6icu_6713MessageFormat22PluralSelectorProviderD0Ev
libicui18n.so.67:_ZN6icu_6713MessageFormat22PluralSelectorProviderD1Ev
libicui18n.so.67:_ZN6icu_6713MessageFormat22PluralSelectorProviderD2Ev
libicui18n.so.67:_ZN6icu_6713MessageFormat23createAppropriateFormatERNS_13UnicodeStringES2_RNS_11Formattable4TypeER11UParseErrorR10UErrorCode
libicui18n.so.67:_ZN6icu_6713MessageFormat23setCustomArgStartFormatEiPNS_6FormatER10UErrorCode
libicui18n.so.67:_ZN6icu_6713MessageFormat6formatERKNS_13UnicodeStringEPKNS_11FormattableEiRS1_R10UErrorCode
libicui18n.so.67:_ZN6icu_6713MessageFormat9getFormatERKNS_13UnicodeStringER10UErrorCode
libicui18n.so.67:_ZN6icu_6713MessageFormat9setFormatERKNS_13UnicodeStringERKNS_6FormatER10UErrorCode
libicui18n.so.67:_ZN6icu_6713MessageFormat9setFormatEiRKNS_6FormatE
libicui18n.so.67:_ZN6icu_6713MessageFormat9setLocaleERKNS_6LocaleE
libicui18n.so.67:_ZN6icu_6713MessageFormatC1ERKNS_13UnicodeStringER10UErrorCode
libicui18n.so.67:_ZN6icu_6713MessageFormatC1ERKNS_13UnicodeStringERKNS_6LocaleER10UErrorCode
libicui18n.so.67:_ZN6icu_6713MessageFormatC1ERKNS_13UnicodeStringERKNS_6LocaleER11UParseErrorR10UErrorCode
libicui18n.so.67:_ZN6icu_6713MessageFormatC1ERKS0_
libicui18n.so.67:_ZN6icu_6713MessageFormatC2ERKNS_13UnicodeStringER10UErrorCode
libicui18n.so.67:_ZN6icu_6713MessageFormatC2ERKNS_13UnicodeStringERKNS_6LocaleER10UErrorCode
libicui18n.so.67:_ZN6icu_6713MessageFormatC2ERKNS_13UnicodeStringERKNS_6LocaleER11UParseErrorR10UErrorCode
libicui18n.so.67:_ZN6icu_6713MessageFormatC2ERKS0_
libicui18n.so.67:_ZN6icu_6713MessageFormatD0Ev
libicui18n.so.67:_ZN6icu_6713MessageFormatD1Ev
libicui18n.so.67:_ZN6icu_6713MessageFormatD2Ev
libicui18n.so.67:_ZN6icu_6713MessageFormataSERKS0_
libicui18n.so.67:_ZN6icu_6713OlsonTimeZone12setRawOffsetEi
libicui18n.so.67:_ZN6icu_6713OlsonTimeZone14constructEmptyEv
libicui18n.so.67:_ZN6icu_6713OlsonTimeZone16getStaticClassIDEv
libicui18n.so.67:_ZN6icu_6713OlsonTimeZone19initTransitionRulesER10UErrorCode
libicui18n.so.67:_ZN6icu_6713OlsonTimeZone20clearTransitionRulesEv
libicui18n.so.67:_ZN6icu_6713OlsonTimeZone21deleteTransitionRulesEv
libicui18n.so.67:_ZN6icu_6713OlsonTimeZoneC1EPK15UResourceBundleS3_RKNS_13UnicodeStringER10UErrorCode
libicui18n.so.67:_ZN6icu_6713OlsonTimeZoneC1ERKS0_
libicui18n.so.67:_ZN6icu_6713OlsonTimeZoneC2EPK15UResourceBundleS3_RKNS_13UnicodeStringER10UErrorCode
libicui18n.so.67:_ZN6icu_6713OlsonTimeZoneC2ERKS0_
libicui18n.so.67:_ZN6icu_6713OlsonTimeZoneD0Ev
libicui18n.so.67:_ZN6icu_6713OlsonTimeZoneD1Ev
libicui18n.so.67:_ZN6icu_6713OlsonTimeZoneD2Ev
libicui18n.so.67:_ZN6icu_6713OlsonTimeZoneaSERKS0_
libicui18n.so.67:_ZN6icu_6713SPUStringPool10getByIndexEi
libicui18n.so.67:_ZN6icu_6713SPUStringPool4sizeEv
libicui18n.so.67:_ZN6icu_6713SPUStringPool4sortER10UErrorCode
libicui18n.so.67:_ZN6icu_6713SPUStringPool9addStringEPNS_13UnicodeStringER10UErrorCode
libicui18n.so.67:_ZN6icu_6713SPUStringPoolC1ER10UErrorCode
libicui18n.so.67:_ZN6icu_6713SPUStringPoolC2ER10UErrorCode
libicui18n.so.67:_ZN6icu_6713SPUStringPoolD1Ev
libicui18n.so.67:_ZN6icu_6713SPUStringPoolD2Ev
libicui18n.so.67:_ZN6icu_6713StringMatcher10resetMatchEv
libicui18n.so.67:_ZN6icu_6713StringMatcher16getStaticClassIDEv
libicui18n.so.67:_ZN6icu_6713StringMatcher7matchesERKNS_11ReplaceableERiia
libicui18n.so.67:_ZN6icu_6713StringMatcher7replaceERNS_11ReplaceableEiiRi
libicui18n.so.67:_ZN6icu_6713StringMatcher7setDataEPKNS_23TransliterationRuleDataE
libicui18n.so.67:_ZN6icu_6713StringMatcherC1ERKNS_13UnicodeStringEiiiRKNS_23TransliterationRuleDataE
libicui18n.so.67:_ZN6icu_6713StringMatcherC1ERKS0_
libicui18n.so.67:_ZN6icu_6713StringMatcherC2ERKNS_13UnicodeStringEiiiRKNS_23TransliterationRuleDataE
libicui18n.so.67:_ZN6icu_6713StringMatcherC2ERKS0_
libicui18n.so.67:_ZN6icu_6713StringMatcherD0Ev
libicui18n.so.67:_ZN6icu_6713StringMatcherD1Ev
libicui18n.so.67:_ZN6icu_6713StringMatcherD2Ev
libicui18n.so.67:_ZN6icu_6713StringSegment11resetLengthEv
libicui18n.so.67:_ZN6icu_6713StringSegment12adjustOffsetEi
libicui18n.so.67:_ZN6icu_6713StringSegment15codePointsEqualEiib
libicui18n.so.67:_ZN6icu_6713StringSegment21getCommonPrefixLengthERKNS_13UnicodeStringE
libicui18n.so.67:_ZN6icu_6713StringSegment23adjustOffsetByCodePointEv
libicui18n.so.67:_ZN6icu_6713StringSegment23getPrefixLengthInternalERKNS_13UnicodeStringEb
libicui18n.so.67:_ZN6icu_6713StringSegment28getCaseSensitivePrefixLengthERKNS_13UnicodeStringE
libicui18n.so.67:_ZN6icu_6713StringSegment9setLengthEi
libicui18n.so.67:_ZN6icu_6713StringSegment9setOffsetEi
libicui18n.so.67:_ZN6icu_6713StringSegmentC1ERKNS_13UnicodeStringEb
libicui18n.so.67:_ZN6icu_6713StringSegmentC2ERKNS_13UnicodeStringEb
libicui18n.so.67:_ZN6icu_6713TZEnumeration16getStaticClassIDEv
libicui18n.so.67:_ZN6icu_6713TZEnumerationD0Ev
libicui18n.so.67:_ZN6icu_6713TZEnumerationD1Ev
libicui18n.so.67:_ZN6icu_6713TZEnumerationD2Ev
libicui18n.so.67:_ZN6icu_6713TimeZoneNames14createInstanceERKNS_6LocaleER10UErrorCode
libicui18n.so.67:_ZN6icu_6713TimeZoneNames18createTZDBInstanceERKNS_6LocaleER10UErrorCode
libicui18n.so.67:_ZN6icu_6713TimeZoneNames19MatchInfoCollection11addMetaZoneE17UTimeZoneNameTypeiRKNS_13UnicodeStringER10UErrorCode
libicui18n.so.67:_ZN6icu_6713TimeZoneNames19MatchInfoCollection7addZoneE17UTimeZoneNameTypeiRKNS_13UnicodeStringER10UErrorCode
libicui18n.so.67:_ZN6icu_6713TimeZoneNames19MatchInfoCollection7matchesER10UErrorCode
libicui18n.so.67:_ZN6icu_6713TimeZoneNames19MatchInfoCollectionC1Ev
libicui18n.so.67:_ZN6icu_6713TimeZoneNames19MatchInfoCollectionC2Ev
libicui18n.so.67:_ZN6icu_6713TimeZoneNames19MatchInfoCollectionD0Ev
libicui18n.so.67:_ZN6icu_6713TimeZoneNames19MatchInfoCollectionD1Ev
libicui18n.so.67:_ZN6icu_6713TimeZoneNames19MatchInfoCollectionD2Ev
libicui18n.so.67:_ZN6icu_6713TimeZoneNames19loadAllDisplayNamesER10UErrorCode
libicui18n.so.67:_ZN6icu_6713TimeZoneNamesD0Ev
libicui18n.so.67:_ZN6icu_6713TimeZoneNamesD1Ev
libicui18n.so.67:_ZN6icu_6713TimeZoneNamesD2Ev
libicui18n.so.67:_ZN6icu_6713UCollationPCE13nextProcessedEPiS1_P10UErrorCode
libicui18n.so.67:_ZN6icu_6713UCollationPCE17previousProcessedEPiS1_P10UErrorCode
libicui18n.so.67:_ZN6icu_6713UCollationPCE4initEP18UCollationElements
libicui18n.so.67:_ZN6icu_6713UCollationPCE4initEPNS_24CollationElementIteratorE
libicui18n.so.67:_ZN6icu_6713UCollationPCE4initERKNS_8CollatorE
libicui18n.so.67:_ZN6icu_6713UCollationPCE9processCEEj
libicui18n.so.67:_ZN6icu_6713UCollationPCEC1EP18UCollationElements
libicui18n.so.67:_ZN6icu_6713UCollationPCEC1EPNS_24CollationElementIteratorE
libicui18n.so.67:_ZN6icu_6713UCollationPCEC2EP18UCollationElements
libicui18n.so.67:_ZN6icu_6713UCollationPCEC2EPNS_24CollationElementIteratorE
libicui18n.so.67:_ZN6icu_6713UCollationPCED1Ev
libicui18n.so.67:_ZN6icu_6713UCollationPCED2Ev
libicui18n.so.67:_ZN6icu_6714CopticCalendar16getStaticClassIDEv
libicui18n.so.67:_ZN6icu_6714CopticCalendar19handleComputeFieldsEiR10UErrorCode
libicui18n.so.67:_ZN6icu_6714CopticCalendar21handleGetExtendedYearEv
libicui18n.so.67:_ZN6icu_6714CopticCalendarC1ERKNS_6LocaleER10UErrorCode
libicui18n.so.67:_ZN6icu_6714CopticCalendarC1ERKS0_
libicui18n.so.67:_ZN6icu_6714CopticCalendarC2ERKNS_6LocaleER10UErrorCode
libicui18n.so.67:_ZN6icu_6714CopticCalendarC2ERKS0_
libicui18n.so.67:_ZN6icu_6714CopticCalendarD0Ev
libicui18n.so.67:_ZN6icu_6714CopticCalendarD1Ev
libicui18n.so.67:_ZN6icu_6714CopticCalendarD2Ev
libicui18n.so.67:_ZN6icu_6714CurrencyAmount16getStaticClassIDEv
libicui18n.so.67:_ZN6icu_6714CurrencyAmountC1ERKNS_11FormattableENS_14ConstChar16PtrER10UErrorCode
libicui18n.so.67:_ZN6icu_6714CurrencyAmountC1ERKS0_
libicui18n.so.67:_ZN6icu_6714CurrencyAmountC1EdNS_14ConstChar16PtrER10UErrorCode
libicui18n.so.67:_ZN6icu_6714CurrencyAmountC2ERKNS_11FormattableENS_14ConstChar16PtrER10UErrorCode
libicui18n.so.67:_ZN6icu_6714CurrencyAmountC2ERKS0_
libicui18n.so.67:_ZN6icu_6714CurrencyAmountC2EdNS_14ConstChar16PtrER10UErrorCode
libicui18n.so.67:_ZN6icu_6714CurrencyAmountD0Ev
libicui18n.so.67:_ZN6icu_6714CurrencyAmountD1Ev
libicui18n.so.67:_ZN6icu_6714CurrencyAmountD2Ev
libicui18n.so.67:_ZN6icu_6714CurrencyAmountaSERKS0_
libicui18n.so.67:_ZN6icu_6714CurrencyFormat16getStaticClassIDEv
libicui18n.so.67:_ZN6icu_6714CurrencyFormatC1ERKNS_6LocaleER10UErrorCode
libicui18n.so.67:_ZN6icu_6714CurrencyFormatC1ERKS0_
libicui18n.so.67:_ZN6icu_6714CurrencyFormatC2ERKNS_6LocaleER10UErrorCode
libicui18n.so.67:_ZN6icu_6714CurrencyFormatC2ERKS0_
libicui18n.so.67:_ZN6icu_6714CurrencyFormatD0Ev
libicui18n.so.67:_ZN6icu_6714CurrencyFormatD1Ev
libicui18n.so.67:_ZN6icu_6714CurrencyFormatD2Ev
libicui18n.so.67:_ZN6icu_6714DayPeriodRules11getInstanceERKNS_6LocaleER10UErrorCode
libicui18n.so.67:_ZN6icu_6714DayPeriodRules14allHoursAreSetEv
libicui18n.so.67:_ZN6icu_6714DayPeriodRules22getDayPeriodFromStringEPKc
libicui18n.so.67:_ZN6icu_6714DayPeriodRules3addEiiNS0_9DayPeriodE
libicui18n.so.67:_ZN6icu_6714DayPeriodRules4loadER10UErrorCode
libicui18n.so.67:_ZN6icu_6714DayPeriodRulesC1Ev
libicui18n.so.67:_ZN6icu_6714DayPeriodRulesC2Ev
libicui18n.so.67:_ZN6icu_6714FormattedValueD0Ev
libicui18n.so.67:_ZN6icu_6714FormattedValueD1Ev
libicui18n.so.67:_ZN6icu_6714FormattedValueD2Ev
libicui18n.so.67:_ZN6icu_6714GMTOffsetField10createTextERKNS_13UnicodeStringER10UErrorCode
libicui18n.so.67:_ZN6icu_6714GMTOffsetField15createTimeFieldENS0_9FieldTypeEhR10UErrorCode
libicui18n.so.67:_ZN6icu_6714GMTOffsetField15getTypeByLetterEDs
libicui18n.so.67:_ZN6icu_6714GMTOffsetField7isValidENS0_9FieldTypeEi
libicui18n.so.67:_ZN6icu_6714GMTOffsetFieldC1Ev
libicui18n.so.67:_ZN6icu_6714GMTOffsetFieldC2Ev
libicui18n.so.67:_ZN6icu_6714GMTOffsetFieldD0Ev
libicui18n.so.67:_ZN6icu_6714GMTOffsetFieldD1Ev
libicui18n.so.67:_ZN6icu_6714GMTOffsetFieldD2Ev
libicui18n.so.67:_ZN6icu_6714HebrewCalendar10isLeapYearEi
libicui18n.so.67:_ZN6icu_6714HebrewCalendar11startOfYearEiR10UErrorCode
libicui18n.so.67:_ZN6icu_6714HebrewCalendar12monthsInYearEi
libicui18n.so.67:_ZN6icu_6714HebrewCalendar13validateFieldE19UCalendarDateFieldsR10UErrorCode
libicui18n.so.67:_ZN6icu_6714HebrewCalendar16getStaticClassIDEv
libicui18n.so.67:_ZN6icu_6714HebrewCalendar19handleComputeFieldsEiR10UErrorCode
libicui18n.so.67:_ZN6icu_6714HebrewCalendar21handleGetExtendedYearEv
libicui18n.so.67:_ZN6icu_6714HebrewCalendar22absoluteDayToDayOfWeekEi
libicui18n.so.67:_ZN6icu_6714HebrewCalendar3addE19UCalendarDateFieldsiR10UErrorCode
libicui18n.so.67:_ZN6icu_6714HebrewCalendar3addENS_8Calendar11EDateFieldsEiR10UErrorCode
libicui18n.so.67:_ZN6icu_6714HebrewCalendar4rollE19UCalendarDateFieldsiR10UErrorCode
libicui18n.so.67:_ZN6icu_6714HebrewCalendar4rollENS_8Calendar11EDateFieldsEiR10UErrorCode
libicui18n.so.67:_ZN6icu_6714HebrewCalendarC1ERKNS_6LocaleER10UErrorCode
libicui18n.so.67:_ZN6icu_6714HebrewCalendarC1ERKS0_
libicui18n.so.67:_ZN6icu_6714HebrewCalendarC2ERKNS_6LocaleER10UErrorCode
libicui18n.so.67:_ZN6icu_6714HebrewCalendarC2ERKS0_
libicui18n.so.67:_ZN6icu_6714HebrewCalendarD0Ev
libicui18n.so.67:_ZN6icu_6714HebrewCalendarD1Ev
libicui18n.so.67:_ZN6icu_6714HebrewCalendarD2Ev
libicui18n.so.67:_ZN6icu_6714IndianCalendar16getStaticClassIDEv
libicui18n.so.67:_ZN6icu_6714IndianCalendar19handleComputeFieldsEiR10UErrorCode
libicui18n.so.67:_ZN6icu_6714IndianCalendar21handleGetExtendedYearEv
libicui18n.so.67:_ZN6icu_6714IndianCalendarC1ERKNS_6LocaleER10UErrorCode
libicui18n.so.67:_ZN6icu_6714IndianCalendarC1ERKS0_
libicui18n.so.67:_ZN6icu_6714IndianCalendarC2ERKNS_6LocaleER10UErrorCode
libicui18n.so.67:_ZN6icu_6714IndianCalendarC2ERKS0_
libicui18n.so.67:_ZN6icu_6714IndianCalendarD0Ev
libicui18n.so.67:_ZN6icu_6714IndianCalendarD1Ev
libicui18n.so.67:_ZN6icu_6714IndianCalendarD2Ev
libicui18n.so.67:_ZN6icu_6714NFSubstitution10setDivisorEisR10UErrorCode
libicui18n.so.67:_ZN6icu_6714NFSubstitution16getStaticClassIDEv
libicui18n.so.67:_ZN6icu_6714NFSubstitution16makeSubstitutionEiPKNS_6NFRuleES3_PKNS_9NFRuleSetEPKNS_21RuleBasedNumberFormatERKNS_13UnicodeStringER10UErrorCode
libicui18n.so.67:_ZN6icu_6714NFSubstitution23setDecimalFormatSymbolsERKNS_20DecimalFormatSymbolsER10UErrorCode
libicui18n.so.67:_ZN6icu_6714NFSubstitutionC1EiPKNS_9NFRuleSetERKNS_13UnicodeStringER10UErrorCode
libicui18n.so.67:_ZN6icu_6714NFSubstitutionC2EiPKNS_9NFRuleSetERKNS_13UnicodeStringER10UErrorCode
libicui18n.so.67:_ZN6icu_6714NFSubstitutionD0Ev
libicui18n.so.67:_ZN6icu_6714NFSubstitutionD1Ev
libicui18n.so.67:_ZN6icu_6714NFSubstitutionD2Ev
libicui18n.so.67:_ZN6icu_6714SearchIterator12setAttributeE16USearchAttribute21USearchAttributeValueR10UErrorCode
libicui18n.so.67:_ZN6icu_6714SearchIterator13setMatchStartEi
libicui18n.so.67:_ZN6icu_6714SearchIterator14setMatchLengthEi
libicui18n.so.67:_ZN6icu_6714SearchIterator16setBreakIteratorEPNS_13BreakIteratorER10UErrorCode
libicui18n.so.67:_ZN6icu_6714SearchIterator16setMatchNotFoundEv
libicui18n.so.67:_ZN6icu_6714SearchIterator4lastER10UErrorCode
libicui18n.so.67:_ZN6icu_6714SearchIterator4nextER10UErrorCode
libicui18n.so.67:_ZN6icu_6714SearchIterator5firstER10UErrorCode
libicui18n.so.67:_ZN6icu_6714SearchIterator5resetEv
libicui18n.so.67:_ZN6icu_6714SearchIterator7setTextERKNS_13UnicodeStringER10UErrorCode
libicui18n.so.67:_ZN6icu_6714SearchIterator7setTextERNS_17CharacterIteratorER10UErrorCode
libicui18n.so.67:_ZN6icu_6714SearchIterator8previousER10UErrorCode
libicui18n.so.67:_ZN6icu_6714SearchIterator9followingEiR10UErrorCode
libicui18n.so.67:_ZN6icu_6714SearchIterator9precedingEiR10UErrorCode
libicui18n.so.67:_ZN6icu_6714SearchIteratorC1ERKNS_13UnicodeStringEPNS_13BreakIteratorE
libicui18n.so.67:_ZN6icu_6714SearchIteratorC1ERKS0_
libicui18n.so.67:_ZN6icu_6714SearchIteratorC1ERNS_17CharacterIteratorEPNS_13BreakIteratorE
libicui18n.so.67:_ZN6icu_6714SearchIteratorC1Ev
libicui18n.so.67:_ZN6icu_6714SearchIteratorC2ERKNS_13UnicodeStringEPNS_13BreakIteratorE
libicui18n.so.67:_ZN6icu_6714SearchIteratorC2ERKS0_
libicui18n.so.67:_ZN6icu_6714SearchIteratorC2ERNS_17CharacterIteratorEPNS_13BreakIteratorE
libicui18n.so.67:_ZN6icu_6714SearchIteratorC2Ev
libicui18n.so.67:_ZN6icu_6714SearchIteratorD0Ev
libicui18n.so.67:_ZN6icu_6714SearchIteratorD1Ev
libicui18n.so.67:_ZN6icu_6714SearchIteratorD2Ev
libicui18n.so.67:_ZN6icu_6714SearchIteratoraSERKS0_
libicui18n.so.67:_ZN6icu_6714SharedCalendarD0Ev
libicui18n.so.67:_ZN6icu_6714SharedCalendarD1Ev
libicui18n.so.67:_ZN6icu_6714SharedCalendarD2Ev
libicui18n.so.67:_ZN6icu_6714SimpleTimeZone10setEndRuleEiiiNS0_8TimeModeER10UErrorCode
libicui18n.so.67:_ZN6icu_6714SimpleTimeZone10setEndRuleEiiiiNS0_8TimeModeER10UErrorCode
libicui18n.so.67:_ZN6icu_6714SimpleTimeZone10setEndRuleEiiiiNS0_8TimeModeEaR10UErrorCode
libicui18n.so.67:_ZN6icu_6714SimpleTimeZone11decodeRulesER10UErrorCode
libicui18n.so.67:_ZN6icu_6714SimpleTimeZone12setRawOffsetEi
libicui18n.so.67:_ZN6icu_6714SimpleTimeZone12setStartRuleEiiiNS0_8TimeModeER10UErrorCode
libicui18n.so.67:_ZN6icu_6714SimpleTimeZone12setStartRuleEiiiiNS0_8TimeModeER10UErrorCode
libicui18n.so.67:_ZN6icu_6714SimpleTimeZone12setStartRuleEiiiiNS0_8TimeModeEaR10UErrorCode
libicui18n.so.67:_ZN6icu_6714SimpleTimeZone12setStartYearEi
libicui18n.so.67:_ZN6icu_6714SimpleTimeZone13compareToRuleEaaaaaiiNS0_5EModeEaaai
libicui18n.so.67:_ZN6icu_6714SimpleTimeZone13decodeEndRuleER10UErrorCode
libicui18n.so.67:_ZN6icu_6714SimpleTimeZone13setDSTSavingsEiR10UErrorCode
libicui18n.so.67:_ZN6icu_6714SimpleTimeZone15decodeStartRuleER10UErrorCode
libicui18n.so.67:_ZN6icu_6714SimpleTimeZone16getStaticClassIDEv
libicui18n.so.67:_ZN6icu_6714SimpleTimeZone19initTransitionRulesER10UErrorCode
libicui18n.so.67:_ZN6icu_6714SimpleTimeZone20clearTransitionRulesEv
libicui18n.so.67:_ZN6icu_6714SimpleTimeZone21deleteTransitionRulesEv
libicui18n.so.67:_ZN6icu_6714SimpleTimeZone9constructEiaaaiNS0_8TimeModeEaaaiS1_iR10UErrorCode
libicui18n.so.67:_ZN6icu_6714SimpleTimeZoneC1ERKS0_
libicui18n.so.67:_ZN6icu_6714SimpleTimeZoneC1EiRKNS_13UnicodeStringE
libicui18n.so.67:_ZN6icu_6714SimpleTimeZoneC1EiRKNS_13UnicodeStringEaaaiNS0_8TimeModeEaaaiS4_iR10UErrorCode
libicui18n.so.67:_ZN6icu_6714SimpleTimeZoneC1EiRKNS_13UnicodeStringEaaaiaaaiR10UErrorCode
libicui18n.so.67:_ZN6icu_6714SimpleTimeZoneC1EiRKNS_13UnicodeStringEaaaiaaaiiR10UErrorCode
libicui18n.so.67:_ZN6icu_6714SimpleTimeZoneC2ERKS0_
libicui18n.so.67:_ZN6icu_6714SimpleTimeZoneC2EiRKNS_13UnicodeStringE
libicui18n.so.67:_ZN6icu_6714SimpleTimeZoneC2EiRKNS_13UnicodeStringEaaaiNS0_8TimeModeEaaaiS4_iR10UErrorCode
libicui18n.so.67:_ZN6icu_6714SimpleTimeZoneC2EiRKNS_13UnicodeStringEaaaiaaaiR10UErrorCode
libicui18n.so.67:_ZN6icu_6714SimpleTimeZoneC2EiRKNS_13UnicodeStringEaaaiaaaiiR10UErrorCode
libicui18n.so.67:_ZN6icu_6714SimpleTimeZoneD0Ev
libicui18n.so.67:_ZN6icu_6714SimpleTimeZoneD1Ev
libicui18n.so.67:_ZN6icu_6714SimpleTimeZoneD2Ev
libicui18n.so.67:_ZN6icu_6714SimpleTimeZoneaSERKS0_
libicui18n.so.67:_ZN6icu_6714SingleUnitImpl14forMeasureUnitERKNS_11MeasureUnitER10UErrorCode
libicui18n.so.67:_ZN6icu_6714SkeletonFields10clearFieldEi
libicui18n.so.67:_ZN6icu_6714SkeletonFields5clearEv
libicui18n.so.67:_ZN6icu_6714SkeletonFields8copyFromERKS0_
libicui18n.so.67:_ZN6icu_6714SkeletonFields8populateEiDsi
libicui18n.so.67:_ZN6icu_6714SkeletonFields8populateEiRKNS_13UnicodeStringE
libicui18n.so.67:_ZN6icu_6714SkeletonFieldsC1Ev
libicui18n.so.67:_ZN6icu_6714SkeletonFieldsC2Ev
libicui18n.so.67:_ZN6icu_6714StandardPlural10getKeywordENS0_4FormE
libicui18n.so.67:_ZN6icu_6714StandardPlural15indexFromStringEPKcR10UErrorCode
libicui18n.so.67:_ZN6icu_6714StandardPlural15indexFromStringERKNS_13UnicodeStringER10UErrorCode
libicui18n.so.67:_ZN6icu_6714StandardPlural25indexOrNegativeFromStringEPKc
libicui18n.so.67:_ZN6icu_6714StandardPlural25indexOrNegativeFromStringERKNS_13UnicodeStringE
libicui18n.so.67:_ZN6icu_6714StringReplacer16getStaticClassIDEv
libicui18n.so.67:_ZN6icu_6714StringReplacer7replaceERNS_11ReplaceableEiiRi
libicui18n.so.67:_ZN6icu_6714StringReplacer7setDataEPKNS_23TransliterationRuleDataE
libicui18n.so.67:_ZN6icu_6714StringReplacerC1ERKNS_13UnicodeStringEPKNS_23TransliterationRuleDataE
libicui18n.so.67:_ZN6icu_6714StringReplacerC1ERKNS_13UnicodeStringEiPKNS_23TransliterationRuleDataE
libicui18n.so.67:_ZN6icu_6714StringReplacerC1ERKS0_
libicui18n.so.67:_ZN6icu_6714StringReplacerC2ERKNS_13UnicodeStringEPKNS_23TransliterationRuleDataE
libicui18n.so.67:_ZN6icu_6714StringReplacerC2ERKNS_13UnicodeStringEiPKNS_23TransliterationRuleDataE
libicui18n.so.67:_ZN6icu_6714StringReplacerC2ERKS0_
libicui18n.so.67:_ZN6icu_6714StringReplacerD0Ev
libicui18n.so.67:_ZN6icu_6714StringReplacerD1Ev
libicui18n.so.67:_ZN6icu_6714StringReplacerD2Ev
libicui18n.so.67:_ZN6icu_6714TaiwanCalendar16getStaticClassIDEv
libicui18n.so.67:_ZN6icu_6714TaiwanCalendar19handleComputeFieldsEiR10UErrorCode
libicui18n.so.67:_ZN6icu_6714TaiwanCalendar21handleGetExtendedYearEv
libicui18n.so.67:_ZN6icu_6714TaiwanCalendarC1ERKNS_6LocaleER10UErrorCode
libicui18n.so.67:_ZN6icu_6714TaiwanCalendarC1ERKS0_
libicui18n.so.67:_ZN6icu_6714TaiwanCalendarC2ERKNS_6LocaleER10UErrorCode
libicui18n.so.67:_ZN6icu_6714TaiwanCalendarC2ERKS0_
libicui18n.so.67:_ZN6icu_6714TaiwanCalendarD0Ev
libicui18n.so.67:_ZN6icu_6714TaiwanCalendarD1Ev
libicui18n.so.67:_ZN6icu_6714TaiwanCalendarD2Ev
libicui18n.so.67:_ZN6icu_6714TaiwanCalendaraSERKS0_
libicui18n.so.67:_ZN6icu_6714TimeUnitAmount16getStaticClassIDEv
libicui18n.so.67:_ZN6icu_6714TimeUnitAmountC1ERKNS_11FormattableENS_8TimeUnit15UTimeUnitFieldsER10UErrorCode
libicui18n.so.67:_ZN6icu_6714TimeUnitAmountC1ERKS0_
libicui18n.so.67:_ZN6icu_6714TimeUnitAmountC1EdNS_8TimeUnit15UTimeUnitFieldsER10UErrorCode
libicui18n.so.67:_ZN6icu_6714TimeUnitAmountC2ERKNS_11FormattableENS_8TimeUnit15UTimeUnitFieldsER10UErrorCode
libicui18n.so.67:_ZN6icu_6714TimeUnitAmountC2ERKS0_
libicui18n.so.67:_ZN6icu_6714TimeUnitAmountC2EdNS_8TimeUnit15UTimeUnitFieldsER10UErrorCode
libicui18n.so.67:_ZN6icu_6714TimeUnitAmountD0Ev
libicui18n.so.67:_ZN6icu_6714TimeUnitAmountD1Ev
libicui18n.so.67:_ZN6icu_6714TimeUnitAmountD2Ev
libicui18n.so.67:_ZN6icu_6714TimeUnitAmountaSERKS0_
libicui18n.so.67:_ZN6icu_6714TimeUnitFormat10deleteHashEPNS_9HashtableE
libicui18n.so.67:_ZN6icu_6714TimeUnitFormat15getTimeUnitNameENS_8TimeUnit15UTimeUnitFieldsER10UErrorCode
libicui18n.so.67:_ZN6icu_6714TimeUnitFormat15initDataMembersER10UErrorCode
libicui18n.so.67:_ZN6icu_6714TimeUnitFormat15setNumberFormatERKNS_12NumberFormatER10UErrorCode
libicui18n.so.67:_ZN6icu_6714TimeUnitFormat16checkConsistencyE20UTimeUnitFormatStylePKcR10UErrorCode
libicui18n.so.67:_ZN6icu_6714TimeUnitFormat16getStaticClassIDEv
libicui18n.so.67:_ZN6icu_6714TimeUnitFormat19searchInLocaleChainE20UTimeUnitFormatStylePKcS3_NS_8TimeUnit15UTimeUnitFieldsERKNS_13UnicodeStringES3_PNS_9HashtableER10UErrorCode
libicui18n.so.67:_ZN6icu_6714TimeUnitFormat21readFromCurrentLocaleE20UTimeUnitFormatStylePKcRKNS_7UVectorER10UErrorCode
libicui18n.so.67:_ZN6icu_6714TimeUnitFormat5setupER10UErrorCode
libicui18n.so.67:_ZN6icu_6714TimeUnitFormat6createE20UTimeUnitFormatStyleR10UErrorCode
libicui18n.so.67:_ZN6icu_6714TimeUnitFormat8copyHashEPKNS_9HashtableEPS1_R10UErrorCode
libicui18n.so.67:_ZN6icu_6714TimeUnitFormat8initHashER10UErrorCode
libicui18n.so.67:_ZN6icu_6714TimeUnitFormat9setLocaleERKNS_6LocaleER10UErrorCode
libicui18n.so.67:_ZN6icu_6714TimeUnitFormatC1ER10UErrorCode
libicui18n.so.67:_ZN6icu_6714TimeUnitFormatC1ERKNS_6LocaleE20UTimeUnitFormatStyleR10UErrorCode
libicui18n.so.67:_ZN6icu_6714TimeUnitFormatC1ERKNS_6LocaleER10UErrorCode
libicui18n.so.67:_ZN6icu_6714TimeUnitFormatC1ERKS0_
libicui18n.so.67:_ZN6icu_6714TimeUnitFormatC2ER10UErrorCode
libicui18n.so.67:_ZN6icu_6714TimeUnitFormatC2ERKNS_6LocaleE20UTimeUnitFormatStyleR10UErrorCode
libicui18n.so.67:_ZN6icu_6714TimeUnitFormatC2ERKNS_6LocaleER10UErrorCode
libicui18n.so.67:_ZN6icu_6714TimeUnitFormatC2ERKS0_
libicui18n.so.67:_ZN6icu_6714TimeUnitFormatD0Ev
libicui18n.so.67:_ZN6icu_6714TimeUnitFormatD1Ev
libicui18n.so.67:_ZN6icu_6714TimeUnitFormatD2Ev
libicui18n.so.67:_ZN6icu_6714TimeUnitFormataSERKS0_
libicui18n.so.67:_ZN6icu_6714TimeZoneFormat11getTimeTypeE17UTimeZoneNameType
libicui18n.so.67:_ZN6icu_6714TimeZoneFormat12toCodePointsERKNS_13UnicodeStringEPii
libicui18n.so.67:_ZN6icu_6714TimeZoneFormat13setGMTPatternERKNS_13UnicodeStringER10UErrorCode
libicui18n.so.67:_ZN6icu_6714TimeZoneFormat14createInstanceERKNS_6LocaleER10UErrorCode
libicui18n.so.67:_ZN6icu_6714TimeZoneFormat14initGMTPatternERKNS_13UnicodeStringER10UErrorCode
libicui18n.so.67:_ZN6icu_6714TimeZoneFormat16getStaticClassIDEv
libicui18n.so.67:_ZN6icu_6714TimeZoneFormat16setGMTZeroFormatERKNS_13UnicodeStringER10UErrorCode
libicui18n.so.67:_ZN6icu_6714TimeZoneFormat16setTimeZoneNamesERKNS_13TimeZoneNamesE
libicui18n.so.67:_ZN6icu_6714TimeZoneFormat18adoptTimeZoneNamesEPNS_13TimeZoneNamesE
libicui18n.so.67:_ZN6icu_6714TimeZoneFormat18parseOffsetPatternERKNS_13UnicodeStringENS0_12OffsetFieldsER10UErrorCode
libicui18n.so.67:_ZN6icu_6714TimeZoneFormat18setGMTOffsetDigitsERKNS_13UnicodeStringER10UErrorCode
libicui18n.so.67:_ZN6icu_6714TimeZoneFormat19expandOffsetPatternERKNS_13UnicodeStringERS1_R10UErrorCode
libicui18n.so.67:_ZN6icu_6714TimeZoneFormat19setGMTOffsetPatternE35UTimeZoneFormatGMTOffsetPatternTypeRKNS_13UnicodeStringER10UErrorCode
libicui18n.so.67:_ZN6icu_6714TimeZoneFormat21initGMTOffsetPatternsER10UErrorCode
libicui18n.so.67:_ZN6icu_6714TimeZoneFormat21truncateOffsetPatternERKNS_13UnicodeStringERS1_R10UErrorCode
libicui18n.so.67:_ZN6icu_6714TimeZoneFormat22parseAsciiOffsetFieldsERKNS_13UnicodeStringERNS_13ParsePositionEDsNS0_12OffsetFieldsES6_
libicui18n.so.67:_ZN6icu_6714TimeZoneFormat22setDefaultParseOptionsEj
libicui18n.so.67:_ZN6icu_6714TimeZoneFormat27formatOffsetWithAsciiDigitsEiDsNS0_12OffsetFieldsES1_RNS_13UnicodeStringE
libicui18n.so.67:_ZN6icu_6714TimeZoneFormat28checkAbuttingHoursAndMinutesEv
libicui18n.so.67:_ZN6icu_6714TimeZoneFormat30parseAbuttingAsciiOffsetFieldsERKNS_13UnicodeStringERNS_13ParsePositionENS0_12OffsetFieldsES6_a
libicui18n.so.67:_ZN6icu_6714TimeZoneFormat7unquoteERKNS_13UnicodeStringERS1_
libicui18n.so.67:_ZN6icu_6714TimeZoneFormatC1ERKNS_6LocaleER10UErrorCode
libicui18n.so.67:_ZN6icu_6714TimeZoneFormatC1ERKS0_
libicui18n.so.67:_ZN6icu_6714TimeZoneFormatC2ERKNS_6LocaleER10UErrorCode
libicui18n.so.67:_ZN6icu_6714TimeZoneFormatC2ERKS0_
libicui18n.so.67:_ZN6icu_6714TimeZoneFormatD0Ev
libicui18n.so.67:_ZN6icu_6714TimeZoneFormatD1Ev
libicui18n.so.67:_ZN6icu_6714TimeZoneFormatD2Ev
libicui18n.so.67:_ZN6icu_6714TimeZoneFormataSERKS0_
libicui18n.so.67:_ZN6icu_6714Transliterator10unregisterERKNS_13UnicodeStringE
libicui18n.so.67:_ZN6icu_6714Transliterator11adoptFilterEPNS_13UnicodeFilterE
libicui18n.so.67:_ZN6icu_6714Transliterator12orphanFilterEv
libicui18n.so.67:_ZN6icu_6714Transliterator13registerAliasERKNS_13UnicodeStringES3_
libicui18n.so.67:_ZN6icu_6714Transliterator14_registerAliasERKNS_13UnicodeStringES3_
libicui18n.so.67:_ZN6icu_6714Transliterator14createInstanceERKNS_13UnicodeStringE15UTransDirectionR10UErrorCode
libicui18n.so.67:_ZN6icu_6714Transliterator14createInstanceERKNS_13UnicodeStringE15UTransDirectionR11UParseErrorR10UErrorCode
libicui18n.so.67:_ZN6icu_6714Transliterator14getAvailableIDEi
libicui18n.so.67:_ZN6icu_6714Transliterator14getDisplayNameERKNS_13UnicodeStringERKNS_6LocaleERS1_
libicui18n.so.67:_ZN6icu_6714Transliterator14getDisplayNameERKNS_13UnicodeStringERS1_
libicui18n.so.67:_ZN6icu_6714Transliterator15createFromRulesERKNS_13UnicodeStringES3_15UTransDirectionR11UParseErrorR10UErrorCode
libicui18n.so.67:_ZN6icu_6714Transliterator15getAvailableIDsER10UErrorCode
libicui18n.so.67:_ZN6icu_6714Transliterator15registerFactoryERKNS_13UnicodeStringEPFPS0_S3_NS0_5TokenEES5_
libicui18n.so.67:_ZN6icu_6714Transliterator16_registerFactoryERKNS_13UnicodeStringEPFPS0_S3_NS0_5TokenEES5_
libicui18n.so.67:_ZN6icu_6714Transliterator16getStaticClassIDEv
libicui18n.so.67:_ZN6icu_6714Transliterator16registerInstanceEPS0_
libicui18n.so.67:_ZN6icu_6714Transliterator17_registerInstanceEPS0_
libicui18n.so.67:_ZN6icu_6714Transliterator17countAvailableIDsEv
libicui18n.so.67:_ZN6icu_6714Transliterator18getAvailableSourceEiRNS_13UnicodeStringE
libicui18n.so.67:_ZN6icu_6714Transliterator18getAvailableTargetEiRKNS_13UnicodeStringERS1_
libicui18n.so.67:_ZN6icu_6714Transliterator18initializeRegistryER10UErrorCode
libicui18n.so.67:_ZN6icu_6714Transliterator19_getAvailableSourceEiRNS_13UnicodeStringE
libicui18n.so.67:_ZN6icu_6714Transliterator19_getAvailableTargetEiRKNS_13UnicodeStringERS1_
libicui18n.so.67:_ZN6icu_6714Transliterator19createBasicInstanceERKNS_13UnicodeStringEPS2_
libicui18n.so.67:_ZN6icu_6714Transliterator19getAvailableVariantEiRKNS_13UnicodeStringES3_RS1_
libicui18n.so.67:_ZN6icu_6714Transliterator20_getAvailableVariantEiRKNS_13UnicodeStringES3_RS1_
libicui18n.so.67:_ZN6icu_6714Transliterator21countAvailableSourcesEv
libicui18n.so.67:_ZN6icu_6714Transliterator21countAvailableTargetsERKNS_13UnicodeStringE
libicui18n.so.67:_ZN6icu_6714Transliterator22_countAvailableSourcesEv
libicui18n.so.67:_ZN6icu_6714Transliterator22_countAvailableTargetsERKNS_13UnicodeStringE
libicui18n.so.67:_ZN6icu_6714Transliterator22countAvailableVariantsERKNS_13UnicodeStringES3_
libicui18n.so.67:_ZN6icu_6714Transliterator23_countAvailableVariantsERKNS_13UnicodeStringES3_
libicui18n.so.67:_ZN6icu_6714Transliterator23_registerSpecialInverseERKNS_13UnicodeStringES3_a
libicui18n.so.67:_ZN6icu_6714Transliterator23setMaximumContextLengthEi
libicui18n.so.67:_ZN6icu_6714TransliteratorC1ERKNS_13UnicodeStringEPNS_13UnicodeFilterE
libicui18n.so.67:_ZN6icu_6714TransliteratorC1ERKS0_
libicui18n.so.67:_ZN6icu_6714TransliteratorC2ERKNS_13UnicodeStringEPNS_13UnicodeFilterE
libicui18n.so.67:_ZN6icu_6714TransliteratorC2ERKS0_
libicui18n.so.67:_ZN6icu_6714TransliteratorD0Ev
libicui18n.so.67:_ZN6icu_6714TransliteratorD1Ev
libicui18n.so.67:_ZN6icu_6714TransliteratorD2Ev
libicui18n.so.67:_ZN6icu_6714TransliteratoraSERKS0_
libicui18n.so.67:_ZN6icu_6715AlphabeticIndex10nextBucketER10UErrorCode
libicui18n.so.67:_ZN6icu_6715AlphabeticIndex10nextRecordER10UErrorCode
libicui18n.so.67:_ZN6icu_6715AlphabeticIndex11initBucketsER10UErrorCode
libicui18n.so.67:_ZN6icu_6715AlphabeticIndex12clearBucketsEv
libicui18n.so.67:_ZN6icu_6715AlphabeticIndex12clearRecordsER10UErrorCode
libicui18n.so.67:_ZN6icu_6715AlphabeticIndex14ImmutableIndexD0Ev
libicui18n.so.67:_ZN6icu_6715AlphabeticIndex14ImmutableIndexD1Ev
libicui18n.so.67:_ZN6icu_6715AlphabeticIndex14ImmutableIndexD2Ev
libicui18n.so.67:_ZN6icu_6715AlphabeticIndex14getBucketCountER10UErrorCode
libicui18n.so.67:_ZN6icu_6715AlphabeticIndex14getBucketIndexERKNS_13UnicodeStringER10UErrorCode
libicui18n.so.67:_ZN6icu_6715AlphabeticIndex14getRecordCountER10UErrorCode
libicui18n.so.67:_ZN6icu_6715AlphabeticIndex14setInflowLabelERKNS_13UnicodeStringER10UErrorCode
libicui18n.so.67:_ZN6icu_6715AlphabeticIndex16setMaxLabelCountEiR10UErrorCode
libicui18n.so.67:_ZN6icu_6715AlphabeticIndex16setOverflowLabelERKNS_13UnicodeStringER10UErrorCode
libicui18n.so.67:_ZN6icu_6715AlphabeticIndex17addIndexExemplarsERKNS_6LocaleER10UErrorCode
libicui18n.so.67:_ZN6icu_6715AlphabeticIndex17setUnderflowLabelERKNS_13UnicodeStringER10UErrorCode
libicui18n.so.67:_ZN6icu_6715AlphabeticIndex19buildImmutableIndexER10UErrorCode
libicui18n.so.67:_ZN6icu_6715AlphabeticIndex19resetBucketIteratorER10UErrorCode
libicui18n.so.67:_ZN6icu_6715AlphabeticIndex19resetRecordIteratorEv
libicui18n.so.67:_ZN6icu_6715AlphabeticIndex20firstStringsInScriptER10UErrorCode
libicui18n.so.67:_ZN6icu_6715AlphabeticIndex25addChineseIndexCharactersER10UErrorCode
libicui18n.so.67:_ZN6icu_6715AlphabeticIndex27internalResetBucketIteratorEv
libicui18n.so.67:_ZN6icu_6715AlphabeticIndex4initEPKNS_6LocaleER10UErrorCode
libicui18n.so.67:_ZN6icu_6715AlphabeticIndex6BucketC1ERKNS_13UnicodeStringES4_25UAlphabeticIndexLabelType
libicui18n.so.67:_ZN6icu_6715AlphabeticIndex6BucketC2ERKNS_13UnicodeStringES4_25UAlphabeticIndexLabelType
libicui18n.so.67:_ZN6icu_6715AlphabeticIndex6BucketD0Ev
libicui18n.so.67:_ZN6icu_6715AlphabeticIndex6BucketD1Ev
libicui18n.so.67:_ZN6icu_6715AlphabeticIndex6BucketD2Ev
libicui18n.so.67:_ZN6icu_6715AlphabeticIndex6RecordC1ERKNS_13UnicodeStringEPKv
libicui18n.so.67:_ZN6icu_6715AlphabeticIndex6RecordC2ERKNS_13UnicodeStringEPKv
libicui18n.so.67:_ZN6icu_6715AlphabeticIndex6RecordD1Ev
libicui18n.so.67:_ZN6icu_6715AlphabeticIndex6RecordD2Ev
libicui18n.so.67:_ZN6icu_6715AlphabeticIndex9addLabelsERKNS_10UnicodeSetER10UErrorCode
libicui18n.so.67:_ZN6icu_6715AlphabeticIndex9addLabelsERKNS_6LocaleER10UErrorCode
libicui18n.so.67:_ZN6icu_6715AlphabeticIndex9addRecordERKNS_13UnicodeStringEPKvR10UErrorCode
libicui18n.so.67:_ZN6icu_6715AlphabeticIndex9separatedERKNS_13UnicodeStringE
libicui18n.so.67:_ZN6icu_6715AlphabeticIndexC1EPNS_17RuleBasedCollatorER10UErrorCode
libicui18n.so.67:_ZN6icu_6715AlphabeticIndexC1ERKNS_6LocaleER10UErrorCode
libicui18n.so.67:_ZN6icu_6715AlphabeticIndexC2EPNS_17RuleBasedCollatorER10UErrorCode
libicui18n.so.67:_ZN6icu_6715AlphabeticIndexC2ERKNS_6LocaleER10UErrorCode
libicui18n.so.67:_ZN6icu_6715AlphabeticIndexD0Ev
libicui18n.so.67:_ZN6icu_6715AlphabeticIndexD1Ev
libicui18n.so.67:_ZN6icu_6715AlphabeticIndexD2Ev
libicui18n.so.67:_ZN6icu_6715CalendarServiceD0Ev
libicui18n.so.67:_ZN6icu_6715CalendarServiceD1Ev
libicui18n.so.67:_ZN6icu_6715CalendarServiceD2Ev
libicui18n.so.67:_ZN6icu_6715CharsetDetector14setRecognizersER10UErrorCode
libicui18n.so.67:_ZN6icu_6715CharsetDetector16setStripTagsFlagEa
libicui18n.so.67:_ZN6icu_6715CharsetDetector18getDetectableCountEv
libicui18n.so.67:_ZN6icu_6715CharsetDetector20setDetectableCharsetEPKcaR10UErrorCode
libicui18n.so.67:_ZN6icu_6715CharsetDetector24getAllDetectableCharsetsER10UErrorCode
libicui18n.so.67:_ZN6icu_6715CharsetDetector6detectER10UErrorCode
libicui18n.so.67:_ZN6icu_6715CharsetDetector7setTextEPKci
libicui18n.so.67:_ZN6icu_6715CharsetDetector9detectAllERiR10UErrorCode
libicui18n.so.67:_ZN6icu_6715CharsetDetectorC1ER10UErrorCode
libicui18n.so.67:_ZN6icu_6715CharsetDetectorC2ER10UErrorCode
libicui18n.so.67:_ZN6icu_6715CharsetDetectorD1Ev
libicui18n.so.67:_ZN6icu_6715CharsetDetectorD2Ev
libicui18n.so.67:_ZN6icu_6715ChineseCalendar11offsetMonthEiii
libicui18n.so.67:_ZN6icu_6715ChineseCalendar16getStaticClassIDEv
libicui18n.so.67:_ZN6icu_6715ChineseCalendar19handleComputeFieldsEiR10UErrorCode
libicui18n.so.67:_ZN6icu_6715ChineseCalendar20computeChineseFieldsEiiia
libicui18n.so.67:_ZN6icu_6715ChineseCalendar21handleGetExtendedYearEv
libicui18n.so.67:_ZN6icu_6715ChineseCalendar3addE19UCalendarDateFieldsiR10UErrorCode
libicui18n.so.67:_ZN6icu_6715ChineseCalendar3addENS_8Calendar11EDateFieldsEiR10UErrorCode
libicui18n.so.67:_ZN6icu_6715ChineseCalendar4rollE19UCalendarDateFieldsiR10UErrorCode
libicui18n.so.67:_ZN6icu_6715ChineseCalendar4rollENS_8Calendar11EDateFieldsEiR10UErrorCode
libicui18n.so.67:_ZN6icu_6715ChineseCalendarC1ERKNS_6LocaleER10UErrorCode
libicui18n.so.67:_ZN6icu_6715ChineseCalendarC1ERKNS_6LocaleEiPKNS_8TimeZoneER10UErrorCode
libicui18n.so.67:_ZN6icu_6715ChineseCalendarC1ERKS0_
libicui18n.so.67:_ZN6icu_6715ChineseCalendarC2ERKNS_6LocaleER10UErrorCode
libicui18n.so.67:_ZN6icu_6715ChineseCalendarC2ERKNS_6LocaleEiPKNS_8TimeZoneER10UErrorCode
libicui18n.so.67:_ZN6icu_6715ChineseCalendarC2ERKS0_
libicui18n.so.67:_ZN6icu_6715ChineseCalendarD0Ev
libicui18n.so.67:_ZN6icu_6715ChineseCalendarD1Ev
libicui18n.so.67:_ZN6icu_6715ChineseCalendarD2Ev
libicui18n.so.67:_ZN6icu_6715CollationLoader12loadFromDataER10UErrorCode
libicui18n.so.67:_ZN6icu_6715CollationLoader13getCacheEntryER10UErrorCode
libicui18n.so.67:_ZN6icu_6715CollationLoader13loadRootRulesER10UErrorCode
libicui18n.so.67:_ZN6icu_6715CollationLoader13loadTailoringERKNS_6LocaleER10UErrorCode
libicui18n.so.67:_ZN6icu_6715CollationLoader14loadFromBundleER10UErrorCode
libicui18n.so.67:_ZN6icu_6715CollationLoader14loadFromLocaleER10UErrorCode
libicui18n.so.67:_ZN6icu_6715CollationLoader14makeCacheEntryERKNS_6LocaleEPKNS_19CollationCacheEntryER10UErrorCode
libicui18n.so.67:_ZN6icu_6715CollationLoader15appendRootRulesERNS_13UnicodeStringE
libicui18n.so.67:_ZN6icu_6715CollationLoader16createCacheEntryER10UErrorCode
libicui18n.so.67:_ZN6icu_6715CollationLoader18loadFromCollationsER10UErrorCode
libicui18n.so.67:_ZN6icu_6715CollationLoader9loadRulesEPKcS2_RNS_13UnicodeStringER10UErrorCode
libicui18n.so.67:_ZN6icu_6715CollationLoaderC1EPKNS_19CollationCacheEntryERKNS_6LocaleER10UErrorCode
libicui18n.so.67:_ZN6icu_6715CollationLoaderC2EPKNS_19CollationCacheEntryERKNS_6LocaleER10UErrorCode
libicui18n.so.67:_ZN6icu_6715CollationLoaderD1Ev
libicui18n.so.67:_ZN6icu_6715CollationLoaderD2Ev
libicui18n.so.67:_ZN6icu_6715CollatorFactory14getDisplayNameERKNS_6LocaleES3_RNS_13UnicodeStringE
libicui18n.so.67:_ZN6icu_6715CollatorFactoryD0Ev
libicui18n.so.67:_ZN6icu_6715CollatorFactoryD1Ev
libicui18n.so.67:_ZN6icu_6715CollatorFactoryD2Ev
libicui18n.so.67:_ZN6icu_6715DateTimeMatcher10getPatternEv
libicui18n.so.67:_ZN6icu_6715DateTimeMatcher14getBasePatternERNS_13UnicodeStringE
libicui18n.so.67:_ZN6icu_6715DateTimeMatcher14getSkeletonPtrEv
libicui18n.so.67:_ZN6icu_6715DateTimeMatcher3setERKNS_13UnicodeStringEPNS_12FormatParserE
libicui18n.so.67:_ZN6icu_6715DateTimeMatcher3setERKNS_13UnicodeStringEPNS_12FormatParserERNS_11PtnSkeletonE
libicui18n.so.67:_ZN6icu_6715DateTimeMatcher8copyFromERKNS_11PtnSkeletonE
libicui18n.so.67:_ZN6icu_6715DateTimeMatcher8copyFromEv
libicui18n.so.67:_ZN6icu_6715DateTimeMatcherC1ERKS0_
libicui18n.so.67:_ZN6icu_6715DateTimeMatcherC1Ev
libicui18n.so.67:_ZN6icu_6715DateTimeMatcherC2ERKS0_
libicui18n.so.67:_ZN6icu_6715DateTimeMatcherC2Ev
libicui18n.so.67:_ZN6icu_6715DateTimeMatcherD0Ev
libicui18n.so.67:_ZN6icu_6715DateTimeMatcherD1Ev
libicui18n.so.67:_ZN6icu_6715DateTimeMatcherD2Ev
libicui18n.so.67:_ZN6icu_6715DateTimeMatcheraSERKS0_
libicui18n.so.67:_ZN6icu_6715IslamicCalendar13civilLeapYearEi
libicui18n.so.67:_ZN6icu_6715IslamicCalendar16getStaticClassIDEv
libicui18n.so.67:_ZN6icu_6715IslamicCalendar18setCalculationTypeENS0_16ECalculationTypeER10UErrorCode
libicui18n.so.67:_ZN6icu_6715IslamicCalendar19handleComputeFieldsEiR10UErrorCode
libicui18n.so.67:_ZN6icu_6715IslamicCalendar21handleGetExtendedYearEv
libicui18n.so.67:_ZN6icu_6715IslamicCalendar30initializeSystemDefaultCenturyEv
libicui18n.so.67:_ZN6icu_6715IslamicCalendar7isCivilEv
libicui18n.so.67:_ZN6icu_6715IslamicCalendar7moonAgeEdR10UErrorCode
libicui18n.so.67:_ZN6icu_6715IslamicCalendarC1ERKNS_6LocaleER10UErrorCodeNS0_16ECalculationTypeE
libicui18n.so.67:_ZN6icu_6715IslamicCalendarC1ERKS0_
libicui18n.so.67:_ZN6icu_6715IslamicCalendarC2ERKNS_6LocaleER10UErrorCodeNS0_16ECalculationTypeE
libicui18n.so.67:_ZN6icu_6715IslamicCalendarC2ERKS0_
libicui18n.so.67:_ZN6icu_6715IslamicCalendarD0Ev
libicui18n.so.67:_ZN6icu_6715IslamicCalendarD1Ev
libicui18n.so.67:_ZN6icu_6715IslamicCalendarD2Ev
libicui18n.so.67:_ZN6icu_6715MaybeStackArrayIcLi40EE12aliasInsteadEPci
libicui18n.so.67:_ZN6icu_6715MaybeStackArrayIcLi40EE12releaseArrayEv
libicui18n.so.67:_ZN6icu_6715MaybeStackArrayIcLi40EE13orphanOrCloneEiRi
libicui18n.so.67:_ZN6icu_6715MaybeStackArrayIcLi40EE17resetToStackArrayEv
libicui18n.so.67:_ZN6icu_6715MaybeStackArrayIcLi40EE6resizeEii
libicui18n.so.67:_ZN6icu_6715MaybeStackArrayIcLi40EEC1EOS1_
libicui18n.so.67:_ZN6icu_6715MaybeStackArrayIcLi40EEC1ERKS1_
libicui18n.so.67:_ZN6icu_6715MaybeStackArrayIcLi40EEC1Ei
libicui18n.so.67:_ZN6icu_6715MaybeStackArrayIcLi40EEC1Ev
libicui18n.so.67:_ZN6icu_6715MaybeStackArrayIcLi40EEC2EOS1_
libicui18n.so.67:_ZN6icu_6715MaybeStackArrayIcLi40EEC2ERKS1_
libicui18n.so.67:_ZN6icu_6715MaybeStackArrayIcLi40EEC2Ei
libicui18n.so.67:_ZN6icu_6715MaybeStackArrayIcLi40EEC2Ev
libicui18n.so.67:_ZN6icu_6715MaybeStackArrayIcLi40EED1Ev
libicui18n.so.67:_ZN6icu_6715MaybeStackArrayIcLi40EED2Ev
libicui18n.so.67:_ZN6icu_6715MaybeStackArrayIcLi40EEaSEOS1_
libicui18n.so.67:_ZN6icu_6715MaybeStackArrayIcLi40EEaSERKS1_
libicui18n.so.67:_ZN6icu_6715MaybeStackArrayIcLi40EEeqERKS1_
libicui18n.so.67:_ZN6icu_6715MaybeStackArrayIcLi40EEixEl
libicui18n.so.67:_ZN6icu_6715MaybeStackArrayIcLi40EEneERKS1_
libicui18n.so.67:_ZN6icu_6715MeasureUnitImpl13forIdentifierENS_11StringPieceER10UErrorCode
libicui18n.so.67:_ZN6icu_6715MeasureUnitImpl14forMeasureUnitERKNS_11MeasureUnitERS0_R10UErrorCode
libicui18n.so.67:_ZN6icu_6715MeasureUnitImpl14takeReciprocalER10UErrorCode
libicui18n.so.67:_ZN6icu_6715MeasureUnitImpl23forMeasureUnitMaybeCopyERKNS_11MeasureUnitER10UErrorCode
libicui18n.so.67:_ZN6icu_6715MeasureUnitImpl6appendERKNS_14SingleUnitImplER10UErrorCode
libicui18n.so.67:_ZN6icu_6715NumberingSystem14createInstanceER10UErrorCode
libicui18n.so.67:_ZN6icu_6715NumberingSystem14createInstanceERKNS_6LocaleER10UErrorCode
libicui18n.so.67:_ZN6icu_6715NumberingSystem14createInstanceEiaRKNS_13UnicodeStringER10UErrorCode
libicui18n.so.67:_ZN6icu_6715NumberingSystem14setAlgorithmicEa
libicui18n.so.67:_ZN6icu_6715NumberingSystem16getStaticClassIDEv
libicui18n.so.67:_ZN6icu_6715NumberingSystem17getAvailableNamesER10UErrorCode
libicui18n.so.67:_ZN6icu_6715NumberingSystem20createInstanceByNameEPKcR10UErrorCode
libicui18n.so.67:_ZN6icu_6715NumberingSystem7setDescERKNS_13UnicodeStringE
libicui18n.so.67:_ZN6icu_6715NumberingSystem7setNameEPKc
libicui18n.so.67:_ZN6icu_6715NumberingSystem8setRadixEi
libicui18n.so.67:_ZN6icu_6715NumberingSystemC1ERKS0_
libicui18n.so.67:_ZN6icu_6715NumberingSystemC1Ev
libicui18n.so.67:_ZN6icu_6715NumberingSystemC2ERKS0_
libicui18n.so.67:_ZN6icu_6715NumberingSystemC2Ev
libicui18n.so.67:_ZN6icu_6715NumberingSystemD0Ev
libicui18n.so.67:_ZN6icu_6715NumberingSystemD1Ev
libicui18n.so.67:_ZN6icu_6715NumberingSystemD2Ev
libicui18n.so.67:_ZN6icu_6715PersianCalendar10isLeapYearEi
libicui18n.so.67:_ZN6icu_6715PersianCalendar16getStaticClassIDEv
libicui18n.so.67:_ZN6icu_6715PersianCalendar19handleComputeFieldsEiR10UErrorCode
libicui18n.so.67:_ZN6icu_6715PersianCalendar21handleGetExtendedYearEv
libicui18n.so.67:_ZN6icu_6715PersianCalendar9yearStartEi
libicui18n.so.67:_ZN6icu_6715PersianCalendarC1ERKNS_6LocaleER10UErrorCode
libicui18n.so.67:_ZN6icu_6715PersianCalendarC1ERKS0_
libicui18n.so.67:_ZN6icu_6715PersianCalendarC2ERKNS_6LocaleER10UErrorCode
libicui18n.so.67:_ZN6icu_6715PersianCalendarC2ERKS0_
libicui18n.so.67:_ZN6icu_6715PersianCalendarD0Ev
libicui18n.so.67:_ZN6icu_6715PersianCalendarD1Ev
libicui18n.so.67:_ZN6icu_6715PersianCalendarD2Ev
libicui18n.so.67:_ZN6icu_6715RegexStaticSets11initGlobalsEP10UErrorCode
libicui18n.so.67:_ZN6icu_6715RegexStaticSetsC1EP10UErrorCode
libicui18n.so.67:_ZN6icu_6715RegexStaticSetsC2EP10UErrorCode
libicui18n.so.67:_ZN6icu_6715RegexStaticSetsD1Ev
libicui18n.so.67:_ZN6icu_6715RegexStaticSetsD2Ev
libicui18n.so.67:_ZN6icu_6715ReplaceableGlue16getStaticClassIDEv
libicui18n.so.67:_ZN6icu_6715ReplaceableGlue20handleReplaceBetweenEiiRKNS_13UnicodeStringE
libicui18n.so.67:_ZN6icu_6715ReplaceableGlue4copyEiii
libicui18n.so.67:_ZN6icu_6715ReplaceableGlueC1EPPvPK21UReplaceableCallbacks
libicui18n.so.67:_ZN6icu_6715ReplaceableGlueC2EPPvPK21UReplaceableCallbacks
libicui18n.so.67:_ZN6icu_6715ReplaceableGlueD0Ev
libicui18n.so.67:_ZN6icu_6715ReplaceableGlueD1Ev
libicui18n.so.67:_ZN6icu_6715ReplaceableGlueD2Ev
libicui18n.so.67:_ZN6icu_6715SortKeyByteSink15GetAppendBufferEiiPciPi
libicui18n.so.67:_ZN6icu_6715SortKeyByteSink6AppendEPKci
libicui18n.so.67:_ZN6icu_6715SortKeyByteSinkD0Ev
libicui18n.so.67:_ZN6icu_6715SortKeyByteSinkD1Ev
libicui18n.so.67:_ZN6icu_6715SortKeyByteSinkD2Ev
libicui18n.so.67:_ZN6icu_6715UnicodeReplacerD0Ev
libicui18n.so.67:_ZN6icu_6715UnicodeReplacerD1Ev
libicui18n.so.67:_ZN6icu_6715UnicodeReplacerD2Ev
libicui18n.so.67:_ZN6icu_6716BuddhistCalendar16getStaticClassIDEv
libicui18n.so.67:_ZN6icu_6716BuddhistCalendar19handleComputeFieldsEiR10UErrorCode
libicui18n.so.67:_ZN6icu_6716BuddhistCalendar21handleGetExtendedYearEv
libicui18n.so.67:_ZN6icu_6716BuddhistCalendarC1ERKNS_6LocaleER10UErrorCode
libicui18n.so.67:_ZN6icu_6716BuddhistCalendarC1ERKS0_
libicui18n.so.67:_ZN6icu_6716BuddhistCalendarC2ERKNS_6LocaleER10UErrorCode
libicui18n.so.67:_ZN6icu_6716BuddhistCalendarC2ERKS0_
libicui18n.so.67:_ZN6icu_6716BuddhistCalendarD0Ev
libicui18n.so.67:_ZN6icu_6716BuddhistCalendarD1Ev
libicui18n.so.67:_ZN6icu_6716BuddhistCalendarD2Ev
libicui18n.so.67:_ZN6icu_6716BuddhistCalendaraSERKS0_
libicui18n.so.67:_ZN6icu_6716CharsetRecog_eucD0Ev
libicui18n.so.67:_ZN6icu_6716CharsetRecog_eucD1Ev
libicui18n.so.67:_ZN6icu_6716CharsetRecog_eucD2Ev
libicui18n.so.67:_ZN6icu_6716CollationBuilder10ceStrengthEl
libicui18n.so.67:_ZN6icu_6716CollationBuilder11addRelationEiRKNS_13UnicodeStringES3_S3_RPKcR10UErrorCode
libicui18n.so.67:_ZN6icu_6716CollationBuilder11finalizeCEsER10UErrorCode
libicui18n.so.67:_ZN6icu_6716CollationBuilder11setCaseBitsERKNS_13UnicodeStringERPKcR10UErrorCode
libicui18n.so.67:_ZN6icu_6716CollationBuilder13parseAndBuildERKNS_13UnicodeStringEPKhPNS_19CollationRuleParser8ImporterEP11UParseErrorR10UErrorCode
libicui18n.so.67:_ZN6icu_6716CollationBuilder14addIfDifferentERKNS_13UnicodeStringES3_PKlijR10UErrorCode
libicui18n.so.67:_ZN6icu_6716CollationBuilder14addOnlyClosureERKNS_13UnicodeStringES3_PKlijR10UErrorCode
libicui18n.so.67:_ZN6icu_6716CollationBuilder14addWithClosureERKNS_13UnicodeStringES3_PKlijR10UErrorCode
libicui18n.so.67:_ZN6icu_6716CollationBuilder15makeTailoredCEsER10UErrorCode
libicui18n.so.67:_ZN6icu_6716CollationBuilder17addTailCompositesERKNS_13UnicodeStringES3_R10UErrorCode
libicui18n.so.67:_ZN6icu_6716CollationBuilder17getWeight16BeforeEili
libicui18n.so.67:_ZN6icu_6716CollationBuilder17insertNodeBetweenEiilR10UErrorCode
libicui18n.so.67:_ZN6icu_6716CollationBuilder18countTailoredNodesEPKlii
libicui18n.so.67:_ZN6icu_6716CollationBuilder19closeOverCompositesER10UErrorCode
libicui18n.so.67:_ZN6icu_6716CollationBuilder20findOrInsertWeakNodeEijiR10UErrorCode
libicui18n.so.67:_ZN6icu_6716CollationBuilder20suppressContractionsERKNS_10UnicodeSetERPKcR10UErrorCode
libicui18n.so.67:_ZN6icu_6716CollationBuilder22findOrInsertNodeForCEsEiRPKcR10UErrorCode
libicui18n.so.67:_ZN6icu_6716CollationBuilder23getSpecialResetPositionERKNS_13UnicodeStringERPKcR10UErrorCode
libicui18n.so.67:_ZN6icu_6716CollationBuilder23insertTailoredNodeAfterEiiR10UErrorCode
libicui18n.so.67:_ZN6icu_6716CollationBuilder25findOrInsertNodeForRootCEEliR10UErrorCode
libicui18n.so.67:_ZN6icu_6716CollationBuilder26findOrInsertNodeForPrimaryEjR10UErrorCode
libicui18n.so.67:_ZN6icu_6716CollationBuilder7sameCEsEPKliS2_i
libicui18n.so.67:_ZN6icu_6716CollationBuilder8addResetEiRKNS_13UnicodeStringERPKcR10UErrorCode
libicui18n.so.67:_ZN6icu_6716CollationBuilder8optimizeERKNS_10UnicodeSetERPKcR10UErrorCode
libicui18n.so.67:_ZN6icu_6716CollationBuilderC1EPKNS_18CollationTailoringER10UErrorCode
libicui18n.so.67:_ZN6icu_6716CollationBuilderC2EPKNS_18CollationTailoringER10UErrorCode
libicui18n.so.67:_ZN6icu_6716CollationBuilderD0Ev
libicui18n.so.67:_ZN6icu_6716CollationBuilderD1Ev
libicui18n.so.67:_ZN6icu_6716CollationBuilderD2Ev
libicui18n.so.67:_ZN6icu_6716CollationCompare21compareUpToQuaternaryERNS_17CollationIteratorES2_RKNS_17CollationSettingsER10UErrorCode
libicui18n.so.67:_ZN6icu_6716CollationWeights10nextWeightEv
libicui18n.so.67:_ZN6icu_6716CollationWeights12allocWeightsEjji
libicui18n.so.67:_ZN6icu_6716CollationWeights14initForPrimaryEa
libicui18n.so.67:_ZN6icu_6716CollationWeights15getWeightRangesEjj
libicui18n.so.67:_ZN6icu_6716CollationWeights15initForTertiaryEv
libicui18n.so.67:_ZN6icu_6716CollationWeights16initForSecondaryEv
libicui18n.so.67:_ZN6icu_6716CollationWeights25allocWeightsInShortRangesEii
libicui18n.so.67:_ZN6icu_6716CollationWeights29allocWeightsInMinLengthRangesEii
libicui18n.so.67:_ZN6icu_6716CollationWeightsC1Ev
libicui18n.so.67:_ZN6icu_6716CollationWeightsC2Ev
libicui18n.so.67:_ZN6icu_6716DateIntervalInfo10deleteHashEPNS_9HashtableE
libicui18n.so.67:_ZN6icu_6716DateIntervalInfo13parseSkeletonERKNS_13UnicodeStringEPi
libicui18n.so.67:_ZN6icu_6716DateIntervalInfo13stringNumericEiic
libicui18n.so.67:_ZN6icu_6716DateIntervalInfo14initializeDataERKNS_6LocaleER10UErrorCode
libicui18n.so.67:_ZN6icu_6716DateIntervalInfo16DateIntervalSinkD0Ev
libicui18n.so.67:_ZN6icu_6716DateIntervalInfo16DateIntervalSinkD1Ev
libicui18n.so.67:_ZN6icu_6716DateIntervalInfo16DateIntervalSinkD2Ev
libicui18n.so.67:_ZN6icu_6716DateIntervalInfo16getStaticClassIDEv
libicui18n.so.67:_ZN6icu_6716DateIntervalInfo18setIntervalPatternERKNS_13UnicodeStringE19UCalendarDateFieldsS3_R10UErrorCode
libicui18n.so.67:_ZN6icu_6716DateIntervalInfo26setFallbackIntervalPatternERKNS_13UnicodeStringER10UErrorCode
libicui18n.so.67:_ZN6icu_6716DateIntervalInfo28calendarFieldToIntervalIndexE19UCalendarDateFieldsR10UErrorCode
libicui18n.so.67:_ZN6icu_6716DateIntervalInfo28setIntervalPatternInternallyERKNS_13UnicodeStringE19UCalendarDateFieldsS3_R10UErrorCode
libicui18n.so.67:_ZN6icu_6716DateIntervalInfo8copyHashEPKNS_9HashtableEPS1_R10UErrorCode
libicui18n.so.67:_ZN6icu_6716DateIntervalInfo8initHashER10UErrorCode
libicui18n.so.67:_ZN6icu_6716DateIntervalInfoC1ER10UErrorCode
libicui18n.so.67:_ZN6icu_6716DateIntervalInfoC1ERKNS_6LocaleER10UErrorCode
libicui18n.so.67:_ZN6icu_6716DateIntervalInfoC1ERKS0_
libicui18n.so.67:_ZN6icu_6716DateIntervalInfoD0Ev
libicui18n.so.67:_ZN6icu_6716DateIntervalInfoD1Ev
libicui18n.so.67:_ZN6icu_6716DateIntervalInfoaSERKS0_
libicui18n.so.67:_ZN6icu_6716EthiopicCalendar15setAmeteAlemEraEa
libicui18n.so.67:_ZN6icu_6716EthiopicCalendar16getStaticClassIDEv
libicui18n.so.67:_ZN6icu_6716EthiopicCalendar19handleComputeFieldsEiR10UErrorCode
libicui18n.so.67:_ZN6icu_6716EthiopicCalendar21handleGetExtendedYearEv
libicui18n.so.67:_ZN6icu_6716EthiopicCalendarC1ERKNS_6LocaleER10UErrorCodeNS0_8EEraTypeE
libicui18n.so.67:_ZN6icu_6716EthiopicCalendarC1ERKS0_
libicui18n.so.67:_ZN6icu_6716EthiopicCalendarC2ERKNS_6LocaleER10UErrorCodeNS0_8EEraTypeE
libicui18n.so.67:_ZN6icu_6716EthiopicCalendarC2ERKS0_
libicui18n.so.67:_ZN6icu_6716EthiopicCalendarD0Ev
libicui18n.so.67:_ZN6icu_6716EthiopicCalendarD1Ev
libicui18n.so.67:_ZN6icu_6716EthiopicCalendarD2Ev
libicui18n.so.67:_ZN6icu_6716FunctionReplacer16getStaticClassIDEv
libicui18n.so.67:_ZN6icu_6716FunctionReplacer7replaceERNS_11ReplaceableEiiRi
libicui18n.so.67:_ZN6icu_6716FunctionReplacer7setDataEPKNS_23TransliterationRuleDataE
libicui18n.so.67:_ZN6icu_6716FunctionReplacerC1EPNS_14TransliteratorEPNS_14UnicodeFunctorE
libicui18n.so.67:_ZN6icu_6716FunctionReplacerC1ERKS0_
libicui18n.so.67:_ZN6icu_6716FunctionReplacerC2EPNS_14TransliteratorEPNS_14UnicodeFunctorE
libicui18n.so.67:_ZN6icu_6716FunctionReplacerC2ERKS0_
libicui18n.so.67:_ZN6icu_6716FunctionReplacerD0Ev
libicui18n.so.67:_ZN6icu_6716FunctionReplacerD1Ev
libicui18n.so.67:_ZN6icu_6716FunctionReplacerD2Ev
libicui18n.so.67:_ZN6icu_6716JapaneseCalendar13getCurrentEraEv
libicui18n.so.67:_ZN6icu_6716JapaneseCalendar16getStaticClassIDEv
libicui18n.so.67:_ZN6icu_6716JapaneseCalendar18enableTentativeEraEv
libicui18n.so.67:_ZN6icu_6716JapaneseCalendar19handleComputeFieldsEiR10UErrorCode
libicui18n.so.67:_ZN6icu_6716JapaneseCalendar20getDefaultDayInMonthEii
libicui18n.so.67:_ZN6icu_6716JapaneseCalendar21getDefaultMonthInYearEi
libicui18n.so.67:_ZN6icu_6716JapaneseCalendar21handleGetExtendedYearEv
libicui18n.so.67:_ZN6icu_6716JapaneseCalendarC1ERKNS_6LocaleER10UErrorCode
libicui18n.so.67:_ZN6icu_6716JapaneseCalendarC1ERKS0_
libicui18n.so.67:_ZN6icu_6716JapaneseCalendarC2ERKNS_6LocaleER10UErrorCode
libicui18n.so.67:_ZN6icu_6716JapaneseCalendarC2ERKS0_
libicui18n.so.67:_ZN6icu_6716JapaneseCalendarD0Ev
libicui18n.so.67:_ZN6icu_6716JapaneseCalendarD1Ev
libicui18n.so.67:_ZN6icu_6716JapaneseCalendarD2Ev
libicui18n.so.67:_ZN6icu_6716JapaneseCalendaraSERKS0_
libicui18n.so.67:_ZN6icu_6716LocalizationInfoD0Ev
libicui18n.so.67:_ZN6icu_6716LocalizationInfoD1Ev
libicui18n.so.67:_ZN6icu_6716LocalizationInfoD2Ev
libicui18n.so.67:_ZN6icu_6716PluralRuleParser10getKeyTypeERKNS_13UnicodeStringENS_9tokenTypeE
libicui18n.so.67:_ZN6icu_6716PluralRuleParser11checkSyntaxER10UErrorCode
libicui18n.so.67:_ZN6icu_6716PluralRuleParser12getNextTokenER10UErrorCode
libicui18n.so.67:_ZN6icu_6716PluralRuleParser14getNumberValueERKNS_13UnicodeStringE
libicui18n.so.67:_ZN6icu_6716PluralRuleParser5parseERKNS_13UnicodeStringEPNS_11PluralRulesER10UErrorCode
libicui18n.so.67:_ZN6icu_6716PluralRuleParser8charTypeEDs
libicui18n.so.67:_ZN6icu_6716PluralRuleParserC1Ev
libicui18n.so.67:_ZN6icu_6716PluralRuleParserC2Ev
libicui18n.so.67:_ZN6icu_6716PluralRuleParserD0Ev
libicui18n.so.67:_ZN6icu_6716PluralRuleParserD1Ev
libicui18n.so.67:_ZN6icu_6716PluralRuleParserD2Ev
libicui18n.so.67:_ZN6icu_6716RiseSetCoordFuncD0Ev
libicui18n.so.67:_ZN6icu_6716RiseSetCoordFuncD1Ev
libicui18n.so.67:_ZN6icu_6716RiseSetCoordFuncD2Ev
libicui18n.so.67:_ZN6icu_6716SimpleDateFormat10NSOverride4freeEv
libicui18n.so.67:_ZN6icu_6716SimpleDateFormat10NSOverrideD1Ev
libicui18n.so.67:_ZN6icu_6716SimpleDateFormat10NSOverrideD2Ev
libicui18n.so.67:_ZN6icu_6716SimpleDateFormat10initializeERKNS_6LocaleER10UErrorCode
libicui18n.so.67:_ZN6icu_6716SimpleDateFormat10setContextE15UDisplayContextR10UErrorCode
libicui18n.so.67:_ZN6icu_6716SimpleDateFormat12applyPatternERKNS_13UnicodeStringE
libicui18n.so.67:_ZN6icu_6716SimpleDateFormat12isSyntaxCharEDs
libicui18n.so.67:_ZN6icu_6716SimpleDateFormat12parsePatternEv
libicui18n.so.67:_ZN6icu_6716SimpleDateFormat13adoptCalendarEPNS_8CalendarE
libicui18n.so.67:_ZN6icu_6716SimpleDateFormat13matchLiteralsERKNS_13UnicodeStringERiS3_S4_aaa
libicui18n.so.67:_ZN6icu_6716SimpleDateFormat16getLevelFromCharEDs
libicui18n.so.67:_ZN6icu_6716SimpleDateFormat16getStaticClassIDEv
libicui18n.so.67:_ZN6icu_6716SimpleDateFormat16isAtNumericFieldERKNS_13UnicodeStringEi
libicui18n.so.67:_ZN6icu_6716SimpleDateFormat16translatePatternERKNS_13UnicodeStringERS1_S3_S3_R10UErrorCode
libicui18n.so.67:_ZN6icu_6716SimpleDateFormat17adoptNumberFormatEPNS_12NumberFormatE
libicui18n.so.67:_ZN6icu_6716SimpleDateFormat17adoptNumberFormatERKNS_13UnicodeStringEPNS_12NumberFormatER10UErrorCode
libicui18n.so.67:_ZN6icu_6716SimpleDateFormat17setTimeZoneFormatERKNS_14TimeZoneFormatE
libicui18n.so.67:_ZN6icu_6716SimpleDateFormat18initializeCalendarEPNS_8TimeZoneERKNS_6LocaleER10UErrorCode
libicui18n.so.67:_ZN6icu_6716SimpleDateFormat18isFieldUnitIgnoredERKNS_13UnicodeStringE19UCalendarDateFields
libicui18n.so.67:_ZN6icu_6716SimpleDateFormat18set2DigitYearStartEdR10UErrorCode
libicui18n.so.67:_ZN6icu_6716SimpleDateFormat19adoptTimeZoneFormatEPNS_14TimeZoneFormatE
libicui18n.so.67:_ZN6icu_6716SimpleDateFormat20initNumberFormattersERKNS_6LocaleER10UErrorCode
libicui18n.so.67:_ZN6icu_6716SimpleDateFormat20setDateFormatSymbolsERKNS_17DateFormatSymbolsE
libicui18n.so.67:_ZN6icu_6716SimpleDateFormat21applyLocalizedPatternERKNS_13UnicodeStringER10UErrorCode
libicui18n.so.67:_ZN6icu_6716SimpleDateFormat21processOverrideStringERKNS_6LocaleERKNS_13UnicodeStringEaR10UErrorCode
libicui18n.so.67:_ZN6icu_6716SimpleDateFormat22adoptDateFormatSymbolsEPNS_17DateFormatSymbolsE
libicui18n.so.67:_ZN6icu_6716SimpleDateFormat22isAfterNonNumericFieldERKNS_13UnicodeStringEi
libicui18n.so.67:_ZN6icu_6716SimpleDateFormat24freeFastNumberFormattersEv
libicui18n.so.67:_ZN6icu_6716SimpleDateFormat24initFastNumberFormattersER10UErrorCode
libicui18n.so.67:_ZN6icu_6716SimpleDateFormat24initializeDefaultCenturyEv
libicui18n.so.67:_ZN6icu_6716SimpleDateFormat26parseAmbiguousDatesAsAfterEdR10UErrorCode
libicui18n.so.67:_ZN6icu_6716SimpleDateFormat27initializeBooleanAttributesEv
libicui18n.so.67:_ZN6icu_6716SimpleDateFormat9constructENS_10DateFormat6EStyleES2_RKNS_6LocaleER10UErrorCode
libicui18n.so.67:_ZN6icu_6716SimpleDateFormat9isNumericEDsi
libicui18n.so.67:_ZN6icu_6716SimpleDateFormatC1ENS_10DateFormat6EStyleES2_RKNS_6LocaleER10UErrorCode
libicui18n.so.67:_ZN6icu_6716SimpleDateFormatC1ER10UErrorCode
libicui18n.so.67:_ZN6icu_6716SimpleDateFormatC1ERKNS_13UnicodeStringEPNS_17DateFormatSymbolsER10UErrorCode
libicui18n.so.67:_ZN6icu_6716SimpleDateFormatC1ERKNS_13UnicodeStringER10UErrorCode
libicui18n.so.67:_ZN6icu_6716SimpleDateFormatC1ERKNS_13UnicodeStringERKNS_17DateFormatSymbolsER10UErrorCode
libicui18n.so.67:_ZN6icu_6716SimpleDateFormatC1ERKNS_13UnicodeStringERKNS_6LocaleER10UErrorCode
libicui18n.so.67:_ZN6icu_6716SimpleDateFormatC1ERKNS_13UnicodeStringES3_R10UErrorCode
libicui18n.so.67:_ZN6icu_6716SimpleDateFormatC1ERKNS_13UnicodeStringES3_RKNS_6LocaleER10UErrorCode
libicui18n.so.67:_ZN6icu_6716SimpleDateFormatC1ERKNS_6LocaleER10UErrorCode
libicui18n.so.67:_ZN6icu_6716SimpleDateFormatC1ERKS0_
libicui18n.so.67:_ZN6icu_6716SimpleDateFormatC2ENS_10DateFormat6EStyleES2_RKNS_6LocaleER10UErrorCode
libicui18n.so.67:_ZN6icu_6716SimpleDateFormatC2ER10UErrorCode
libicui18n.so.67:_ZN6icu_6716SimpleDateFormatC2ERKNS_13UnicodeStringEPNS_17DateFormatSymbolsER10UErrorCode
libicui18n.so.67:_ZN6icu_6716SimpleDateFormatC2ERKNS_13UnicodeStringER10UErrorCode
libicui18n.so.67:_ZN6icu_6716SimpleDateFormatC2ERKNS_13UnicodeStringERKNS_17DateFormatSymbolsER10UErrorCode
libicui18n.so.67:_ZN6icu_6716SimpleDateFormatC2ERKNS_13UnicodeStringERKNS_6LocaleER10UErrorCode
libicui18n.so.67:_ZN6icu_6716SimpleDateFormatC2ERKNS_13UnicodeStringES3_R10UErrorCode
libicui18n.so.67:_ZN6icu_6716SimpleDateFormatC2ERKNS_13UnicodeStringES3_RKNS_6LocaleER10UErrorCode
libicui18n.so.67:_ZN6icu_6716SimpleDateFormatC2ERKNS_6LocaleER10UErrorCode
libicui18n.so.67:_ZN6icu_6716SimpleDateFormatC2ERKS0_
libicui18n.so.67:_ZN6icu_6716SimpleDateFormatD0Ev
libicui18n.so.67:_ZN6icu_6716SimpleDateFormatD1Ev
libicui18n.so.67:_ZN6icu_6716SimpleDateFormatD2Ev
libicui18n.so.67:_ZN6icu_6716SimpleDateFormataSERKS0_
libicui18n.so.67:_ZN6icu_6716SunTimeAngleFuncD0Ev
libicui18n.so.67:_ZN6icu_6716SunTimeAngleFuncD1Ev
libicui18n.so.67:_ZN6icu_6716SunTimeAngleFuncD2Ev
libicui18n.so.67:_ZN6icu_6717AnyTransliterator11registerIDsEv
libicui18n.so.67:_ZN6icu_6717AnyTransliterator16getStaticClassIDEv
libicui18n.so.67:_ZN6icu_6717AnyTransliteratorC1ERKNS_13UnicodeStringES3_S3_11UScriptCodeR10UErrorCode
libicui18n.so.67:_ZN6icu_6717AnyTransliteratorC1ERKS0_
libicui18n.so.67:_ZN6icu_6717AnyTransliteratorC2ERKNS_13UnicodeStringES3_S3_11UScriptCodeR10UErrorCode
libicui18n.so.67:_ZN6icu_6717AnyTransliteratorC2ERKS0_
libicui18n.so.67:_ZN6icu_6717AnyTransliteratorD0Ev
libicui18n.so.67:_ZN6icu_6717AnyTransliteratorD1Ev
libicui18n.so.67:_ZN6icu_6717AnyTransliteratorD2Ev
libicui18n.so.67:_ZN6icu_6717CharsetRecog_2022D0Ev
libicui18n.so.67:_ZN6icu_6717CharsetRecog_2022D1Ev
libicui18n.so.67:_ZN6icu_6717CharsetRecog_2022D2Ev
libicui18n.so.67:_ZN6icu_6717CharsetRecog_UTF8D0Ev
libicui18n.so.67:_ZN6icu_6717CharsetRecog_UTF8D1Ev
libicui18n.so.67:_ZN6icu_6717CharsetRecog_UTF8D2Ev
libicui18n.so.67:_ZN6icu_6717CharsetRecog_big5D0Ev
libicui18n.so.67:_ZN6icu_6717CharsetRecog_big5D1Ev
libicui18n.so.67:_ZN6icu_6717CharsetRecog_big5D2Ev
libicui18n.so.67:_ZN6icu_6717CharsetRecog_mbcsD0Ev
libicui18n.so.67:_ZN6icu_6717CharsetRecog_mbcsD1Ev
libicui18n.so.67:_ZN6icu_6717CharsetRecog_mbcsD2Ev
libicui18n.so.67:_ZN6icu_6717CharsetRecog_sbcsC1Ev
libicui18n.so.67:_ZN6icu_6717CharsetRecog_sbcsC2Ev
libicui18n.so.67:_ZN6icu_6717CharsetRecog_sbcsD0Ev
libicui18n.so.67:_ZN6icu_6717CharsetRecog_sbcsD1Ev
libicui18n.so.67:_ZN6icu_6717CharsetRecog_sbcsD2Ev
libicui18n.so.67:_ZN6icu_6717CharsetRecog_sjisD0Ev
libicui18n.so.67:_ZN6icu_6717CharsetRecog_sjisD1Ev
libicui18n.so.67:_ZN6icu_6717CharsetRecog_sjisD2Ev
libicui18n.so.67:_ZN6icu_6717CharsetRecognizerD0Ev
libicui18n.so.67:_ZN6icu_6717CharsetRecognizerD1Ev
libicui18n.so.67:_ZN6icu_6717CharsetRecognizerD2Ev
libicui18n.so.67:_ZN6icu_6717CollationIterator10previousCEERNS_9UVector32ER10UErrorCode
libicui18n.so.67:_ZN6icu_6717CollationIterator14handleNextCE32ERiR10UErrorCode
libicui18n.so.67:_ZN6icu_6717CollationIterator14nextCEFromCE32EPKNS_13CollationDataEijR10UErrorCode
libicui18n.so.67:_ZN6icu_6717CollationIterator16appendNumericCEsEjaR10UErrorCode
libicui18n.so.67:_ZN6icu_6717CollationIterator16previousCEUnsafeEiRNS_9UVector32ER10UErrorCode
libicui18n.so.67:_ZN6icu_6717CollationIterator17appendCEsFromCE32EPKNS_13CollationDataEijaR10UErrorCode
libicui18n.so.67:_ZN6icu_6717CollationIterator17getCE32FromPrefixEPKNS_13CollationDataEjR10UErrorCode
libicui18n.so.67:_ZN6icu_6717CollationIterator18backwardNumSkippedEiR10UErrorCode
libicui18n.so.67:_ZN6icu_6717CollationIterator18foundNULTerminatorEv
libicui18n.so.67:_ZN6icu_6717CollationIterator20nextSkippedCodePointER10UErrorCode
libicui18n.so.67:_ZN6icu_6717CollationIterator22getCE32FromBuilderDataEjR10UErrorCode
libicui18n.so.67:_ZN6icu_6717CollationIterator23appendNumericSegmentCEsEPKciR10UErrorCode
libicui18n.so.67:_ZN6icu_6717CollationIterator23handleGetTrailSurrogateEv
libicui18n.so.67:_ZN6icu_6717CollationIterator23nextCE32FromContractionEPKNS_13CollationDataEjPKDsjiR10UErrorCode
libicui18n.so.67:_ZN6icu_6717CollationIterator36nextCE32FromDiscontiguousContractionEPKNS_13CollationDataERNS_10UCharsTrieEjiiR10UErrorCode
libicui18n.so.67:_ZN6icu_6717CollationIterator5resetEv
libicui18n.so.67:_ZN6icu_6717CollationIterator8CEBuffer20ensureAppendCapacityEiR10UErrorCode
libicui18n.so.67:_ZN6icu_6717CollationIterator8CEBufferD1Ev
libicui18n.so.67:_ZN6icu_6717CollationIterator8CEBufferD2Ev
libicui18n.so.67:_ZN6icu_6717CollationIterator8fetchCEsER10UErrorCode
libicui18n.so.67:_ZN6icu_6717CollationIteratorC1ERKS0_
libicui18n.so.67:_ZN6icu_6717CollationIteratorC2ERKS0_
libicui18n.so.67:_ZN6icu_6717CollationIteratorD0Ev
libicui18n.so.67:_ZN6icu_6717CollationIteratorD1Ev
libicui18n.so.67:_ZN6icu_6717CollationIteratorD2Ev
libicui18n.so.67:_ZN6icu_6717CollationSettings11setStrengthEiiR10UErrorCode
libicui18n.so.67:_ZN6icu_6717CollationSettings12setCaseFirstE18UColAttributeValueiR10UErrorCode
libicui18n.so.67:_ZN6icu_6717CollationSettings13setReorderingERKNS_13CollationDataEPKiiR10UErrorCode
libicui18n.so.67:_ZN6icu_6717CollationSettings14setMaxVariableEiiR10UErrorCode
libicui18n.so.67:_ZN6icu_6717CollationSettings15aliasReorderingERKNS_13CollationDataEPKiiPKjiPKhR10UErrorCode
libicui18n.so.67:_ZN6icu_6717CollationSettings15resetReorderingEv
libicui18n.so.67:_ZN6icu_6717CollationSettings16setReorderArraysEPKiiPKjiPKhR10UErrorCode
libicui18n.so.67:_ZN6icu_6717CollationSettings18copyReorderingFromERKS0_R10UErrorCode
libicui18n.so.67:_ZN6icu_6717CollationSettings20setAlternateHandlingE18UColAttributeValueiR10UErrorCode
libicui18n.so.67:_ZN6icu_6717CollationSettings25reorderTableHasSplitBytesEPKh
libicui18n.so.67:_ZN6icu_6717CollationSettings7setFlagEi18UColAttributeValueiR10UErrorCode
libicui18n.so.67:_ZN6icu_6717CollationSettingsC1ERKS0_
libicui18n.so.67:_ZN6icu_6717CollationSettingsC2ERKS0_
libicui18n.so.67:_ZN6icu_6717CollationSettingsD0Ev
libicui18n.so.67:_ZN6icu_6717CollationSettingsD1Ev
libicui18n.so.67:_ZN6icu_6717CollationSettingsD2Ev
libicui18n.so.67:_ZN6icu_6717DateFormatSymbols11assignArrayERPNS_13UnicodeStringERiPKS1_i
libicui18n.so.67:_ZN6icu_6717DateFormatSymbols11setEraNamesEPKNS_13UnicodeStringEi
libicui18n.so.67:_ZN6icu_6717DateFormatSymbols11setQuartersEPKNS_13UnicodeStringEiNS0_13DtContextTypeENS0_11DtWidthTypeE
libicui18n.so.67:_ZN6icu_6717DateFormatSymbols11setWeekdaysEPKNS_13UnicodeStringEi
libicui18n.so.67:_ZN6icu_6717DateFormatSymbols11setWeekdaysEPKNS_13UnicodeStringEiNS0_13DtContextTypeENS0_11DtWidthTypeE
libicui18n.so.67:_ZN6icu_6717DateFormatSymbols12arrayCompareEPKNS_13UnicodeStringES3_i
libicui18n.so.67:_ZN6icu_6717DateFormatSymbols12setYearNamesEPKNS_13UnicodeStringEiNS0_13DtContextTypeENS0_11DtWidthTypeE
libicui18n.so.67:_ZN6icu_6717DateFormatSymbols13setNarrowErasEPKNS_13UnicodeStringEi
libicui18n.so.67:_ZN6icu_6717DateFormatSymbols14initializeDataERKNS_6LocaleEPKcR10UErrorCodea
libicui18n.so.67:_ZN6icu_6717DateFormatSymbols14isNumericFieldE16UDateFormatFieldi
libicui18n.so.67:_ZN6icu_6717DateFormatSymbols14setAmPmStringsEPKNS_13UnicodeStringEi
libicui18n.so.67:_ZN6icu_6717DateFormatSymbols14setShortMonthsEPKNS_13UnicodeStringEi
libicui18n.so.67:_ZN6icu_6717DateFormatSymbols14setZodiacNamesEPKNS_13UnicodeStringEiNS0_13DtContextTypeENS0_11DtWidthTypeE
libicui18n.so.67:_ZN6icu_6717DateFormatSymbols14setZoneStringsEPKPKNS_13UnicodeStringEii
libicui18n.so.67:_ZN6icu_6717DateFormatSymbols15createForLocaleERKNS_6LocaleER10UErrorCode
libicui18n.so.67:_ZN6icu_6717DateFormatSymbols16getPatternUCharsEv
libicui18n.so.67:_ZN6icu_6717DateFormatSymbols16getStaticClassIDEv
libicui18n.so.67:_ZN6icu_6717DateFormatSymbols16setShortWeekdaysEPKNS_13UnicodeStringEi
libicui18n.so.67:_ZN6icu_6717DateFormatSymbols17createZoneStringsEPKPKNS_13UnicodeStringE
libicui18n.so.67:_ZN6icu_6717DateFormatSymbols18disposeZoneStringsEv
libicui18n.so.67:_ZN6icu_6717DateFormatSymbols19getPatternCharIndexEDs
libicui18n.so.67:_ZN6icu_6717DateFormatSymbols20initZoneStringsArrayEv
libicui18n.so.67:_ZN6icu_6717DateFormatSymbols20isNumericPatternCharEDsi
libicui18n.so.67:_ZN6icu_6717DateFormatSymbols20setLocalPatternCharsERKNS_13UnicodeStringE
libicui18n.so.67:_ZN6icu_6717DateFormatSymbols22setTimeSeparatorStringERKNS_13UnicodeStringE
libicui18n.so.67:_ZN6icu_6717DateFormatSymbols7disposeEv
libicui18n.so.67:_ZN6icu_6717DateFormatSymbols7setErasEPKNS_13UnicodeStringEi
libicui18n.so.67:_ZN6icu_6717DateFormatSymbols8copyDataERKS0_
libicui18n.so.67:_ZN6icu_6717DateFormatSymbols9setMonthsEPKNS_13UnicodeStringEi
libicui18n.so.67:_ZN6icu_6717DateFormatSymbols9setMonthsEPKNS_13UnicodeStringEiNS0_13DtContextTypeENS0_11DtWidthTypeE
libicui18n.so.67:_ZN6icu_6717DateFormatSymbolsC1EPKcR10UErrorCode
libicui18n.so.67:_ZN6icu_6717DateFormatSymbolsC1ER10UErrorCode
libicui18n.so.67:_ZN6icu_6717DateFormatSymbolsC1ERKNS_6LocaleEPKcR10UErrorCode
libicui18n.so.67:_ZN6icu_6717DateFormatSymbolsC1ERKNS_6LocaleER10UErrorCode
libicui18n.so.67:_ZN6icu_6717DateFormatSymbolsC1ERKS0_
libicui18n.so.67:_ZN6icu_6717DateFormatSymbolsD0Ev
libicui18n.so.67:_ZN6icu_6717DateFormatSymbolsD1Ev
libicui18n.so.67:_ZN6icu_6717DateFormatSymbolsaSERKS0_
libicui18n.so.67:_ZN6icu_6717FormattedListDataD0Ev
libicui18n.so.67:_ZN6icu_6717FormattedListDataD1Ev
libicui18n.so.67:_ZN6icu_6717FormattedListDataD2Ev
libicui18n.so.67:_ZN6icu_6717GregorianCalendar11getEpochDayER10UErrorCode
libicui18n.so.67:_ZN6icu_6717GregorianCalendar13pinDayOfMonthEv
libicui18n.so.67:_ZN6icu_6717GregorianCalendar14aggregateStampEii
libicui18n.so.67:_ZN6icu_6717GregorianCalendar16getStaticClassIDEv
libicui18n.so.67:_ZN6icu_6717GregorianCalendar17julianDayToMillisEd
libicui18n.so.67:_ZN6icu_6717GregorianCalendar17millisToJulianDayEd
libicui18n.so.67:_ZN6icu_6717GregorianCalendar18setGregorianChangeEdR10UErrorCode
libicui18n.so.67:_ZN6icu_6717GregorianCalendar19handleComputeFieldsEiR10UErrorCode
libicui18n.so.67:_ZN6icu_6717GregorianCalendar21handleGetExtendedYearEv
libicui18n.so.67:_ZN6icu_6717GregorianCalendar22computeJulianDayOfYearEaiRa
libicui18n.so.67:_ZN6icu_6717GregorianCalendar22handleComputeJulianDayE19UCalendarDateFields
libicui18n.so.67:_ZN6icu_6717GregorianCalendar35handleGetExtendedYearFromWeekFieldsEii
libicui18n.so.67:_ZN6icu_6717GregorianCalendar4rollE19UCalendarDateFieldsiR10UErrorCode
libicui18n.so.67:_ZN6icu_6717GregorianCalendar4rollENS_8Calendar11EDateFieldsEiR10UErrorCode
libicui18n.so.67:_ZN6icu_6717GregorianCalendarC1EPNS_8TimeZoneER10UErrorCode
libicui18n.so.67:_ZN6icu_6717GregorianCalendarC1EPNS_8TimeZoneERKNS_6LocaleER10UErrorCode
libicui18n.so.67:_ZN6icu_6717GregorianCalendarC1ER10UErrorCode
libicui18n.so.67:_ZN6icu_6717GregorianCalendarC1ERKNS_6LocaleER10UErrorCode
libicui18n.so.67:_ZN6icu_6717GregorianCalendarC1ERKNS_8TimeZoneER10UErrorCode
libicui18n.so.67:_ZN6icu_6717GregorianCalendarC1ERKNS_8TimeZoneERKNS_6LocaleER10UErrorCode
libicui18n.so.67:_ZN6icu_6717GregorianCalendarC1ERKS0_
libicui18n.so.67:_ZN6icu_6717GregorianCalendarC1EiiiR10UErrorCode
libicui18n.so.67:_ZN6icu_6717GregorianCalendarC1EiiiiiR10UErrorCode
libicui18n.so.67:_ZN6icu_6717GregorianCalendarC1EiiiiiiR10UErrorCode
libicui18n.so.67:_ZN6icu_6717GregorianCalendarC2EPNS_8TimeZoneER10UErrorCode
libicui18n.so.67:_ZN6icu_6717GregorianCalendarC2EPNS_8TimeZoneERKNS_6LocaleER10UErrorCode
libicui18n.so.67:_ZN6icu_6717GregorianCalendarC2ER10UErrorCode
libicui18n.so.67:_ZN6icu_6717GregorianCalendarC2ERKNS_6LocaleER10UErrorCode
libicui18n.so.67:_ZN6icu_6717GregorianCalendarC2ERKNS_8TimeZoneER10UErrorCode
libicui18n.so.67:_ZN6icu_6717GregorianCalendarC2ERKNS_8TimeZoneERKNS_6LocaleER10UErrorCode
libicui18n.so.67:_ZN6icu_6717GregorianCalendarC2ERKS0_
libicui18n.so.67:_ZN6icu_6717GregorianCalendarC2EiiiR10UErrorCode
libicui18n.so.67:_ZN6icu_6717GregorianCalendarC2EiiiiiR10UErrorCode
libicui18n.so.67:_ZN6icu_6717GregorianCalendarC2EiiiiiiR10UErrorCode
libicui18n.so.67:_ZN6icu_6717GregorianCalendarD0Ev
libicui18n.so.67:_ZN6icu_6717GregorianCalendarD1Ev
libicui18n.so.67:_ZN6icu_6717GregorianCalendarD2Ev
libicui18n.so.67:_ZN6icu_6717GregorianCalendaraSERKS0_
libicui18n.so.67:_ZN6icu_6717MoonTimeAngleFuncD0Ev
libicui18n.so.67:_ZN6icu_6717MoonTimeAngleFuncD1Ev
libicui18n.so.67:_ZN6icu_6717MoonTimeAngleFuncD2Ev
libicui18n.so.67:_ZN6icu_6717QuantityFormatter11addIfAbsentEPKcRKNS_13UnicodeStringER10UErrorCode
libicui18n.so.67:_ZN6icu_6717QuantityFormatter12selectPluralERKNS_11FormattableERKNS_12NumberFormatERKNS_11PluralRulesERNS_13UnicodeStringERNS_13FieldPositionER10UErrorCode
libicui18n.so.67:_ZN6icu_6717QuantityFormatter15formatAndSelectEdRKNS_12NumberFormatERKNS_11PluralRulesERNS_22FormattedStringBuilderERNS_14StandardPlural4FormER10UErrorCode
libicui18n.so.67:_ZN6icu_6717QuantityFormatter5resetEv
libicui18n.so.67:_ZN6icu_6717QuantityFormatter6formatERKNS_15SimpleFormatterERKNS_13UnicodeStringERS4_RNS_13FieldPositionER10UErrorCode
libicui18n.so.67:_ZN6icu_6717QuantityFormatterC1ERKS0_
libicui18n.so.67:_ZN6icu_6717QuantityFormatterC1Ev
libicui18n.so.67:_ZN6icu_6717QuantityFormatterC2ERKS0_
libicui18n.so.67:_ZN6icu_6717QuantityFormatterC2Ev
libicui18n.so.67:_ZN6icu_6717QuantityFormatterD1Ev
libicui18n.so.67:_ZN6icu_6717QuantityFormatterD2Ev
libicui18n.so.67:_ZN6icu_6717QuantityFormatteraSERKS0_
libicui18n.so.67:_ZN6icu_6717RegularExpressionC1Ev
libicui18n.so.67:_ZN6icu_6717RegularExpressionC2Ev
libicui18n.so.67:_ZN6icu_6717RegularExpressionD1Ev
libicui18n.so.67:_ZN6icu_6717RegularExpressionD2Ev
libicui18n.so.67:_ZN6icu_6717RuleBasedCollator10setLocalesERKNS_6LocaleES3_S3_
libicui18n.so.67:_ZN6icu_6717RuleBasedCollator12setAttributeE13UColAttribute18UColAttributeValueR10UErrorCode
libicui18n.so.67:_ZN6icu_6717RuleBasedCollator14adoptTailoringEPNS_18CollationTailoringER10UErrorCode
libicui18n.so.67:_ZN6icu_6717RuleBasedCollator14setMaxVariableE15UColReorderCodeR10UErrorCode
libicui18n.so.67:_ZN6icu_6717RuleBasedCollator14setVariableTopEPKDsiR10UErrorCode
libicui18n.so.67:_ZN6icu_6717RuleBasedCollator14setVariableTopERKNS_13UnicodeStringER10UErrorCode
libicui18n.so.67:_ZN6icu_6717RuleBasedCollator14setVariableTopEjR10UErrorCode
libicui18n.so.67:_ZN6icu_6717RuleBasedCollator15setReorderCodesEPKiiR10UErrorCode
libicui18n.so.67:_ZN6icu_6717RuleBasedCollator16getStaticClassIDEv
libicui18n.so.67:_ZN6icu_6717RuleBasedCollator20computeMaxExpansionsEPKNS_18CollationTailoringER10UErrorCode
libicui18n.so.67:_ZN6icu_6717RuleBasedCollator22internalBuildTailoringERKNS_13UnicodeStringEi18UColAttributeValueP11UParseErrorPS1_R10UErrorCode
libicui18n.so.67:_ZN6icu_6717RuleBasedCollatorC1EPKNS_19CollationCacheEntryE
libicui18n.so.67:_ZN6icu_6717RuleBasedCollatorC1EPKhiPKS0_R10UErrorCode
libicui18n.so.67:_ZN6icu_6717RuleBasedCollatorC1ERKNS_13UnicodeStringE18UColAttributeValueR10UErrorCode
libicui18n.so.67:_ZN6icu_6717RuleBasedCollatorC1ERKNS_13UnicodeStringENS_8Collator18ECollationStrengthE18UColAttributeValueR10UErrorCode
libicui18n.so.67:_ZN6icu_6717RuleBasedCollatorC1ERKNS_13UnicodeStringENS_8Collator18ECollationStrengthER10UErrorCode
libicui18n.so.67:_ZN6icu_6717RuleBasedCollatorC1ERKNS_13UnicodeStringER10UErrorCode
libicui18n.so.67:_ZN6icu_6717RuleBasedCollatorC1ERKNS_13UnicodeStringER11UParseErrorRS1_R10UErrorCode
libicui18n.so.67:_ZN6icu_6717RuleBasedCollatorC1ERKS0_
libicui18n.so.67:_ZN6icu_6717RuleBasedCollatorC1Ev
libicui18n.so.67:_ZN6icu_6717RuleBasedCollatorC2EPKNS_19CollationCacheEntryE
libicui18n.so.67:_ZN6icu_6717RuleBasedCollatorC2EPKhiPKS0_R10UErrorCode
libicui18n.so.67:_ZN6icu_6717RuleBasedCollatorC2ERKNS_13UnicodeStringE18UColAttributeValueR10UErrorCode
libicui18n.so.67:_ZN6icu_6717RuleBasedCollatorC2ERKNS_13UnicodeStringENS_8Collator18ECollationStrengthE18UColAttributeValueR10UErrorCode
libicui18n.so.67:_ZN6icu_6717RuleBasedCollatorC2ERKNS_13UnicodeStringENS_8Collator18ECollationStrengthER10UErrorCode
libicui18n.so.67:_ZN6icu_6717RuleBasedCollatorC2ERKNS_13UnicodeStringER10UErrorCode
libicui18n.so.67:_ZN6icu_6717RuleBasedCollatorC2ERKNS_13UnicodeStringER11UParseErrorRS1_R10UErrorCode
libicui18n.so.67:_ZN6icu_6717RuleBasedCollatorC2ERKS0_
libicui18n.so.67:_ZN6icu_6717RuleBasedCollatorC2Ev
libicui18n.so.67:_ZN6icu_6717RuleBasedCollatorD0Ev
libicui18n.so.67:_ZN6icu_6717RuleBasedCollatorD1Ev
libicui18n.so.67:_ZN6icu_6717RuleBasedCollatorD2Ev
libicui18n.so.67:_ZN6icu_6717RuleBasedCollatoraSERKS0_
libicui18n.so.67:_ZN6icu_6717RuleBasedTimeZone11deleteRulesEv
libicui18n.so.67:_ZN6icu_6717RuleBasedTimeZone12setRawOffsetEi
libicui18n.so.67:_ZN6icu_6717RuleBasedTimeZone16getStaticClassIDEv
libicui18n.so.67:_ZN6icu_6717RuleBasedTimeZone17addTransitionRuleEPNS_12TimeZoneRuleER10UErrorCode
libicui18n.so.67:_ZN6icu_6717RuleBasedTimeZone17deleteTransitionsEv
libicui18n.so.67:_ZN6icu_6717RuleBasedTimeZone8completeER10UErrorCode
libicui18n.so.67:_ZN6icu_6717RuleBasedTimeZone9copyRulesEPNS_7UVectorE
libicui18n.so.67:_ZN6icu_6717RuleBasedTimeZoneC1ERKNS_13UnicodeStringEPNS_19InitialTimeZoneRuleE
libicui18n.so.67:_ZN6icu_6717RuleBasedTimeZoneC1ERKS0_
libicui18n.so.67:_ZN6icu_6717RuleBasedTimeZoneC2ERKNS_13UnicodeStringEPNS_19InitialTimeZoneRuleE
libicui18n.so.67:_ZN6icu_6717RuleBasedTimeZoneC2ERKS0_
libicui18n.so.67:_ZN6icu_6717RuleBasedTimeZoneD0Ev
libicui18n.so.67:_ZN6icu_6717RuleBasedTimeZoneD1Ev
libicui18n.so.67:_ZN6icu_6717RuleBasedTimeZoneD2Ev
libicui18n.so.67:_ZN6icu_6717RuleBasedTimeZoneaSERKS0_
libicui18n.so.67:_ZN6icu_6717ScriptRunIterator11adjustLimitEi
libicui18n.so.67:_ZN6icu_6717ScriptRunIterator4nextEv
libicui18n.so.67:_ZN6icu_6717ScriptRunIteratorC1ERKNS_11ReplaceableEii
libicui18n.so.67:_ZN6icu_6717ScriptRunIteratorC2ERKNS_11ReplaceableEii
libicui18n.so.67:_ZN6icu_6717SharedPluralRulesD0Ev
libicui18n.so.67:_ZN6icu_6717SharedPluralRulesD1Ev
libicui18n.so.67:_ZN6icu_6717SharedPluralRulesD2Ev
libicui18n.so.67:_ZN6icu_6717TZDBTimeZoneNames16getMetaZoneNamesERKNS_13UnicodeStringER10UErrorCode
libicui18n.so.67:_ZN6icu_6717TZDBTimeZoneNamesC1ERKNS_6LocaleE
libicui18n.so.67:_ZN6icu_6717TZDBTimeZoneNamesC2ERKNS_6LocaleE
libicui18n.so.67:_ZN6icu_6717TZDBTimeZoneNamesD0Ev
libicui18n.so.67:_ZN6icu_6717TZDBTimeZoneNamesD1Ev
libicui18n.so.67:_ZN6icu_6717TZDBTimeZoneNamesD2Ev
libicui18n.so.67:_ZN6icu_6717TimeZoneNamesImpl10initializeERKNS_6LocaleER10UErrorCode
libicui18n.so.67:_ZN6icu_6717TimeZoneNamesImpl11loadStringsERKNS_13UnicodeStringER10UErrorCode
libicui18n.so.67:_ZN6icu_6717TimeZoneNamesImpl14_getMetaZoneIDERKNS_13UnicodeStringEdRS1_
libicui18n.so.67:_ZN6icu_6717TimeZoneNamesImpl17ZoneStringsLoaderD0Ev
libicui18n.so.67:_ZN6icu_6717TimeZoneNamesImpl17ZoneStringsLoaderD1Ev
libicui18n.so.67:_ZN6icu_6717TimeZoneNamesImpl17ZoneStringsLoaderD2Ev
libicui18n.so.67:_ZN6icu_6717TimeZoneNamesImpl17loadMetaZoneNamesERKNS_13UnicodeStringER10UErrorCode
libicui18n.so.67:_ZN6icu_6717TimeZoneNamesImpl17loadTimeZoneNamesERKNS_13UnicodeStringER10UErrorCode
libicui18n.so.67:_ZN6icu_6717TimeZoneNamesImpl19_getReferenceZoneIDERKNS_13UnicodeStringEPKcRS1_
libicui18n.so.67:_ZN6icu_6717TimeZoneNamesImpl19addAllNamesIntoTrieER10UErrorCode
libicui18n.so.67:_ZN6icu_6717TimeZoneNamesImpl19loadAllDisplayNamesER10UErrorCode
libicui18n.so.67:_ZN6icu_6717TimeZoneNamesImpl24_getAvailableMetaZoneIDsER10UErrorCode
libicui18n.so.67:_ZN6icu_6717TimeZoneNamesImpl24_getAvailableMetaZoneIDsERKNS_13UnicodeStringER10UErrorCode
libicui18n.so.67:_ZN6icu_6717TimeZoneNamesImpl27internalLoadAllDisplayNamesER10UErrorCode
libicui18n.so.67:_ZN6icu_6717TimeZoneNamesImpl30getDefaultExemplarLocationNameERKNS_13UnicodeStringERS1_
libicui18n.so.67:_ZN6icu_6717TimeZoneNamesImpl7cleanupEv
libicui18n.so.67:_ZN6icu_6717TimeZoneNamesImplC1ERKNS_6LocaleER10UErrorCode
libicui18n.so.67:_ZN6icu_6717TimeZoneNamesImplC2ERKNS_6LocaleER10UErrorCode
libicui18n.so.67:_ZN6icu_6717TimeZoneNamesImplD0Ev
libicui18n.so.67:_ZN6icu_6717TimeZoneNamesImplD1Ev
libicui18n.so.67:_ZN6icu_6717TimeZoneNamesImplD2Ev
libicui18n.so.67:_ZN6icu_6717ZNStringPoolChunkC1Ev
libicui18n.so.67:_ZN6icu_6717ZNStringPoolChunkC2Ev
libicui18n.so.67:_ZN6icu_6717double_conversion10BignumDtoaEdNS0_14BignumDtoaModeEiNS0_6VectorIcEEPiS4_
libicui18n.so.67:_ZN6icu_6717double_conversion13StrtodTrimmedENS0_6VectorIKcEEi
libicui18n.so.67:_ZN6icu_6717double_conversion16PowersOfTenCache32GetCachedPowerForDecimalExponentEiPNS0_5DiyFpEPi
libicui18n.so.67:_ZN6icu_6717double_conversion16PowersOfTenCache36GetCachedPowerForBinaryExponentRangeEiiPNS0_5DiyFpEPi
libicui18n.so.67:_ZN6icu_6717double_conversion23DoubleToStringConverter13DoubleToAsciiEdNS1_8DtoaModeEiPciPbPiS5_
libicui18n.so.67:_ZN6icu_6717double_conversion6Bignum11PlusCompareERKS1_S3_S3_
libicui18n.so.67:_ZN6icu_6717double_conversion6Bignum12AssignBignumERKS1_
libicui18n.so.67:_ZN6icu_6717double_conversion6Bignum12AssignUInt16Et
libicui18n.so.67:_ZN6icu_6717double_conversion6Bignum12AssignUInt64Em
libicui18n.so.67:_ZN6icu_6717double_conversion6Bignum13SubtractTimesERKS1_i
libicui18n.so.67:_ZN6icu_6717double_conversion6Bignum14SubtractBignumERKS1_
libicui18n.so.67:_ZN6icu_6717double_conversion6Bignum15AssignHexStringENS0_6VectorIKcEE
libicui18n.so.67:_ZN6icu_6717double_conversion6Bignum15BigitsShiftLeftEi
libicui18n.so.67:_ZN6icu_6717double_conversion6Bignum16MultiplyByUInt32Ej
libicui18n.so.67:_ZN6icu_6717double_conversion6Bignum16MultiplyByUInt64Em
libicui18n.so.67:_ZN6icu_6717double_conversion6Bignum17AssignPowerUInt16Eti
libicui18n.so.67:_ZN6icu_6717double_conversion6Bignum19AssignDecimalStringENS0_6VectorIKcEE
libicui18n.so.67:_ZN6icu_6717double_conversion6Bignum20MultiplyByPowerOfTenEi
libicui18n.so.67:_ZN6icu_6717double_conversion6Bignum21DivideModuloIntBignumERKS1_
libicui18n.so.67:_ZN6icu_6717double_conversion6Bignum5AlignERKS1_
libicui18n.so.67:_ZN6icu_6717double_conversion6Bignum5ClampEv
libicui18n.so.67:_ZN6icu_6717double_conversion6Bignum6SquareEv
libicui18n.so.67:_ZN6icu_6717double_conversion6Bignum7CompareERKS1_S3_
libicui18n.so.67:_ZN6icu_6717double_conversion6Bignum8RawBigitEi
libicui18n.so.67:_ZN6icu_6717double_conversion6Bignum9AddBignumERKS1_
libicui18n.so.67:_ZN6icu_6717double_conversion6Bignum9AddUInt64Em
libicui18n.so.67:_ZN6icu_6717double_conversion6Bignum9ShiftLeftEi
libicui18n.so.67:_ZN6icu_6717double_conversion6StrtodENS0_6VectorIKcEEi
libicui18n.so.67:_ZN6icu_6717double_conversion6StrtofENS0_6VectorIKcEEi
libicui18n.so.67:_ZN6icu_6717double_conversion8FastDtoaEdNS0_12FastDtoaModeEiNS0_6VectorIcEEPiS4_
libicui18n.so.67:_ZN6icu_6717util64_fromDoubleEd
libicui18n.so.67:_ZN6icu_6718AnnualTimeZoneRule16getStaticClassIDEv
libicui18n.so.67:_ZN6icu_6718AnnualTimeZoneRuleC1ERKNS_13UnicodeStringEiiPNS_12DateTimeRuleEii
libicui18n.so.67:_ZN6icu_6718AnnualTimeZoneRuleC1ERKNS_13UnicodeStringEiiRKNS_12DateTimeRuleEii
libicui18n.so.67:_ZN6icu_6718AnnualTimeZoneRuleC1ERKS0_
libicui18n.so.67:_ZN6icu_6718AnnualTimeZoneRuleC2ERKNS_13UnicodeStringEiiPNS_12DateTimeRuleEii
libicui18n.so.67:_ZN6icu_6718AnnualTimeZoneRuleC2ERKNS_13UnicodeStringEiiRKNS_12DateTimeRuleEii
libicui18n.so.67:_ZN6icu_6718AnnualTimeZoneRuleC2ERKS0_
libicui18n.so.67:_ZN6icu_6718AnnualTimeZoneRuleD0Ev
libicui18n.so.67:_ZN6icu_6718AnnualTimeZoneRuleD1Ev
libicui18n.so.67:_ZN6icu_6718AnnualTimeZoneRuleD2Ev
libicui18n.so.67:_ZN6icu_6718AnnualTimeZoneRuleaSERKS0_
libicui18n.so.67:_ZN6icu_6718CalendarAstronomer10clearCacheEv
libicui18n.so.67:_ZN6icu_6718CalendarAstronomer10getMoonAgeEv
libicui18n.so.67:_ZN6icu_6718CalendarAstronomer10getSunTimeEda
libicui18n.so.67:_ZN6icu_6718CalendarAstronomer11getMoonTimeERKNS0_7MoonAgeEa
libicui18n.so.67:_ZN6icu_6718CalendarAstronomer11getMoonTimeEda
libicui18n.so.67:_ZN6icu_6718CalendarAstronomer11timeOfAngleERNS0_9AngleFuncEddda
libicui18n.so.67:_ZN6icu_6718CalendarAstronomer12getJulianDayEv
libicui18n.so.67:_ZN6icu_6718CalendarAstronomer12getMoonPhaseEv
libicui18n.so.67:_ZN6icu_6718CalendarAstronomer12setJulianDayEd
libicui18n.so.67:_ZN6icu_6718CalendarAstronomer13getSunRiseSetEa
libicui18n.so.67:_ZN6icu_6718CalendarAstronomer14getMoonRiseSetEa
libicui18n.so.67:_ZN6icu_6718CalendarAstronomer14getSunPositionERNS0_10EquatorialE
libicui18n.so.67:_ZN6icu_6718CalendarAstronomer15SUMMER_SOLSTICEEv
libicui18n.so.67:_ZN6icu_6718CalendarAstronomer15WINTER_SOLSTICEEv
libicui18n.so.67:_ZN6icu_6718CalendarAstronomer15getMoonPositionEv
libicui18n.so.67:_ZN6icu_6718CalendarAstronomer15getSunLongitudeEdRdS1_
libicui18n.so.67:_ZN6icu_6718CalendarAstronomer15getSunLongitudeEv
libicui18n.so.67:_ZN6icu_6718CalendarAstronomer16getJulianCenturyEv
libicui18n.so.67:_ZN6icu_6718CalendarAstronomer16getLocalSiderealEv
libicui18n.so.67:_ZN6icu_6718CalendarAstronomer17eclipticObliquityEv
libicui18n.so.67:_ZN6icu_6718CalendarAstronomer17eclipticToHorizonERNS0_7HorizonEd
libicui18n.so.67:_ZN6icu_6718CalendarAstronomer17getSiderealOffsetEv
libicui18n.so.67:_ZN6icu_6718CalendarAstronomer20eclipticToEquatorialERNS0_10EquatorialERKNS0_8EclipticE
libicui18n.so.67:_ZN6icu_6718CalendarAstronomer20eclipticToEquatorialERNS0_10EquatorialEd
libicui18n.so.67:_ZN6icu_6718CalendarAstronomer20eclipticToEquatorialERNS0_10EquatorialEdd
libicui18n.so.67:_ZN6icu_6718CalendarAstronomer20getGreenwichSiderealEv
libicui18n.so.67:_ZN6icu_6718CalendarAstronomer7getTimeEv
libicui18n.so.67:_ZN6icu_6718CalendarAstronomer7lstToUTEd
libicui18n.so.67:_ZN6icu_6718CalendarAstronomer7setTimeEd
libicui18n.so.67:_ZN6icu_6718CalendarAstronomer8NEW_MOONEv
libicui18n.so.67:_ZN6icu_6718CalendarAstronomer9AngleFuncD0Ev
libicui18n.so.67:_ZN6icu_6718CalendarAstronomer9AngleFuncD1Ev
libicui18n.so.67:_ZN6icu_6718CalendarAstronomer9AngleFuncD2Ev
libicui18n.so.67:_ZN6icu_6718CalendarAstronomer9CoordFuncD0Ev
libicui18n.so.67:_ZN6icu_6718CalendarAstronomer9CoordFuncD1Ev
libicui18n.so.67:_ZN6icu_6718CalendarAstronomer9CoordFuncD2Ev
libicui18n.so.67:_ZN6icu_6718CalendarAstronomer9FULL_MOONEv
libicui18n.so.67:_ZN6icu_6718CalendarAstronomer9riseOrSetERNS0_9CoordFuncEaddd
libicui18n.so.67:_ZN6icu_6718CalendarAstronomerC1Ed
libicui18n.so.67:_ZN6icu_6718CalendarAstronomerC1Edd
libicui18n.so.67:_ZN6icu_6718CalendarAstronomerC1Ev
libicui18n.so.67:_ZN6icu_6718CalendarAstronomerC2Ed
libicui18n.so.67:_ZN6icu_6718CalendarAstronomerC2Edd
libicui18n.so.67:_ZN6icu_6718CalendarAstronomerC2Ev
libicui18n.so.67:_ZN6icu_6718CalendarAstronomerD1Ev
libicui18n.so.67:_ZN6icu_6718CalendarAstronomerD2Ev
libicui18n.so.67:_ZN6icu_6718CollationFastLatin10getOptionsEPKNS_13CollationDataERKNS_17CollationSettingsEPti
libicui18n.so.67:_ZN6icu_6718CollationFastLatin10lookupUTF8EPKtiPKhRii
libicui18n.so.67:_ZN6icu_6718CollationFastLatin11compareUTF8EPKtS2_iPKhiS4_i
libicui18n.so.67:_ZN6icu_6718CollationFastLatin12compareUTF16EPKtS2_iPKDsiS4_i
libicui18n.so.67:_ZN6icu_6718CollationFastLatin13getTertiariesEjaj
libicui18n.so.67:_ZN6icu_6718CollationFastLatin14getSecondariesEjj
libicui18n.so.67:_ZN6icu_6718CollationFastLatin15getQuaternariesEjj
libicui18n.so.67:_ZN6icu_6718CollationFastLatin16lookupUTF8UnsafeEPKtiPKhRi
libicui18n.so.67:_ZN6icu_6718CollationFastLatin6lookupEPKti
libicui18n.so.67:_ZN6icu_6718CollationFastLatin8getCasesEjaj
libicui18n.so.67:_ZN6icu_6718CollationFastLatin8nextPairEPKtijPKDsPKhRiS7_
libicui18n.so.67:_ZN6icu_6718CollationTailoring10setVersionEPKhS2_
libicui18n.so.67:_ZN6icu_6718CollationTailoring15ensureOwnedDataER10UErrorCode
libicui18n.so.67:_ZN6icu_6718CollationTailoring15makeBaseVersionEPKhPh
libicui18n.so.67:_ZN6icu_6718CollationTailoringC1EPKNS_17CollationSettingsE
libicui18n.so.67:_ZN6icu_6718CollationTailoringC2EPKNS_17CollationSettingsE
libicui18n.so.67:_ZN6icu_6718CollationTailoringD0Ev
libicui18n.so.67:_ZN6icu_6718CollationTailoringD1Ev
libicui18n.so.67:_ZN6icu_6718CollationTailoringD2Ev
libicui18n.so.67:_ZN6icu_6718CurrencyPluralInfo10deleteHashEPNS_9HashtableE
libicui18n.so.67:_ZN6icu_6718CurrencyPluralInfo10initializeERKNS_6LocaleER10UErrorCode
libicui18n.so.67:_ZN6icu_6718CurrencyPluralInfo14setPluralRulesERKNS_13UnicodeStringER10UErrorCode
libicui18n.so.67:_ZN6icu_6718CurrencyPluralInfo16getStaticClassIDEv
libicui18n.so.67:_ZN6icu_6718CurrencyPluralInfo24setCurrencyPluralPatternERKNS_13UnicodeStringES3_R10UErrorCode
libicui18n.so.67:_ZN6icu_6718CurrencyPluralInfo26setupCurrencyPluralPatternERKNS_6LocaleER10UErrorCode
libicui18n.so.67:_ZN6icu_6718CurrencyPluralInfo8copyHashEPKNS_9HashtableEPS1_R10UErrorCode
libicui18n.so.67:_ZN6icu_6718CurrencyPluralInfo8initHashER10UErrorCode
libicui18n.so.67:_ZN6icu_6718CurrencyPluralInfo9setLocaleERKNS_6LocaleER10UErrorCode
libicui18n.so.67:_ZN6icu_6718CurrencyPluralInfoC1ER10UErrorCode
libicui18n.so.67:_ZN6icu_6718CurrencyPluralInfoC1ERKNS_6LocaleER10UErrorCode
libicui18n.so.67:_ZN6icu_6718CurrencyPluralInfoC1ERKS0_
libicui18n.so.67:_ZN6icu_6718CurrencyPluralInfoC2ER10UErrorCode
libicui18n.so.67:_ZN6icu_6718CurrencyPluralInfoC2ERKNS_6LocaleER10UErrorCode
libicui18n.so.67:_ZN6icu_6718CurrencyPluralInfoC2ERKS0_
libicui18n.so.67:_ZN6icu_6718CurrencyPluralInfoD0Ev
libicui18n.so.67:_ZN6icu_6718CurrencyPluralInfoD1Ev
libicui18n.so.67:_ZN6icu_6718CurrencyPluralInfoD2Ev
libicui18n.so.67:_ZN6icu_6718CurrencyPluralInfoaSERKS0_
libicui18n.so.67:_ZN6icu_6718DateFmtBestPatternD0Ev
libicui18n.so.67:_ZN6icu_6718DateFmtBestPatternD1Ev
libicui18n.so.67:_ZN6icu_6718DateFmtBestPatternD2Ev
libicui18n.so.67:_ZN6icu_6718DateIntervalFormat11setTimeZoneERKNS_8TimeZoneE
libicui18n.so.67:_ZN6icu_6718DateIntervalFormat13adoptTimeZoneEPNS_8TimeZoneE
libicui18n.so.67:_ZN6icu_6718DateIntervalFormat14createInstanceERKNS_13UnicodeStringER10UErrorCode
libicui18n.so.67:_ZN6icu_6718DateIntervalFormat14createInstanceERKNS_13UnicodeStringERKNS_16DateIntervalInfoER10UErrorCode
libicui18n.so.67:_ZN6icu_6718DateIntervalFormat14createInstanceERKNS_13UnicodeStringERKNS_6LocaleER10UErrorCode
libicui18n.so.67:_ZN6icu_6718DateIntervalFormat14createInstanceERKNS_13UnicodeStringERKNS_6LocaleERKNS_16DateIntervalInfoER10UErrorCode
libicui18n.so.67:_ZN6icu_6718DateIntervalFormat14setPatternInfoE19UCalendarDateFieldsPKNS_13UnicodeStringES4_a
libicui18n.so.67:_ZN6icu_6718DateIntervalFormat16adjustFieldWidthERKNS_13UnicodeStringES3_S3_aRS1_
libicui18n.so.67:_ZN6icu_6718DateIntervalFormat16getStaticClassIDEv
libicui18n.so.67:_ZN6icu_6718DateIntervalFormat17initializePatternER10UErrorCode
libicui18n.so.67:_ZN6icu_6718DateIntervalFormat18setFallbackPatternE19UCalendarDateFieldsRKNS_13UnicodeStringER10UErrorCode
libicui18n.so.67:_ZN6icu_6718DateIntervalFormat18setIntervalPatternE19UCalendarDateFieldsPKNS_13UnicodeStringES4_aPS2_S5_
libicui18n.so.67:_ZN6icu_6718DateIntervalFormat18setIntervalPatternE19UCalendarDateFieldsRKNS_13UnicodeStringE
libicui18n.so.67:_ZN6icu_6718DateIntervalFormat18setIntervalPatternE19UCalendarDateFieldsRKNS_13UnicodeStringEa
libicui18n.so.67:_ZN6icu_6718DateIntervalFormat19getDateTimeSkeletonERKNS_13UnicodeStringERS1_S4_S4_S4_
libicui18n.so.67:_ZN6icu_6718DateIntervalFormat19setDateIntervalInfoERKNS_16DateIntervalInfoER10UErrorCode
libicui18n.so.67:_ZN6icu_6718DateIntervalFormat21fieldExistsInSkeletonE19UCalendarDateFieldsRKNS_13UnicodeStringE
libicui18n.so.67:_ZN6icu_6718DateIntervalFormat21splitPatternInto2PartERKNS_13UnicodeStringE
libicui18n.so.67:_ZN6icu_6718DateIntervalFormat22setSeparateDateTimePtnERKNS_13UnicodeStringES3_
libicui18n.so.67:_ZN6icu_6718DateIntervalFormat29concatSingleDate2TimeIntervalERNS_13UnicodeStringERKS1_19UCalendarDateFieldsR10UErrorCode
libicui18n.so.67:_ZN6icu_6718DateIntervalFormat6createERKNS_6LocaleEPNS_16DateIntervalInfoEPKNS_13UnicodeStringER10UErrorCode
libicui18n.so.67:_ZN6icu_6718DateIntervalFormatC1ERKNS_6LocaleEPNS_16DateIntervalInfoEPKNS_13UnicodeStringER10UErrorCode
libicui18n.so.67:_ZN6icu_6718DateIntervalFormatC1ERKS0_
libicui18n.so.67:_ZN6icu_6718DateIntervalFormatC1Ev
libicui18n.so.67:_ZN6icu_6718DateIntervalFormatC2ERKNS_6LocaleEPNS_16DateIntervalInfoEPKNS_13UnicodeStringER10UErrorCode
libicui18n.so.67:_ZN6icu_6718DateIntervalFormatC2ERKS0_
libicui18n.so.67:_ZN6icu_6718DateIntervalFormatC2Ev
libicui18n.so.67:_ZN6icu_6718DateIntervalFormatD0Ev
libicui18n.so.67:_ZN6icu_6718DateIntervalFormatD1Ev
libicui18n.so.67:_ZN6icu_6718DateIntervalFormatD2Ev
libicui18n.so.67:_ZN6icu_6718DateIntervalFormataSERKS0_
libicui18n.so.67:_ZN6icu_6718GNameSearchHandler10getMatchesERi
libicui18n.so.67:_ZN6icu_6718GNameSearchHandler11handleMatchEiPKNS_13CharacterNodeER10UErrorCode
libicui18n.so.67:_ZN6icu_6718GNameSearchHandlerC1Ej
libicui18n.so.67:_ZN6icu_6718GNameSearchHandlerC2Ej
libicui18n.so.67:_ZN6icu_6718GNameSearchHandlerD0Ev
libicui18n.so.67:_ZN6icu_6718GNameSearchHandlerD1Ev
libicui18n.so.67:_ZN6icu_6718GNameSearchHandlerD2Ev
libicui18n.so.67:_ZN6icu_6718ICUCollatorFactoryD0Ev
libicui18n.so.67:_ZN6icu_6718ICUCollatorFactoryD1Ev
libicui18n.so.67:_ZN6icu_6718ICUCollatorFactoryD2Ev
libicui18n.so.67:_ZN6icu_6718ICUCollatorServiceD0Ev
libicui18n.so.67:_ZN6icu_6718ICUCollatorServiceD1Ev
libicui18n.so.67:_ZN6icu_6718ICUCollatorServiceD2Ev
libicui18n.so.67:_ZN6icu_6718NGramParser_IBM42015parseCharactersEPNS_9InputTextE
libicui18n.so.67:_ZN6icu_6718NGramParser_IBM4208nextByteEPNS_9InputTextE
libicui18n.so.67:_ZN6icu_6718NGramParser_IBM4209isLamAlefEi
libicui18n.so.67:_ZN6icu_6718NGramParser_IBM420C1EPKiPKh
libicui18n.so.67:_ZN6icu_6718NGramParser_IBM420C2EPKiPKh
libicui18n.so.67:_ZN6icu_6718NGramParser_IBM420D0Ev
libicui18n.so.67:_ZN6icu_6718NGramParser_IBM420D1Ev
libicui18n.so.67:_ZN6icu_6718NGramParser_IBM420D2Ev
libicui18n.so.67:_ZN6icu_6718NullTransliterator16getStaticClassIDEv
libicui18n.so.67:_ZN6icu_6718NullTransliteratorC1Ev
libicui18n.so.67:_ZN6icu_6718NullTransliteratorC2Ev
libicui18n.so.67:_ZN6icu_6718NullTransliteratorD0Ev
libicui18n.so.67:_ZN6icu_6718NullTransliteratorD1Ev
libicui18n.so.67:_ZN6icu_6718NullTransliteratorD2Ev
libicui18n.so.67:_ZN6icu_6718PatternMapIterator3setERNS_10PatternMapE
libicui18n.so.67:_ZN6icu_6718PatternMapIterator4nextEv
libicui18n.so.67:_ZN6icu_6718PatternMapIteratorC1ER10UErrorCode
libicui18n.so.67:_ZN6icu_6718PatternMapIteratorC2ER10UErrorCode
libicui18n.so.67:_ZN6icu_6718PatternMapIteratorD0Ev
libicui18n.so.67:_ZN6icu_6718PatternMapIteratorD1Ev
libicui18n.so.67:_ZN6icu_6718PatternMapIteratorD2Ev
libicui18n.so.67:_ZN6icu_6718RelativeDateFormat10setContextE15UDisplayContextR10UErrorCode
libicui18n.so.67:_ZN6icu_6718RelativeDateFormat13applyPatternsERKNS_13UnicodeStringES3_R10UErrorCode
libicui18n.so.67:_ZN6icu_6718RelativeDateFormat13dayDifferenceERNS_8CalendarER10UErrorCode
libicui18n.so.67:_ZN6icu_6718RelativeDateFormat16getStaticClassIDEv
libicui18n.so.67:_ZN6icu_6718RelativeDateFormat18initializeCalendarEPNS_8TimeZoneERKNS_6LocaleER10UErrorCode
libicui18n.so.67:_ZN6icu_6718RelativeDateFormat29initCapitalizationContextInfoERKNS_6LocaleE
libicui18n.so.67:_ZN6icu_6718RelativeDateFormat9loadDatesER10UErrorCode
libicui18n.so.67:_ZN6icu_6718RelativeDateFormatC1E16UDateFormatStyleS1_RKNS_6LocaleER10UErrorCode
libicui18n.so.67:_ZN6icu_6718RelativeDateFormatC1ERKS0_
libicui18n.so.67:_ZN6icu_6718RelativeDateFormatC2E16UDateFormatStyleS1_RKNS_6LocaleER10UErrorCode
libicui18n.so.67:_ZN6icu_6718RelativeDateFormatC2ERKS0_
libicui18n.so.67:_ZN6icu_6718RelativeDateFormatD0Ev
libicui18n.so.67:_ZN6icu_6718RelativeDateFormatD1Ev
libicui18n.so.67:_ZN6icu_6718RelativeDateFormatD2Ev
libicui18n.so.67:_ZN6icu_6718SharedNumberFormatD0Ev
libicui18n.so.67:_ZN6icu_6718SharedNumberFormatD1Ev
libicui18n.so.67:_ZN6icu_6718SharedNumberFormatD2Ev
libicui18n.so.67:_ZN6icu_6718TimeZoneTransition16getStaticClassIDEv
libicui18n.so.67:_ZN6icu_6718TimeZoneTransition5setToERKNS_12TimeZoneRuleE
libicui18n.so.67:_ZN6icu_6718TimeZoneTransition7adoptToEPNS_12TimeZoneRuleE
libicui18n.so.67:_ZN6icu_6718TimeZoneTransition7setFromERKNS_12TimeZoneRuleE
libicui18n.so.67:_ZN6icu_6718TimeZoneTransition7setTimeEd
libicui18n.so.67:_ZN6icu_6718TimeZoneTransition9adoptFromEPNS_12TimeZoneRuleE
libicui18n.so.67:_ZN6icu_6718TimeZoneTransitionC1ERKS0_
libicui18n.so.67:_ZN6icu_6718TimeZoneTransitionC1EdRKNS_12TimeZoneRuleES3_
libicui18n.so.67:_ZN6icu_6718TimeZoneTransitionC1Ev
libicui18n.so.67:_ZN6icu_6718TimeZoneTransitionC2ERKS0_
libicui18n.so.67:_ZN6icu_6718TimeZoneTransitionC2EdRKNS_12TimeZoneRuleES3_
libicui18n.so.67:_ZN6icu_6718TimeZoneTransitionC2Ev
libicui18n.so.67:_ZN6icu_6718TimeZoneTransitionD0Ev
libicui18n.so.67:_ZN6icu_6718TimeZoneTransitionD1Ev
libicui18n.so.67:_ZN6icu_6718TimeZoneTransitionD2Ev
libicui18n.so.67:_ZN6icu_6718TimeZoneTransitionaSERKS0_
libicui18n.so.67:_ZN6icu_6718TransliteratorSpec4nextEv
libicui18n.so.67:_ZN6icu_6718TransliteratorSpec5resetEv
libicui18n.so.67:_ZN6icu_6718TransliteratorSpec9setupNextEv
libicui18n.so.67:_ZN6icu_6718TransliteratorSpecC1ERKNS_13UnicodeStringE
libicui18n.so.67:_ZN6icu_6718TransliteratorSpecC2ERKNS_13UnicodeStringE
libicui18n.so.67:_ZN6icu_6718TransliteratorSpecD1Ev
libicui18n.so.67:_ZN6icu_6718TransliteratorSpecD2Ev
libicui18n.so.67:_ZN6icu_6718UFormattedListImplC1Ev
libicui18n.so.67:_ZN6icu_6718UFormattedListImplC2Ev
libicui18n.so.67:_ZN6icu_6718UFormattedListImplD1Ev
libicui18n.so.67:_ZN6icu_6718UFormattedListImplD2Ev
libicui18n.so.67:_ZN6icu_6718ZNameSearchHandler10getMatchesERi
libicui18n.so.67:_ZN6icu_6718ZNameSearchHandler11handleMatchEiPKNS_13CharacterNodeER10UErrorCode
libicui18n.so.67:_ZN6icu_6718ZNameSearchHandlerC1Ej
libicui18n.so.67:_ZN6icu_6718ZNameSearchHandlerC2Ej
libicui18n.so.67:_ZN6icu_6718ZNameSearchHandlerD0Ev
libicui18n.so.67:_ZN6icu_6718ZNameSearchHandlerD1Ev
libicui18n.so.67:_ZN6icu_6718ZNameSearchHandlerD2Ev
libicui18n.so.67:_ZN6icu_6718ZoneIdMatchHandler11getMatchLenEv
libicui18n.so.67:_ZN6icu_6718ZoneIdMatchHandler11handleMatchEiPKNS_13CharacterNodeER10UErrorCode
libicui18n.so.67:_ZN6icu_6718ZoneIdMatchHandler5getIDEv
libicui18n.so.67:_ZN6icu_6718ZoneIdMatchHandlerC1Ev
libicui18n.so.67:_ZN6icu_6718ZoneIdMatchHandlerC2Ev
libicui18n.so.67:_ZN6icu_6718ZoneIdMatchHandlerD0Ev
libicui18n.so.67:_ZN6icu_6718ZoneIdMatchHandlerD1Ev
libicui18n.so.67:_ZN6icu_6718ZoneIdMatchHandlerD2Ev
libicui18n.so.67:_ZN6icu_6719BreakTransliterator12setInsertionERKNS_13UnicodeStringE
libicui18n.so.67:_ZN6icu_6719BreakTransliterator16getStaticClassIDEv
libicui18n.so.67:_ZN6icu_6719BreakTransliterator19replaceableAsStringERNS_11ReplaceableE
libicui18n.so.67:_ZN6icu_6719BreakTransliteratorC1EPNS_13UnicodeFilterE
libicui18n.so.67:_ZN6icu_6719BreakTransliteratorC1ERKS0_
libicui18n.so.67:_ZN6icu_6719BreakTransliteratorC2EPNS_13UnicodeFilterE
libicui18n.so.67:_ZN6icu_6719BreakTransliteratorC2ERKS0_
libicui18n.so.67:_ZN6icu_6719BreakTransliteratorD0Ev
libicui18n.so.67:_ZN6icu_6719BreakTransliteratorD1Ev
libicui18n.so.67:_ZN6icu_6719BreakTransliteratorD2Ev
libicui18n.so.67:_ZN6icu_6719CharsetRecog_2022CND0Ev
libicui18n.so.67:_ZN6icu_6719CharsetRecog_2022CND1Ev
libicui18n.so.67:_ZN6icu_6719CharsetRecog_2022CND2Ev
libicui18n.so.67:_ZN6icu_6719CharsetRecog_2022JPD0Ev
libicui18n.so.67:_ZN6icu_6719CharsetRecog_2022JPD1Ev
libicui18n.so.67:_ZN6icu_6719CharsetRecog_2022JPD2Ev
libicui18n.so.67:_ZN6icu_6719CharsetRecog_2022KRD0Ev
libicui18n.so.67:_ZN6icu_6719CharsetRecog_2022KRD1Ev
libicui18n.so.67:_ZN6icu_6719CharsetRecog_2022KRD2Ev
libicui18n.so.67:_ZN6icu_6719CharsetRecog_8859_1D0Ev
libicui18n.so.67:_ZN6icu_6719CharsetRecog_8859_1D1Ev
libicui18n.so.67:_ZN6icu_6719CharsetRecog_8859_1D2Ev
libicui18n.so.67:_ZN6icu_6719CharsetRecog_8859_2D0Ev
libicui18n.so.67:_ZN6icu_6719CharsetRecog_8859_2D1Ev
libicui18n.so.67:_ZN6icu_6719CharsetRecog_8859_2D2Ev
libicui18n.so.67:_ZN6icu_6719CharsetRecog_8859_5D0Ev
libicui18n.so.67:_ZN6icu_6719CharsetRecog_8859_5D1Ev
libicui18n.so.67:_ZN6icu_6719CharsetRecog_8859_5D2Ev
libicui18n.so.67:_ZN6icu_6719CharsetRecog_8859_6D0Ev
libicui18n.so.67:_ZN6icu_6719CharsetRecog_8859_6D1Ev
libicui18n.so.67:_ZN6icu_6719CharsetRecog_8859_6D2Ev
libicui18n.so.67:_ZN6icu_6719CharsetRecog_8859_7D0Ev
libicui18n.so.67:_ZN6icu_6719CharsetRecog_8859_7D1Ev
libicui18n.so.67:_ZN6icu_6719CharsetRecog_8859_7D2Ev
libicui18n.so.67:_ZN6icu_6719CharsetRecog_8859_8D0Ev
libicui18n.so.67:_ZN6icu_6719CharsetRecog_8859_8D1Ev
libicui18n.so.67:_ZN6icu_6719CharsetRecog_8859_8D2Ev
libicui18n.so.67:_ZN6icu_6719CharsetRecog_8859_9D0Ev
libicui18n.so.67:_ZN6icu_6719CharsetRecog_8859_9D1Ev
libicui18n.so.67:_ZN6icu_6719CharsetRecog_8859_9D2Ev
libicui18n.so.67:_ZN6icu_6719CharsetRecog_KOI8_RD0Ev
libicui18n.so.67:_ZN6icu_6719CharsetRecog_KOI8_RD1Ev
libicui18n.so.67:_ZN6icu_6719CharsetRecog_KOI8_RD2Ev
libicui18n.so.67:_ZN6icu_6719CharsetRecog_UTF_32D0Ev
libicui18n.so.67:_ZN6icu_6719CharsetRecog_UTF_32D1Ev
libicui18n.so.67:_ZN6icu_6719CharsetRecog_UTF_32D2Ev
libicui18n.so.67:_ZN6icu_6719CharsetRecog_euc_jpD0Ev
libicui18n.so.67:_ZN6icu_6719CharsetRecog_euc_jpD1Ev
libicui18n.so.67:_ZN6icu_6719CharsetRecog_euc_jpD2Ev
libicui18n.so.67:_ZN6icu_6719CharsetRecog_euc_krD0Ev
libicui18n.so.67:_ZN6icu_6719CharsetRecog_euc_krD1Ev
libicui18n.so.67:_ZN6icu_6719CharsetRecog_euc_krD2Ev
libicui18n.so.67:_ZN6icu_6719CollationCacheEntryD0Ev
libicui18n.so.67:_ZN6icu_6719CollationCacheEntryD1Ev
libicui18n.so.67:_ZN6icu_6719CollationCacheEntryD2Ev
libicui18n.so.67:_ZN6icu_6719CollationDataReader12isAcceptableEPvPKcS3_PK9UDataInfo
libicui18n.so.67:_ZN6icu_6719CollationDataReader4readEPKNS_18CollationTailoringEPKhiRS1_R10UErrorCode
libicui18n.so.67:_ZN6icu_6719CollationDataWriter14writeTailoringERKNS_18CollationTailoringERKNS_17CollationSettingsEPiPhiR10UErrorCode
libicui18n.so.67:_ZN6icu_6719CollationDataWriter5writeEaPKhRKNS_13CollationDataERKNS_17CollationSettingsEPKviPiPhiR10UErrorCode
libicui18n.so.67:_ZN6icu_6719CollationDataWriter8copyDataEPKiiPKvPh
libicui18n.so.67:_ZN6icu_6719CollationDataWriter9writeBaseERKNS_13CollationDataERKNS_17CollationSettingsEPKviPiPhiR10UErrorCode
libicui18n.so.67:_ZN6icu_6719CollationRuleParser11parseStringEiRNS_13UnicodeStringER10UErrorCode
libicui18n.so.67:_ZN6icu_6719CollationRuleParser12isSyntaxCharEi
libicui18n.so.67:_ZN6icu_6719CollationRuleParser12parseSettingER10UErrorCode
libicui18n.so.67:_ZN6icu_6719CollationRuleParser13getOnOffValueERKNS_13UnicodeStringE
libicui18n.so.67:_ZN6icu_6719CollationRuleParser13setParseErrorEPKcR10UErrorCode
libicui18n.so.67:_ZN6icu_6719CollationRuleParser14getReorderCodeEPKc
libicui18n.so.67:_ZN6icu_6719CollationRuleParser14parseRuleChainER10UErrorCode
libicui18n.so.67:_ZN6icu_6719CollationRuleParser15parseReorderingERKNS_13UnicodeStringER10UErrorCode
libicui18n.so.67:_ZN6icu_6719CollationRuleParser15parseUnicodeSetEiRNS_10UnicodeSetER10UErrorCode
libicui18n.so.67:_ZN6icu_6719CollationRuleParser15setErrorContextEv
libicui18n.so.67:_ZN6icu_6719CollationRuleParser20parseRelationStringsEiiR10UErrorCode
libicui18n.so.67:_ZN6icu_6719CollationRuleParser20parseSpecialPositionEiRNS_13UnicodeStringER10UErrorCode
libicui18n.so.67:_ZN6icu_6719CollationRuleParser20parseTailoringStringEiRNS_13UnicodeStringER10UErrorCode
libicui18n.so.67:_ZN6icu_6719CollationRuleParser21parseRelationOperatorER10UErrorCode
libicui18n.so.67:_ZN6icu_6719CollationRuleParser21parseResetAndPositionER10UErrorCode
libicui18n.so.67:_ZN6icu_6719CollationRuleParser22parseStarredCharactersEiiR10UErrorCode
libicui18n.so.67:_ZN6icu_6719CollationRuleParser4Sink20suppressContractionsERKNS_10UnicodeSetERPKcR10UErrorCode
libicui18n.so.67:_ZN6icu_6719CollationRuleParser4Sink8optimizeERKNS_10UnicodeSetERPKcR10UErrorCode
libicui18n.so.67:_ZN6icu_6719CollationRuleParser4SinkD0Ev
libicui18n.so.67:_ZN6icu_6719CollationRuleParser4SinkD1Ev
libicui18n.so.67:_ZN6icu_6719CollationRuleParser4SinkD2Ev
libicui18n.so.67:_ZN6icu_6719CollationRuleParser5parseERKNS_13UnicodeStringER10UErrorCode
libicui18n.so.67:_ZN6icu_6719CollationRuleParser5parseERKNS_13UnicodeStringERNS_17CollationSettingsEP11UParseErrorR10UErrorCode
libicui18n.so.67:_ZN6icu_6719CollationRuleParser8ImporterD0Ev
libicui18n.so.67:_ZN6icu_6719CollationRuleParser8ImporterD1Ev
libicui18n.so.67:_ZN6icu_6719CollationRuleParser8ImporterD2Ev
libicui18n.so.67:_ZN6icu_6719CollationRuleParserC1EPKNS_13CollationDataER10UErrorCode
libicui18n.so.67:_ZN6icu_6719CollationRuleParserC2EPKNS_13CollationDataER10UErrorCode
libicui18n.so.67:_ZN6icu_6719CollationRuleParserD1Ev
libicui18n.so.67:_ZN6icu_6719CollationRuleParserD2Ev
libicui18n.so.67:_ZN6icu_6719InitialTimeZoneRule16getStaticClassIDEv
libicui18n.so.67:_ZN6icu_6719InitialTimeZoneRuleC1ERKNS_13UnicodeStringEii
libicui18n.so.67:_ZN6icu_6719InitialTimeZoneRuleC1ERKS0_
libicui18n.so.67:_ZN6icu_6719InitialTimeZoneRuleC2ERKNS_13UnicodeStringEii
libicui18n.so.67:_ZN6icu_6719InitialTimeZoneRuleC2ERKS0_
libicui18n.so.67:_ZN6icu_6719InitialTimeZoneRuleD0Ev
libicui18n.so.67:_ZN6icu_6719InitialTimeZoneRuleD1Ev
libicui18n.so.67:_ZN6icu_6719InitialTimeZoneRuleD2Ev
libicui18n.so.67:_ZN6icu_6719InitialTimeZoneRuleaSERKS0_
libicui18n.so.67:_ZN6icu_6719ModulusSubstitution16getStaticClassIDEv
libicui18n.so.67:_ZN6icu_6719ModulusSubstitutionC1EiPKNS_6NFRuleES3_PKNS_9NFRuleSetERKNS_13UnicodeStringER10UErrorCode
libicui18n.so.67:_ZN6icu_6719ModulusSubstitutionC2EiPKNS_6NFRuleES3_PKNS_9NFRuleSetERKNS_13UnicodeStringER10UErrorCode
libicui18n.so.67:_ZN6icu_6719ModulusSubstitutionD0Ev
libicui18n.so.67:_ZN6icu_6719ModulusSubstitutionD1Ev
libicui18n.so.67:_ZN6icu_6719ModulusSubstitutionD2Ev
libicui18n.so.67:_ZN6icu_6719NumberFormatFactoryD0Ev
libicui18n.so.67:_ZN6icu_6719NumberFormatFactoryD1Ev
libicui18n.so.67:_ZN6icu_6719NumberFormatFactoryD2Ev
libicui18n.so.67:_ZN6icu_6719SharedBreakIteratorC1EPNS_13BreakIteratorE
libicui18n.so.67:_ZN6icu_6719SharedBreakIteratorC2EPNS_13BreakIteratorE
libicui18n.so.67:_ZN6icu_6719SharedBreakIteratorD0Ev
libicui18n.so.67:_ZN6icu_6719SharedBreakIteratorD1Ev
libicui18n.so.67:_ZN6icu_6719SharedBreakIteratorD2Ev
libicui18n.so.67:_ZN6icu_6719TransliterationRule7setDataEPKNS_23TransliterationRuleDataE
libicui18n.so.67:_ZN6icu_6719TransliterationRuleC1ERKNS_13UnicodeStringEiiS3_iiPPNS_14UnicodeFunctorEiaaPKNS_23TransliterationRuleDataER10UErrorCode
libicui18n.so.67:_ZN6icu_6719TransliterationRuleC1ERS0_
libicui18n.so.67:_ZN6icu_6719TransliterationRuleC2ERKNS_13UnicodeStringEiiS3_iiPPNS_14UnicodeFunctorEiaaPKNS_23TransliterationRuleDataER10UErrorCode
libicui18n.so.67:_ZN6icu_6719TransliterationRuleC2ERS0_
libicui18n.so.67:_ZN6icu_6719TransliterationRuleD0Ev
libicui18n.so.67:_ZN6icu_6719TransliterationRuleD1Ev
libicui18n.so.67:_ZN6icu_6719TransliterationRuleD2Ev
libicui18n.so.67:_ZN6icu_6719TransliteratorAlias6createER11UParseErrorR10UErrorCode
libicui18n.so.67:_ZN6icu_6719TransliteratorAliasC1ERKNS_13UnicodeStringEPKNS_10UnicodeSetE
libicui18n.so.67:_ZN6icu_6719TransliteratorAliasC1ERKNS_13UnicodeStringES3_15UTransDirection
libicui18n.so.67:_ZN6icu_6719TransliteratorAliasC1ERKNS_13UnicodeStringES3_PNS_7UVectorEPKNS_10UnicodeSetE
libicui18n.so.67:_ZN6icu_6719TransliteratorAliasC2ERKNS_13UnicodeStringEPKNS_10UnicodeSetE
libicui18n.so.67:_ZN6icu_6719TransliteratorAliasC2ERKNS_13UnicodeStringES3_15UTransDirection
libicui18n.so.67:_ZN6icu_6719TransliteratorAliasC2ERKNS_13UnicodeStringES3_PNS_7UVectorEPKNS_10UnicodeSetE
libicui18n.so.67:_ZN6icu_6719TransliteratorAliasD1Ev
libicui18n.so.67:_ZN6icu_6719TransliteratorAliasD2Ev
libicui18n.so.67:_ZN6icu_6719TransliteratorEntry10setFactoryEPFPNS_14TransliteratorERKNS_13UnicodeStringENS1_5TokenEES6_
libicui18n.so.67:_ZN6icu_6719TransliteratorEntry14adoptPrototypeEPNS_14TransliteratorE
libicui18n.so.67:_ZN6icu_6719TransliteratorEntryC1Ev
libicui18n.so.67:_ZN6icu_6719TransliteratorEntryC2Ev
libicui18n.so.67:_ZN6icu_6719TransliteratorEntryD1Ev
libicui18n.so.67:_ZN6icu_6719TransliteratorEntryD2Ev
libicui18n.so.67:_ZN6icu_6720BasicCalendarFactoryD0Ev
libicui18n.so.67:_ZN6icu_6720BasicCalendarFactoryD1Ev
libicui18n.so.67:_ZN6icu_6720BasicCalendarFactoryD2Ev
libicui18n.so.67:_ZN6icu_6720CharsetRecog_UnicodeD0Ev
libicui18n.so.67:_ZN6icu_6720CharsetRecog_UnicodeD1Ev
libicui18n.so.67:_ZN6icu_6720CharsetRecog_UnicodeD2Ev
libicui18n.so.67:_ZN6icu_6720CollationDataBuilder10CEModifierD0Ev
libicui18n.so.67:_ZN6icu_6720CollationDataBuilder10CEModifierD1Ev
libicui18n.so.67:_ZN6icu_6720CollationDataBuilder10CEModifierD2Ev
libicui18n.so.67:_ZN6icu_6720CollationDataBuilder11encodeOneCEElR10UErrorCode
libicui18n.so.67:_ZN6icu_6720CollationDataBuilder12buildContextEPNS_15ConditionalCE32ER10UErrorCode
libicui18n.so.67:_ZN6icu_6720CollationDataBuilder12getJamoCE32sEPjR10UErrorCode
libicui18n.so.67:_ZN6icu_6720CollationDataBuilder12setDigitTagsER10UErrorCode
libicui18n.so.67:_ZN6icu_6720CollationDataBuilder13buildContextsER10UErrorCode
libicui18n.so.67:_ZN6icu_6720CollationDataBuilder13buildMappingsERNS_13CollationDataER10UErrorCode
libicui18n.so.67:_ZN6icu_6720CollationDataBuilder13clearContextsEv
libicui18n.so.67:_ZN6icu_6720CollationDataBuilder14addContextTrieEjRNS_17UCharsTrieBuilderER10UErrorCode
libicui18n.so.67:_ZN6icu_6720CollationDataBuilder15encodeExpansionEPKliR10UErrorCode
libicui18n.so.67:_ZN6icu_6720CollationDataBuilder16copyFromBaseCE32EijaR10UErrorCode
libicui18n.so.67:_ZN6icu_6720CollationDataBuilder16initForTailoringEPKNS_13CollationDataER10UErrorCode
libicui18n.so.67:_ZN6icu_6720CollationDataBuilder17encodeExpansion32EPKiiR10UErrorCode
libicui18n.so.67:_ZN6icu_6720CollationDataBuilder17encodeOneCEAsCE32El
libicui18n.so.67:_ZN6icu_6720CollationDataBuilder17setLeadSurrogatesER10UErrorCode
libicui18n.so.67:_ZN6icu_6720CollationDataBuilder18addConditionalCE32ERKNS_13UnicodeStringEjR10UErrorCode
libicui18n.so.67:_ZN6icu_6720CollationDataBuilder19buildFastLatinTableERNS_13CollationDataER10UErrorCode
libicui18n.so.67:_ZN6icu_6720CollationDataBuilder20maybeSetPrimaryRangeEiijiR10UErrorCode
libicui18n.so.67:_ZN6icu_6720CollationDataBuilder20suppressContractionsERKNS_10UnicodeSetER10UErrorCode
libicui18n.so.67:_ZN6icu_6720CollationDataBuilder28copyContractionsFromBaseCE32ERNS_13UnicodeStringEijPNS_15ConditionalCE32ER10UErrorCode
libicui18n.so.67:_ZN6icu_6720CollationDataBuilder28setPrimaryRangeAndReturnNextEiijiR10UErrorCode
libicui18n.so.67:_ZN6icu_6720CollationDataBuilder3addERKNS_13UnicodeStringES3_PKliR10UErrorCode
libicui18n.so.67:_ZN6icu_6720CollationDataBuilder5addCEElR10UErrorCode
libicui18n.so.67:_ZN6icu_6720CollationDataBuilder5buildERNS_13CollationDataER10UErrorCode
libicui18n.so.67:_ZN6icu_6720CollationDataBuilder6getCEsERKNS_13UnicodeStringEPli
libicui18n.so.67:_ZN6icu_6720CollationDataBuilder6getCEsERKNS_13UnicodeStringES3_Pli
libicui18n.so.67:_ZN6icu_6720CollationDataBuilder6getCEsERKNS_13UnicodeStringEiPli
libicui18n.so.67:_ZN6icu_6720CollationDataBuilder7addCE32ERKNS_13UnicodeStringES3_jR10UErrorCode
libicui18n.so.67:_ZN6icu_6720CollationDataBuilder7addCE32EjR10UErrorCode
libicui18n.so.67:_ZN6icu_6720CollationDataBuilder8copyFromERKS0_RKNS0_10CEModifierER10UErrorCode
libicui18n.so.67:_ZN6icu_6720CollationDataBuilder8optimizeERKNS_10UnicodeSetER10UErrorCode
libicui18n.so.67:_ZN6icu_6720CollationDataBuilder9encodeCEsEPKliR10UErrorCode
libicui18n.so.67:_ZN6icu_6720CollationDataBuilderC1ER10UErrorCode
libicui18n.so.67:_ZN6icu_6720CollationDataBuilderC2ER10UErrorCode
libicui18n.so.67:_ZN6icu_6720CollationDataBuilderD0Ev
libicui18n.so.67:_ZN6icu_6720CollationDataBuilderD1Ev
libicui18n.so.67:_ZN6icu_6720CollationDataBuilderD2Ev
libicui18n.so.67:_ZN6icu_6720CollationKeyByteSink20AppendBeyondCapacityEPKcii
libicui18n.so.67:_ZN6icu_6720CollationKeyByteSink6ResizeEii
libicui18n.so.67:_ZN6icu_6720CollationKeyByteSinkD0Ev
libicui18n.so.67:_ZN6icu_6720CollationKeyByteSinkD1Ev
libicui18n.so.67:_ZN6icu_6720CollationKeyByteSinkD2Ev
libicui18n.so.67:_ZN6icu_6720CompactDecimalFormat14createInstanceERKNS_6LocaleE19UNumberCompactStyleR10UErrorCode
libicui18n.so.67:_ZN6icu_6720CompactDecimalFormat16getStaticClassIDEv
libicui18n.so.67:_ZN6icu_6720CompactDecimalFormatC1ERKNS_6LocaleE19UNumberCompactStyleR10UErrorCode
libicui18n.so.67:_ZN6icu_6720CompactDecimalFormatC1ERKS0_
libicui18n.so.67:_ZN6icu_6720CompactDecimalFormatC2ERKNS_6LocaleE19UNumberCompactStyleR10UErrorCode
libicui18n.so.67:_ZN6icu_6720CompactDecimalFormatC2ERKS0_
libicui18n.so.67:_ZN6icu_6720CompactDecimalFormatD0Ev
libicui18n.so.67:_ZN6icu_6720CompactDecimalFormatD1Ev
libicui18n.so.67:_ZN6icu_6720CompactDecimalFormatD2Ev
libicui18n.so.67:_ZN6icu_6720CompactDecimalFormataSERKS0_
libicui18n.so.67:_ZN6icu_6720DecimalFormatSymbols10initializeERKNS_6LocaleER10UErrorCodeaPKNS_15NumberingSystemE
libicui18n.so.67:_ZN6icu_6720DecimalFormatSymbols10initializeEv
libicui18n.so.67:_ZN6icu_6720DecimalFormatSymbols11setCurrencyEPKDsR10UErrorCode
libicui18n.so.67:_ZN6icu_6720DecimalFormatSymbols16getStaticClassIDEv
libicui18n.so.67:_ZN6icu_6720DecimalFormatSymbols24createWithLastResortDataER10UErrorCode
libicui18n.so.67:_ZN6icu_6720DecimalFormatSymbols28setPatternForCurrencySpacingE16UCurrencySpacingaRKNS_13UnicodeStringE
libicui18n.so.67:_ZN6icu_6720DecimalFormatSymbolsC1ER10UErrorCode
libicui18n.so.67:_ZN6icu_6720DecimalFormatSymbolsC1ERKNS_6LocaleER10UErrorCode
libicui18n.so.67:_ZN6icu_6720DecimalFormatSymbolsC1ERKNS_6LocaleERKNS_15NumberingSystemER10UErrorCode
libicui18n.so.67:_ZN6icu_6720DecimalFormatSymbolsC1ERKS0_
libicui18n.so.67:_ZN6icu_6720DecimalFormatSymbolsC1Ev
libicui18n.so.67:_ZN6icu_6720DecimalFormatSymbolsC2ER10UErrorCode
libicui18n.so.67:_ZN6icu_6720DecimalFormatSymbolsC2ERKNS_6LocaleER10UErrorCode
libicui18n.so.67:_ZN6icu_6720DecimalFormatSymbolsC2ERKNS_6LocaleERKNS_15NumberingSystemER10UErrorCode
libicui18n.so.67:_ZN6icu_6720DecimalFormatSymbolsC2ERKS0_
libicui18n.so.67:_ZN6icu_6720DecimalFormatSymbolsC2Ev
libicui18n.so.67:_ZN6icu_6720DecimalFormatSymbolsD0Ev
libicui18n.so.67:_ZN6icu_6720DecimalFormatSymbolsD1Ev
libicui18n.so.67:_ZN6icu_6720DecimalFormatSymbolsD2Ev
libicui18n.so.67:_ZN6icu_6720DecimalFormatSymbolsaSERKS0_
libicui18n.so.67:_ZN6icu_6720EscapeTransliterator11registerIDsEv
libicui18n.so.67:_ZN6icu_6720EscapeTransliterator16getStaticClassIDEv
libicui18n.so.67:_ZN6icu_6720EscapeTransliteratorC1ERKNS_13UnicodeStringES3_S3_iiaPS0_
libicui18n.so.67:_ZN6icu_6720EscapeTransliteratorC1ERKS0_
libicui18n.so.67:_ZN6icu_6720EscapeTransliteratorC2ERKNS_13UnicodeStringES3_S3_iiaPS0_
libicui18n.so.67:_ZN6icu_6720EscapeTransliteratorC2ERKS0_
libicui18n.so.67:_ZN6icu_6720EscapeTransliteratorD0Ev
libicui18n.so.67:_ZN6icu_6720EscapeTransliteratorD1Ev
libicui18n.so.67:_ZN6icu_6720EscapeTransliteratorD2Ev
libicui18n.so.67:_ZN6icu_6720FieldPositionHandler8setShiftEi
libicui18n.so.67:_ZN6icu_6720FieldPositionHandlerD0Ev
libicui18n.so.67:_ZN6icu_6720FieldPositionHandlerD1Ev
libicui18n.so.67:_ZN6icu_6720FieldPositionHandlerD2Ev
libicui18n.so.67:_ZN6icu_6720GenderInfo_initCacheER10UErrorCode
libicui18n.so.67:_ZN6icu_6720MessageFormatAdapter14getArgTypeListERKNS_13MessageFormatERi
libicui18n.so.67:_ZN6icu_6720MoonRiseSetCoordFuncD0Ev
libicui18n.so.67:_ZN6icu_6720MoonRiseSetCoordFuncD1Ev
libicui18n.so.67:_ZN6icu_6720MoonRiseSetCoordFuncD2Ev
libicui18n.so.67:_ZN6icu_6720RemoveTransliterator11registerIDsEv
libicui18n.so.67:_ZN6icu_6720RemoveTransliterator16getStaticClassIDEv
libicui18n.so.67:_ZN6icu_6720RemoveTransliteratorC1Ev
libicui18n.so.67:_ZN6icu_6720RemoveTransliteratorC2Ev
libicui18n.so.67:_ZN6icu_6720RemoveTransliteratorD0Ev
libicui18n.so.67:_ZN6icu_6720RemoveTransliteratorD1Ev
libicui18n.so.67:_ZN6icu_6720RemoveTransliteratorD2Ev
libicui18n.so.67:_ZN6icu_6720TimeZoneGenericNames14createInstanceERKNS_6LocaleER10UErrorCode
libicui18n.so.67:_ZN6icu_6720TimeZoneGenericNamesC1Ev
libicui18n.so.67:_ZN6icu_6720TimeZoneGenericNamesC2Ev
libicui18n.so.67:_ZN6icu_6720TimeZoneGenericNamesD0Ev
libicui18n.so.67:_ZN6icu_6720TimeZoneGenericNamesD1Ev
libicui18n.so.67:_ZN6icu_6720TimeZoneGenericNamesD2Ev
libicui18n.so.67:_ZN6icu_6720TransliteratorParser10parseRulesERKNS_13UnicodeStringE15UTransDirectionR10UErrorCode
libicui18n.so.67:_ZN6icu_6720TransliteratorParser11parsePragmaERKNS_13UnicodeStringEiiR10UErrorCode
libicui18n.so.67:_ZN6icu_6720TransliteratorParser11syntaxErrorE10UErrorCodeRKNS_13UnicodeStringEiRS1_
libicui18n.so.67:_ZN6icu_6720TransliteratorParser13getDotStandInER10UErrorCode
libicui18n.so.67:_ZN6icu_6720TransliteratorParser15resemblesPragmaERKNS_13UnicodeStringEii
libicui18n.so.67:_ZN6icu_6720TransliteratorParser16setSegmentObjectEiPNS_13StringMatcherER10UErrorCode
libicui18n.so.67:_ZN6icu_6720TransliteratorParser16setVariableRangeEiiR10UErrorCode
libicui18n.so.67:_ZN6icu_6720TransliteratorParser17appendVariableDefERKNS_13UnicodeStringERS1_R10UErrorCode
libicui18n.so.67:_ZN6icu_6720TransliteratorParser17getSegmentStandinEiR10UErrorCode
libicui18n.so.67:_ZN6icu_6720TransliteratorParser18generateStandInForEPNS_14UnicodeFunctorER10UErrorCode
libicui18n.so.67:_ZN6icu_6720TransliteratorParser19pragmaMaximumBackupEi
libicui18n.so.67:_ZN6icu_6720TransliteratorParser20orphanCompoundFilterEv
libicui18n.so.67:_ZN6icu_6720TransliteratorParser20pragmaNormalizeRulesE18UNormalizationMode
libicui18n.so.67:_ZN6icu_6720TransliteratorParser5parseERKNS_13UnicodeStringE15UTransDirectionR11UParseErrorR10UErrorCode
libicui18n.so.67:_ZN6icu_6720TransliteratorParser8parseSetERKNS_13UnicodeStringERNS_13ParsePositionER10UErrorCode
libicui18n.so.67:_ZN6icu_6720TransliteratorParser9parseRuleERKNS_13UnicodeStringEiiR10UErrorCode
libicui18n.so.67:_ZN6icu_6720TransliteratorParserC1ER10UErrorCode
libicui18n.so.67:_ZN6icu_6720TransliteratorParserC2ER10UErrorCode
libicui18n.so.67:_ZN6icu_6720TransliteratorParserD1Ev
libicui18n.so.67:_ZN6icu_6720TransliteratorParserD2Ev
libicui18n.so.67:_ZN6icu_6721CaseMapTransliterator16getStaticClassIDEv
libicui18n.so.67:_ZN6icu_6721CaseMapTransliteratorC1ERKNS_13UnicodeStringEPFiiPFiPvaES4_PPKDsiE
libicui18n.so.67:_ZN6icu_6721CaseMapTransliteratorC1ERKS0_
libicui18n.so.67:_ZN6icu_6721CaseMapTransliteratorC2ERKNS_13UnicodeStringEPFiiPFiPvaES4_PPKDsiE
libicui18n.so.67:_ZN6icu_6721CaseMapTransliteratorC2ERKS0_
libicui18n.so.67:_ZN6icu_6721CaseMapTransliteratorD0Ev
libicui18n.so.67:_ZN6icu_6721CaseMapTransliteratorD1Ev
libicui18n.so.67:_ZN6icu_6721CaseMapTransliteratorD2Ev
libicui18n.so.67:_ZN6icu_6721CharsetRecog_gb_18030D0Ev
libicui18n.so.67:_ZN6icu_6721CharsetRecog_gb_18030D1Ev
libicui18n.so.67:_ZN6icu_6721CharsetRecog_gb_18030D2Ev
libicui18n.so.67:_ZN6icu_6721ConfusabledataBuilder10outputDataER10UErrorCode
libicui18n.so.67:_ZN6icu_6721ConfusabledataBuilder19buildConfusableDataEPNS_9SpoofImplEPKciPiP11UParseErrorR10UErrorCode
libicui18n.so.67:_ZN6icu_6721ConfusabledataBuilder5buildEPKciR10UErrorCode
libicui18n.so.67:_ZN6icu_6721ConfusabledataBuilderC1EPNS_9SpoofImplER10UErrorCode
libicui18n.so.67:_ZN6icu_6721ConfusabledataBuilderC2EPNS_9SpoofImplER10UErrorCode
libicui18n.so.67:_ZN6icu_6721ConfusabledataBuilderD1Ev
libicui18n.so.67:_ZN6icu_6721ConfusabledataBuilderD2Ev
libicui18n.so.67:_ZN6icu_6721DTSkeletonEnumeration15isCanonicalItemERKNS_13UnicodeStringE
libicui18n.so.67:_ZN6icu_6721DTSkeletonEnumeration16getStaticClassIDEv
libicui18n.so.67:_ZN6icu_6721DTSkeletonEnumeration5resetER10UErrorCode
libicui18n.so.67:_ZN6icu_6721DTSkeletonEnumeration5snextER10UErrorCode
libicui18n.so.67:_ZN6icu_6721DTSkeletonEnumerationC1ERNS_10PatternMapENS_9dtStrEnumER10UErrorCode
libicui18n.so.67:_ZN6icu_6721DTSkeletonEnumerationC2ERNS_10PatternMapENS_9dtStrEnumER10UErrorCode
libicui18n.so.67:_ZN6icu_6721DTSkeletonEnumerationD0Ev
libicui18n.so.67:_ZN6icu_6721DTSkeletonEnumerationD1Ev
libicui18n.so.67:_ZN6icu_6721DTSkeletonEnumerationD2Ev
libicui18n.so.67:_ZN6icu_6721DateFmtBestPatternKeyD0Ev
libicui18n.so.67:_ZN6icu_6721DateFmtBestPatternKeyD1Ev
libicui18n.so.67:_ZN6icu_6721DateFmtBestPatternKeyD2Ev
libicui18n.so.67:_ZN6icu_6721FieldPositionIterator4nextERNS_13FieldPositionE
libicui18n.so.67:_ZN6icu_6721FieldPositionIterator7setDataEPNS_9UVector32ER10UErrorCode
libicui18n.so.67:_ZN6icu_6721FieldPositionIteratorC1ERKS0_
libicui18n.so.67:_ZN6icu_6721FieldPositionIteratorC1Ev
libicui18n.so.67:_ZN6icu_6721FieldPositionIteratorC2ERKS0_
libicui18n.so.67:_ZN6icu_6721FieldPositionIteratorC2Ev
libicui18n.so.67:_ZN6icu_6721FieldPositionIteratorD0Ev
libicui18n.so.67:_ZN6icu_6721FieldPositionIteratorD1Ev
libicui18n.so.67:_ZN6icu_6721FieldPositionIteratorD2Ev
libicui18n.so.67:_ZN6icu_6721FormatNameEnumeration16getStaticClassIDEv
libicui18n.so.67:_ZN6icu_6721FormatNameEnumeration5resetER10UErrorCode
libicui18n.so.67:_ZN6icu_6721FormatNameEnumeration5snextER10UErrorCode
libicui18n.so.67:_ZN6icu_6721FormatNameEnumerationC1EPNS_7UVectorER10UErrorCode
libicui18n.so.67:_ZN6icu_6721FormatNameEnumerationC2EPNS_7UVectorER10UErrorCode
libicui18n.so.67:_ZN6icu_6721FormatNameEnumerationD0Ev
libicui18n.so.67:_ZN6icu_6721FormatNameEnumerationD1Ev
libicui18n.so.67:_ZN6icu_6721FormatNameEnumerationD2Ev
libicui18n.so.67:_ZN6icu_6721FormattedDateIntervalC1EOS0_
libicui18n.so.67:_ZN6icu_6721FormattedDateIntervalC2EOS0_
libicui18n.so.67:_ZN6icu_6721FormattedDateIntervalD0Ev
libicui18n.so.67:_ZN6icu_6721FormattedDateIntervalD1Ev
libicui18n.so.67:_ZN6icu_6721FormattedDateIntervalD2Ev
libicui18n.so.67:_ZN6icu_6721FormattedDateIntervalaSEOS0_
libicui18n.so.67:_ZN6icu_6721NumeratorSubstitution16getStaticClassIDEv
libicui18n.so.67:_ZN6icu_6721NumeratorSubstitutionD0Ev
libicui18n.so.67:_ZN6icu_6721NumeratorSubstitutionD1Ev
libicui18n.so.67:_ZN6icu_6721NumeratorSubstitutionD2Ev
libicui18n.so.67:_ZN6icu_6721NumsysNameEnumeration16getStaticClassIDEv
libicui18n.so.67:_ZN6icu_6721NumsysNameEnumeration5resetER10UErrorCode
libicui18n.so.67:_ZN6icu_6721NumsysNameEnumeration5snextER10UErrorCode
libicui18n.so.67:_ZN6icu_6721NumsysNameEnumerationC1ER10UErrorCode
libicui18n.so.67:_ZN6icu_6721NumsysNameEnumerationC2ER10UErrorCode
libicui18n.so.67:_ZN6icu_6721NumsysNameEnumerationD0Ev
libicui18n.so.67:_ZN6icu_6721NumsysNameEnumerationD1Ev
libicui18n.so.67:_ZN6icu_6721NumsysNameEnumerationD2Ev
libicui18n.so.67:_ZN6icu_6721RegionNameEnumeration16getStaticClassIDEv
libicui18n.so.67:_ZN6icu_6721RegionNameEnumeration5resetER10UErrorCode
libicui18n.so.67:_ZN6icu_6721RegionNameEnumeration5snextER10UErrorCode
libicui18n.so.67:_ZN6icu_6721RegionNameEnumerationC1EPNS_7UVectorER10UErrorCode
libicui18n.so.67:_ZN6icu_6721RegionNameEnumerationC2EPNS_7UVectorER10UErrorCode
libicui18n.so.67:_ZN6icu_6721RegionNameEnumerationD0Ev
libicui18n.so.67:_ZN6icu_6721RegionNameEnumerationD1Ev
libicui18n.so.67:_ZN6icu_6721RegionNameEnumerationD2Ev
libicui18n.so.67:_ZN6icu_6721RuleBasedNumberFormat10setContextE15UDisplayContextR10UErrorCode
libicui18n.so.67:_ZN6icu_6721RuleBasedNumberFormat10setLenientEa
libicui18n.so.67:_ZN6icu_6721RuleBasedNumberFormat15setRoundingModeENS_12NumberFormat13ERoundingModeE
libicui18n.so.67:_ZN6icu_6721RuleBasedNumberFormat15stripWhitespaceERNS_13UnicodeStringE
libicui18n.so.67:_ZN6icu_6721RuleBasedNumberFormat16getStaticClassIDEv
libicui18n.so.67:_ZN6icu_6721RuleBasedNumberFormat17setDefaultRuleSetERKNS_13UnicodeStringER10UErrorCode
libicui18n.so.67:_ZN6icu_6721RuleBasedNumberFormat18initDefaultRuleSetEv
libicui18n.so.67:_ZN6icu_6721RuleBasedNumberFormat21getRuleSetDisplayNameERKNS_13UnicodeStringERKNS_6LocaleE
libicui18n.so.67:_ZN6icu_6721RuleBasedNumberFormat21getRuleSetDisplayNameEiRKNS_6LocaleE
libicui18n.so.67:_ZN6icu_6721RuleBasedNumberFormat23setDecimalFormatSymbolsERKNS_20DecimalFormatSymbolsE
libicui18n.so.67:_ZN6icu_6721RuleBasedNumberFormat24initializeDefaultNaNRuleER10UErrorCode
libicui18n.so.67:_ZN6icu_6721RuleBasedNumberFormat25adoptDecimalFormatSymbolsEPNS_20DecimalFormatSymbolsE
libicui18n.so.67:_ZN6icu_6721RuleBasedNumberFormat29initCapitalizationContextInfoERKNS_6LocaleE
libicui18n.so.67:_ZN6icu_6721RuleBasedNumberFormat29initializeDefaultInfinityRuleER10UErrorCode
libicui18n.so.67:_ZN6icu_6721RuleBasedNumberFormat30initializeDecimalFormatSymbolsER10UErrorCode
libicui18n.so.67:_ZN6icu_6721RuleBasedNumberFormat4initERKNS_13UnicodeStringEPNS_16LocalizationInfoER11UParseErrorR10UErrorCode
libicui18n.so.67:_ZN6icu_6721RuleBasedNumberFormat7disposeEv
libicui18n.so.67:_ZN6icu_6721RuleBasedNumberFormatC1ENS_15URBNFRuleSetTagERKNS_6LocaleER10UErrorCode
libicui18n.so.67:_ZN6icu_6721RuleBasedNumberFormatC1ERKNS_13UnicodeStringEPNS_16LocalizationInfoERKNS_6LocaleER11UParseErrorR10UErrorCode
libicui18n.so.67:_ZN6icu_6721RuleBasedNumberFormatC1ERKNS_13UnicodeStringER11UParseErrorR10UErrorCode
libicui18n.so.67:_ZN6icu_6721RuleBasedNumberFormatC1ERKNS_13UnicodeStringERKNS_6LocaleER11UParseErrorR10UErrorCode
libicui18n.so.67:_ZN6icu_6721RuleBasedNumberFormatC1ERKNS_13UnicodeStringES3_R11UParseErrorR10UErrorCode
libicui18n.so.67:_ZN6icu_6721RuleBasedNumberFormatC1ERKNS_13UnicodeStringES3_RKNS_6LocaleER11UParseErrorR10UErrorCode
libicui18n.so.67:_ZN6icu_6721RuleBasedNumberFormatC1ERKS0_
libicui18n.so.67:_ZN6icu_6721RuleBasedNumberFormatC2ENS_15URBNFRuleSetTagERKNS_6LocaleER10UErrorCode
libicui18n.so.67:_ZN6icu_6721RuleBasedNumberFormatC2ERKNS_13UnicodeStringEPNS_16LocalizationInfoERKNS_6LocaleER11UParseErrorR10UErrorCode
libicui18n.so.67:_ZN6icu_6721RuleBasedNumberFormatC2ERKNS_13UnicodeStringER11UParseErrorR10UErrorCode
libicui18n.so.67:_ZN6icu_6721RuleBasedNumberFormatC2ERKNS_13UnicodeStringERKNS_6LocaleER11UParseErrorR10UErrorCode
libicui18n.so.67:_ZN6icu_6721RuleBasedNumberFormatC2ERKNS_13UnicodeStringES3_R11UParseErrorR10UErrorCode
libicui18n.so.67:_ZN6icu_6721RuleBasedNumberFormatC2ERKNS_13UnicodeStringES3_RKNS_6LocaleER11UParseErrorR10UErrorCode
libicui18n.so.67:_ZN6icu_6721RuleBasedNumberFormatC2ERKS0_
libicui18n.so.67:_ZN6icu_6721RuleBasedNumberFormatD0Ev
libicui18n.so.67:_ZN6icu_6721RuleBasedNumberFormatD1Ev
libicui18n.so.67:_ZN6icu_6721RuleBasedNumberFormatD2Ev
libicui18n.so.67:_ZN6icu_6721RuleBasedNumberFormataSERKS0_
libicui18n.so.67:_ZN6icu_6721SameValueSubstitution16getStaticClassIDEv
libicui18n.so.67:_ZN6icu_6721SameValueSubstitutionC1EiPKNS_9NFRuleSetERKNS_13UnicodeStringER10UErrorCode
libicui18n.so.67:_ZN6icu_6721SameValueSubstitutionC2EiPKNS_9NFRuleSetERKNS_13UnicodeStringER10UErrorCode
libicui18n.so.67:_ZN6icu_6721SameValueSubstitutionD0Ev
libicui18n.so.67:_ZN6icu_6721SameValueSubstitutionD1Ev
libicui18n.so.67:_ZN6icu_6721SameValueSubstitutionD2Ev
libicui18n.so.67:_ZN6icu_6721TZDBNameSearchHandler10getMatchesERi
libicui18n.so.67:_ZN6icu_6721TZDBNameSearchHandler11handleMatchEiPKNS_13CharacterNodeER10UErrorCode
libicui18n.so.67:_ZN6icu_6721TZDBNameSearchHandlerC1EjPKc
libicui18n.so.67:_ZN6icu_6721TZDBNameSearchHandlerC2EjPKc
libicui18n.so.67:_ZN6icu_6721TZDBNameSearchHandlerD0Ev
libicui18n.so.67:_ZN6icu_6721TZDBNameSearchHandlerD1Ev
libicui18n.so.67:_ZN6icu_6721TZDBNameSearchHandlerD2Ev
libicui18n.so.67:_ZN6icu_6721TimeArrayTimeZoneRule14initStartTimesEPKdiR10UErrorCode
libicui18n.so.67:_ZN6icu_6721TimeArrayTimeZoneRule16getStaticClassIDEv
libicui18n.so.67:_ZN6icu_6721TimeArrayTimeZoneRuleC1ERKNS_13UnicodeStringEiiPKdiNS_12DateTimeRule12TimeRuleTypeE
libicui18n.so.67:_ZN6icu_6721TimeArrayTimeZoneRuleC1ERKS0_
libicui18n.so.67:_ZN6icu_6721TimeArrayTimeZoneRuleC2ERKNS_13UnicodeStringEiiPKdiNS_12DateTimeRule12TimeRuleTypeE
libicui18n.so.67:_ZN6icu_6721TimeArrayTimeZoneRuleC2ERKS0_
libicui18n.so.67:_ZN6icu_6721TimeArrayTimeZoneRuleD0Ev
libicui18n.so.67:_ZN6icu_6721TimeArrayTimeZoneRuleD1Ev
libicui18n.so.67:_ZN6icu_6721TimeArrayTimeZoneRuleD2Ev
libicui18n.so.67:_ZN6icu_6721TimeArrayTimeZoneRuleaSERKS0_
libicui18n.so.67:_ZN6icu_6721TimeZoneNamesDelegate19loadAllDisplayNamesER10UErrorCode
libicui18n.so.67:_ZN6icu_6721TimeZoneNamesDelegateC1ERKNS_6LocaleER10UErrorCode
libicui18n.so.67:_ZN6icu_6721TimeZoneNamesDelegateC1Ev
libicui18n.so.67:_ZN6icu_6721TimeZoneNamesDelegateC2ERKNS_6LocaleER10UErrorCode
libicui18n.so.67:_ZN6icu_6721TimeZoneNamesDelegateC2Ev
libicui18n.so.67:_ZN6icu_6721TimeZoneNamesDelegateD0Ev
libicui18n.so.67:_ZN6icu_6721TimeZoneNamesDelegateD1Ev
libicui18n.so.67:_ZN6icu_6721TimeZoneNamesDelegateD2Ev
libicui18n.so.67:_ZN6icu_6721UTF8CollationIterator13nextCodePointER10UErrorCode
libicui18n.so.67:_ZN6icu_6721UTF8CollationIterator13resetToOffsetEi
libicui18n.so.67:_ZN6icu_6721UTF8CollationIterator14handleNextCE32ERiR10UErrorCode
libicui18n.so.67:_ZN6icu_6721UTF8CollationIterator17previousCodePointER10UErrorCode
libicui18n.so.67:_ZN6icu_6721UTF8CollationIterator18foundNULTerminatorEv
libicui18n.so.67:_ZN6icu_6721UTF8CollationIterator20forwardNumCodePointsEiR10UErrorCode
libicui18n.so.67:_ZN6icu_6721UTF8CollationIterator21backwardNumCodePointsEiR10UErrorCode
libicui18n.so.67:_ZN6icu_6721UTF8CollationIteratorD0Ev
libicui18n.so.67:_ZN6icu_6721UTF8CollationIteratorD1Ev
libicui18n.so.67:_ZN6icu_6721UTF8CollationIteratorD2Ev
libicui18n.so.67:_ZN6icu_6722CharsetRecog_8859_5_ruD0Ev
libicui18n.so.67:_ZN6icu_6722CharsetRecog_8859_5_ruD1Ev
libicui18n.so.67:_ZN6icu_6722CharsetRecog_8859_5_ruD2Ev
libicui18n.so.67:_ZN6icu_6722CharsetRecog_8859_6_arD0Ev
libicui18n.so.67:_ZN6icu_6722CharsetRecog_8859_6_arD1Ev
libicui18n.so.67:_ZN6icu_6722CharsetRecog_8859_6_arD2Ev
libicui18n.so.67:_ZN6icu_6722CharsetRecog_8859_7_elD0Ev
libicui18n.so.67:_ZN6icu_6722CharsetRecog_8859_7_elD1Ev
libicui18n.so.67:_ZN6icu_6722CharsetRecog_8859_7_elD2Ev
libicui18n.so.67:_ZN6icu_6722CharsetRecog_8859_8_heD0Ev
libicui18n.so.67:_ZN6icu_6722CharsetRecog_8859_8_heD1Ev
libicui18n.so.67:_ZN6icu_6722CharsetRecog_8859_8_heD2Ev
libicui18n.so.67:_ZN6icu_6722CharsetRecog_8859_9_trD0Ev
libicui18n.so.67:_ZN6icu_6722CharsetRecog_8859_9_trD1Ev
libicui18n.so.67:_ZN6icu_6722CharsetRecog_8859_9_trD2Ev
libicui18n.so.67:_ZN6icu_6722CharsetRecog_IBM420_arD0Ev
libicui18n.so.67:_ZN6icu_6722CharsetRecog_IBM420_arD1Ev
libicui18n.so.67:_ZN6icu_6722CharsetRecog_IBM420_arD2Ev
libicui18n.so.67:_ZN6icu_6722CharsetRecog_IBM424_heD0Ev
libicui18n.so.67:_ZN6icu_6722CharsetRecog_IBM424_heD1Ev
libicui18n.so.67:_ZN6icu_6722CharsetRecog_IBM424_heD2Ev
libicui18n.so.67:_ZN6icu_6722CharsetRecog_UTF_16_BED0Ev
libicui18n.so.67:_ZN6icu_6722CharsetRecog_UTF_16_BED1Ev
libicui18n.so.67:_ZN6icu_6722CharsetRecog_UTF_16_BED2Ev
libicui18n.so.67:_ZN6icu_6722CharsetRecog_UTF_16_LED0Ev
libicui18n.so.67:_ZN6icu_6722CharsetRecog_UTF_16_LED1Ev
libicui18n.so.67:_ZN6icu_6722CharsetRecog_UTF_16_LED2Ev
libicui18n.so.67:_ZN6icu_6722CharsetRecog_UTF_32_BED0Ev
libicui18n.so.67:_ZN6icu_6722CharsetRecog_UTF_32_BED1Ev
libicui18n.so.67:_ZN6icu_6722CharsetRecog_UTF_32_BED2Ev
libicui18n.so.67:_ZN6icu_6722CharsetRecog_UTF_32_LED0Ev
libicui18n.so.67:_ZN6icu_6722CharsetRecog_UTF_32_LED1Ev
libicui18n.so.67:_ZN6icu_6722CharsetRecog_UTF_32_LED2Ev
libicui18n.so.67:_ZN6icu_6722CompoundTransliterator16getStaticClassIDEv
libicui18n.so.67:_ZN6icu_6722CompoundTransliterator18setTransliteratorsEPKPNS_14TransliteratorEi
libicui18n.so.67:_ZN6icu_6722CompoundTransliterator19freeTransliteratorsEv
libicui18n.so.67:_ZN6icu_6722CompoundTransliterator20adoptTransliteratorsEPPNS_14TransliteratorEi
libicui18n.so.67:_ZN6icu_6722CompoundTransliterator27computeMaximumContextLengthEv
libicui18n.so.67:_ZN6icu_6722CompoundTransliterator4initERKNS_13UnicodeStringE15UTransDirectionaR10UErrorCode
libicui18n.so.67:_ZN6icu_6722CompoundTransliterator4initERNS_7UVectorE15UTransDirectionaR10UErrorCode
libicui18n.so.67:_ZN6icu_6722CompoundTransliterator7joinIDsEPKPNS_14TransliteratorEi
libicui18n.so.67:_ZN6icu_6722CompoundTransliteratorC1EPKPNS_14TransliteratorEiPNS_13UnicodeFilterE
libicui18n.so.67:_ZN6icu_6722CompoundTransliteratorC1ERKNS_13UnicodeStringE15UTransDirectionPNS_13UnicodeFilterER11UParseErrorR10UErrorCode
libicui18n.so.67:_ZN6icu_6722CompoundTransliteratorC1ERKNS_13UnicodeStringER11UParseErrorR10UErrorCode
libicui18n.so.67:_ZN6icu_6722CompoundTransliteratorC1ERKNS_13UnicodeStringERNS_7UVectorEPNS_13UnicodeFilterEiR11UParseErrorR10UErrorCode
libicui18n.so.67:_ZN6icu_6722CompoundTransliteratorC1ERKS0_
libicui18n.so.67:_ZN6icu_6722CompoundTransliteratorC1ERNS_7UVectorER11UParseErrorR10UErrorCode
libicui18n.so.67:_ZN6icu_6722CompoundTransliteratorC1ERNS_7UVectorEiR11UParseErrorR10UErrorCode
libicui18n.so.67:_ZN6icu_6722CompoundTransliteratorC2EPKPNS_14TransliteratorEiPNS_13UnicodeFilterE
libicui18n.so.67:_ZN6icu_6722CompoundTransliteratorC2ERKNS_13UnicodeStringE15UTransDirectionPNS_13UnicodeFilterER11UParseErrorR10UErrorCode
libicui18n.so.67:_ZN6icu_6722CompoundTransliteratorC2ERKNS_13UnicodeStringER11UParseErrorR10UErrorCode
libicui18n.so.67:_ZN6icu_6722CompoundTransliteratorC2ERKNS_13UnicodeStringERNS_7UVectorEPNS_13UnicodeFilterEiR11UParseErrorR10UErrorCode
libicui18n.so.67:_ZN6icu_6722CompoundTransliteratorC2ERKS0_
libicui18n.so.67:_ZN6icu_6722CompoundTransliteratorC2ERNS_7UVectorER11UParseErrorR10UErrorCode
libicui18n.so.67:_ZN6icu_6722CompoundTransliteratorC2ERNS_7UVectorEiR11UParseErrorR10UErrorCode
libicui18n.so.67:_ZN6icu_6722CompoundTransliteratorD0Ev
libicui18n.so.67:_ZN6icu_6722CompoundTransliteratorD1Ev
libicui18n.so.67:_ZN6icu_6722CompoundTransliteratorD2Ev
libicui18n.so.67:_ZN6icu_6722CompoundTransliteratoraSERKS0_
libicui18n.so.67:_ZN6icu_6722DTRedundantEnumeration16getStaticClassIDEv
libicui18n.so.67:_ZN6icu_6722DTRedundantEnumeration3addERKNS_13UnicodeStringER10UErrorCode
libicui18n.so.67:_ZN6icu_6722DTRedundantEnumeration5resetER10UErrorCode
libicui18n.so.67:_ZN6icu_6722DTRedundantEnumeration5snextER10UErrorCode
libicui18n.so.67:_ZN6icu_6722DTRedundantEnumerationC1Ev
libicui18n.so.67:_ZN6icu_6722DTRedundantEnumerationC2Ev
libicui18n.so.67:_ZN6icu_6722DTRedundantEnumerationD0Ev
libicui18n.so.67:_ZN6icu_6722DTRedundantEnumerationD1Ev
libicui18n.so.67:_ZN6icu_6722DTRedundantEnumerationD2Ev
libicui18n.so.67:_ZN6icu_6722DayPeriodRulesDataSinkD0Ev
libicui18n.so.67:_ZN6icu_6722DayPeriodRulesDataSinkD1Ev
libicui18n.so.67:_ZN6icu_6722DayPeriodRulesDataSinkD2Ev
libicui18n.so.67:_ZN6icu_6722DefaultCalendarFactoryD0Ev
libicui18n.so.67:_ZN6icu_6722DefaultCalendarFactoryD1Ev
libicui18n.so.67:_ZN6icu_6722DefaultCalendarFactoryD2Ev
libicui18n.so.67:_ZN6icu_6722FormattedStringBuilder15insertCodePointEiiNS0_5FieldER10UErrorCode
libicui18n.so.67:_ZN6icu_6722FormattedStringBuilder15writeTerminatorER10UErrorCode
libicui18n.so.67:_ZN6icu_6722FormattedStringBuilder16prepareForInsertEiiR10UErrorCode
libicui18n.so.67:_ZN6icu_6722FormattedStringBuilder22prepareForInsertHelperEiiR10UErrorCode
libicui18n.so.67:_ZN6icu_6722FormattedStringBuilder5clearEv
libicui18n.so.67:_ZN6icu_6722FormattedStringBuilder6appendERKS0_R10UErrorCode
libicui18n.so.67:_ZN6icu_6722FormattedStringBuilder6insertEiRKNS_13UnicodeStringENS0_5FieldER10UErrorCode
libicui18n.so.67:_ZN6icu_6722FormattedStringBuilder6insertEiRKNS_13UnicodeStringEiiNS0_5FieldER10UErrorCode
libicui18n.so.67:_ZN6icu_6722FormattedStringBuilder6insertEiRKS0_R10UErrorCode
libicui18n.so.67:_ZN6icu_6722FormattedStringBuilder6removeEii
libicui18n.so.67:_ZN6icu_6722FormattedStringBuilder6spliceEiiRKNS_13UnicodeStringEiiNS0_5FieldER10UErrorCode
libicui18n.so.67:_ZN6icu_6722FormattedStringBuilderC1ERKS0_
libicui18n.so.67:_ZN6icu_6722FormattedStringBuilderC1Ev
libicui18n.so.67:_ZN6icu_6722FormattedStringBuilderC2ERKS0_
libicui18n.so.67:_ZN6icu_6722FormattedStringBuilderC2Ev
libicui18n.so.67:_ZN6icu_6722FormattedStringBuilderD1Ev
libicui18n.so.67:_ZN6icu_6722FormattedStringBuilderD2Ev
libicui18n.so.67:_ZN6icu_6722FormattedStringBuilderaSERKS0_
libicui18n.so.67:_ZN6icu_6722ICUNumberFormatFactoryD0Ev
libicui18n.so.67:_ZN6icu_6722ICUNumberFormatFactoryD1Ev
libicui18n.so.67:_ZN6icu_6722ICUNumberFormatFactoryD2Ev
libicui18n.so.67:_ZN6icu_6722ICUNumberFormatServiceD0Ev
libicui18n.so.67:_ZN6icu_6722ICUNumberFormatServiceD1Ev
libicui18n.so.67:_ZN6icu_6722ICUNumberFormatServiceD2Ev
libicui18n.so.67:_ZN6icu_6722MeasureFormatCacheDataC1Ev
libicui18n.so.67:_ZN6icu_6722MeasureFormatCacheDataC2Ev
libicui18n.so.67:_ZN6icu_6722MeasureFormatCacheDataD0Ev
libicui18n.so.67:_ZN6icu_6722MeasureFormatCacheDataD1Ev
libicui18n.so.67:_ZN6icu_6722MeasureFormatCacheDataD2Ev
libicui18n.so.67:_ZN6icu_6722MetaZoneIDsEnumeration16getStaticClassIDEv
libicui18n.so.67:_ZN6icu_6722MetaZoneIDsEnumeration5resetER10UErrorCode
libicui18n.so.67:_ZN6icu_6722MetaZoneIDsEnumeration5snextER10UErrorCode
libicui18n.so.67:_ZN6icu_6722MetaZoneIDsEnumerationC1EPNS_7UVectorE
libicui18n.so.67:_ZN6icu_6722MetaZoneIDsEnumerationC1ERKNS_7UVectorE
libicui18n.so.67:_ZN6icu_6722MetaZoneIDsEnumerationC1Ev
libicui18n.so.67:_ZN6icu_6722MetaZoneIDsEnumerationC2EPNS_7UVectorE
libicui18n.so.67:_ZN6icu_6722MetaZoneIDsEnumerationC2ERKNS_7UVectorE
libicui18n.so.67:_ZN6icu_6722MetaZoneIDsEnumerationC2Ev
libicui18n.so.67:_ZN6icu_6722MetaZoneIDsEnumerationD0Ev
libicui18n.so.67:_ZN6icu_6722MetaZoneIDsEnumerationD1Ev
libicui18n.so.67:_ZN6icu_6722MetaZoneIDsEnumerationD2Ev
libicui18n.so.67:_ZN6icu_6722MultiplierSubstitution16getStaticClassIDEv
libicui18n.so.67:_ZN6icu_6722MultiplierSubstitutionD0Ev
libicui18n.so.67:_ZN6icu_6722MultiplierSubstitutionD1Ev
libicui18n.so.67:_ZN6icu_6722MultiplierSubstitutionD2Ev
libicui18n.so.67:_ZN6icu_6722StringLocalizationInfo6createERKNS_13UnicodeStringER11UParseErrorR10UErrorCode
libicui18n.so.67:_ZN6icu_6722StringLocalizationInfoD0Ev
libicui18n.so.67:_ZN6icu_6722StringLocalizationInfoD1Ev
libicui18n.so.67:_ZN6icu_6722StringLocalizationInfoD2Ev
libicui18n.so.67:_ZN6icu_6722TimeUnitFormatReadSinkD0Ev
libicui18n.so.67:_ZN6icu_6722TimeUnitFormatReadSinkD1Ev
libicui18n.so.67:_ZN6icu_6722TimeUnitFormatReadSinkD2Ev
libicui18n.so.67:_ZN6icu_6722TransliterationRuleSet13transliterateERNS_11ReplaceableER14UTransPositiona
libicui18n.so.67:_ZN6icu_6722TransliterationRuleSet6freezeER11UParseErrorR10UErrorCode
libicui18n.so.67:_ZN6icu_6722TransliterationRuleSet7addRuleEPNS_19TransliterationRuleER10UErrorCode
libicui18n.so.67:_ZN6icu_6722TransliterationRuleSet7setDataEPKNS_23TransliterationRuleDataE
libicui18n.so.67:_ZN6icu_6722TransliterationRuleSetC1ER10UErrorCode
libicui18n.so.67:_ZN6icu_6722TransliterationRuleSetC1ERKS0_
libicui18n.so.67:_ZN6icu_6722TransliterationRuleSetC2ER10UErrorCode
libicui18n.so.67:_ZN6icu_6722TransliterationRuleSetC2ERKS0_
libicui18n.so.67:_ZN6icu_6722TransliterationRuleSetD0Ev
libicui18n.so.67:_ZN6icu_6722TransliterationRuleSetD1Ev
libicui18n.so.67:_ZN6icu_6722TransliterationRuleSetD2Ev
libicui18n.so.67:_ZN6icu_6722TransliteratorIDParser13parseFilterIDERKNS_13UnicodeStringERi
libicui18n.so.67:_ZN6icu_6722TransliteratorIDParser13parseFilterIDERKNS_13UnicodeStringERia
libicui18n.so.67:_ZN6icu_6722TransliteratorIDParser13parseSingleIDERKNS_13UnicodeStringERiiR10UErrorCode
libicui18n.so.67:_ZN6icu_6722TransliteratorIDParser15instantiateListERNS_7UVectorER10UErrorCode
libicui18n.so.67:_ZN6icu_6722TransliteratorIDParser15parseCompoundIDERKNS_13UnicodeStringEiRS1_RNS_7UVectorERPNS_10UnicodeSetE
libicui18n.so.67:_ZN6icu_6722TransliteratorIDParser17parseGlobalFilterERKNS_13UnicodeStringERiiS4_PS1_
libicui18n.so.67:_ZN6icu_6722TransliteratorIDParser19createBasicInstanceERKNS_13UnicodeStringEPS2_
libicui18n.so.67:_ZN6icu_6722TransliteratorIDParser21specsToSpecialInverseERKNS0_5SpecsER10UErrorCode
libicui18n.so.67:_ZN6icu_6722TransliteratorIDParser22registerSpecialInverseERKNS_13UnicodeStringES3_aR10UErrorCode
libicui18n.so.67:_ZN6icu_6722TransliteratorIDParser4initER10UErrorCode
libicui18n.so.67:_ZN6icu_6722TransliteratorIDParser5SpecsC1ERKNS_13UnicodeStringES4_S4_aS4_
libicui18n.so.67:_ZN6icu_6722TransliteratorIDParser5SpecsC2ERKNS_13UnicodeStringES4_S4_aS4_
libicui18n.so.67:_ZN6icu_6722TransliteratorIDParser7IDtoSTVERKNS_13UnicodeStringERS1_S4_S4_Ra
libicui18n.so.67:_ZN6icu_6722TransliteratorIDParser7STVtoIDERKNS_13UnicodeStringES3_S3_RS1_
libicui18n.so.67:_ZN6icu_6722TransliteratorIDParser7cleanupEv
libicui18n.so.67:_ZN6icu_6722TransliteratorIDParser8SingleID14createInstanceEv
libicui18n.so.67:_ZN6icu_6722TransliteratorIDParser8SingleIDC1ERKNS_13UnicodeStringES4_
libicui18n.so.67:_ZN6icu_6722TransliteratorIDParser8SingleIDC1ERKNS_13UnicodeStringES4_S4_
libicui18n.so.67:_ZN6icu_6722TransliteratorIDParser8SingleIDC2ERKNS_13UnicodeStringES4_
libicui18n.so.67:_ZN6icu_6722TransliteratorIDParser8SingleIDC2ERKNS_13UnicodeStringES4_S4_
libicui18n.so.67:_ZN6icu_6722TransliteratorIDParser9specsToIDEPKNS0_5SpecsEi
libicui18n.so.67:_ZN6icu_6722TransliteratorRegistry11Enumeration16getStaticClassIDEv
libicui18n.so.67:_ZN6icu_6722TransliteratorRegistry11Enumeration5resetER10UErrorCode
libicui18n.so.67:_ZN6icu_6722TransliteratorRegistry11Enumeration5snextER10UErrorCode
libicui18n.so.67:_ZN6icu_6722TransliteratorRegistry11EnumerationC1ERKS0_
libicui18n.so.67:_ZN6icu_6722TransliteratorRegistry11EnumerationC2ERKS0_
libicui18n.so.67:_ZN6icu_6722TransliteratorRegistry11EnumerationD0Ev
libicui18n.so.67:_ZN6icu_6722TransliteratorRegistry11EnumerationD1Ev
libicui18n.so.67:_ZN6icu_6722TransliteratorRegistry11EnumerationD2Ev
libicui18n.so.67:_ZN6icu_6722TransliteratorRegistry11registerSTVERKNS_13UnicodeStringES3_S3_
libicui18n.so.67:_ZN6icu_6722TransliteratorRegistry12findInBundleERKNS_18TransliteratorSpecES3_RKNS_13UnicodeStringE15UTransDirection
libicui18n.so.67:_ZN6icu_6722TransliteratorRegistry13registerEntryERKNS_13UnicodeStringEPNS_19TransliteratorEntryEa
libicui18n.so.67:_ZN6icu_6722TransliteratorRegistry13registerEntryERKNS_13UnicodeStringES3_S3_PNS_19TransliteratorEntryEa
libicui18n.so.67:_ZN6icu_6722TransliteratorRegistry13registerEntryERKNS_13UnicodeStringES3_S3_S3_PNS_19TransliteratorEntryEa
libicui18n.so.67:_ZN6icu_6722TransliteratorRegistry16instantiateEntryERKNS_13UnicodeStringEPNS_19TransliteratorEntryERPNS_19TransliteratorAliasER10UErrorCode
libicui18n.so.67:_ZN6icu_6722TransliteratorRegistry17findInStaticStoreERKNS_18TransliteratorSpecES3_RKNS_13UnicodeStringE
libicui18n.so.67:_ZN6icu_6722TransliteratorRegistry3getERKNS_13UnicodeStringERPNS_19TransliteratorAliasER10UErrorCode
libicui18n.so.67:_ZN6icu_6722TransliteratorRegistry3putEPNS_14TransliteratorEaR10UErrorCode
libicui18n.so.67:_ZN6icu_6722TransliteratorRegistry3putERKNS_13UnicodeStringEPFPNS_14TransliteratorES3_NS4_5TokenEES6_aR10UErrorCode
libicui18n.so.67:_ZN6icu_6722TransliteratorRegistry3putERKNS_13UnicodeStringES3_15UTransDirectionaaR10UErrorCode
libicui18n.so.67:_ZN6icu_6722TransliteratorRegistry3putERKNS_13UnicodeStringES3_aaR10UErrorCode
libicui18n.so.67:_ZN6icu_6722TransliteratorRegistry4findERKNS_13UnicodeStringE
libicui18n.so.67:_ZN6icu_6722TransliteratorRegistry4findERNS_13UnicodeStringES2_S2_
libicui18n.so.67:_ZN6icu_6722TransliteratorRegistry5regetERKNS_13UnicodeStringERNS_20TransliteratorParserERPNS_19TransliteratorAliasER10UErrorCode
libicui18n.so.67:_ZN6icu_6722TransliteratorRegistry6removeERKNS_13UnicodeStringE
libicui18n.so.67:_ZN6icu_6722TransliteratorRegistry9removeSTVERKNS_13UnicodeStringES3_S3_
libicui18n.so.67:_ZN6icu_6722TransliteratorRegistryC1ER10UErrorCode
libicui18n.so.67:_ZN6icu_6722TransliteratorRegistryC2ER10UErrorCode
libicui18n.so.67:_ZN6icu_6722TransliteratorRegistryD1Ev
libicui18n.so.67:_ZN6icu_6722TransliteratorRegistryD2Ev
libicui18n.so.67:_ZN6icu_6722UIterCollationIterator13nextCodePointER10UErrorCode
libicui18n.so.67:_ZN6icu_6722UIterCollationIterator13resetToOffsetEi
libicui18n.so.67:_ZN6icu_6722UIterCollationIterator14handleNextCE32ERiR10UErrorCode
libicui18n.so.67:_ZN6icu_6722UIterCollationIterator17previousCodePointER10UErrorCode
libicui18n.so.67:_ZN6icu_6722UIterCollationIterator20forwardNumCodePointsEiR10UErrorCode
libicui18n.so.67:_ZN6icu_6722UIterCollationIterator21backwardNumCodePointsEiR10UErrorCode
libicui18n.so.67:_ZN6icu_6722UIterCollationIterator23handleGetTrailSurrogateEv
libicui18n.so.67:_ZN6icu_6722UIterCollationIteratorD0Ev
libicui18n.so.67:_ZN6icu_6722UIterCollationIteratorD1Ev
libicui18n.so.67:_ZN6icu_6722UIterCollationIteratorD2Ev
libicui18n.so.67:_ZN6icu_6722UTF16CollationIterator13nextCodePointER10UErrorCode
libicui18n.so.67:_ZN6icu_6722UTF16CollationIterator13resetToOffsetEi
libicui18n.so.67:_ZN6icu_6722UTF16CollationIterator14handleNextCE32ERiR10UErrorCode
libicui18n.so.67:_ZN6icu_6722UTF16CollationIterator17previousCodePointER10UErrorCode
libicui18n.so.67:_ZN6icu_6722UTF16CollationIterator18foundNULTerminatorEv
libicui18n.so.67:_ZN6icu_6722UTF16CollationIterator20forwardNumCodePointsEiR10UErrorCode
libicui18n.so.67:_ZN6icu_6722UTF16CollationIterator21backwardNumCodePointsEiR10UErrorCode
libicui18n.so.67:_ZN6icu_6722UTF16CollationIterator23handleGetTrailSurrogateEv
libicui18n.so.67:_ZN6icu_6722UTF16CollationIteratorC1ERKS0_PKDs
libicui18n.so.67:_ZN6icu_6722UTF16CollationIteratorC2ERKS0_PKDs
libicui18n.so.67:_ZN6icu_6722UTF16CollationIteratorD0Ev
libicui18n.so.67:_ZN6icu_6722UTF16CollationIteratorD1Ev
libicui18n.so.67:_ZN6icu_6722UTF16CollationIteratorD2Ev
libicui18n.so.67:_ZN6icu_6722UnescapeTransliterator11registerIDsEv
libicui18n.so.67:_ZN6icu_6722UnescapeTransliterator16getStaticClassIDEv
libicui18n.so.67:_ZN6icu_6722UnescapeTransliteratorC1ERKNS_13UnicodeStringEPKDs
libicui18n.so.67:_ZN6icu_6722UnescapeTransliteratorC1ERKS0_
libicui18n.so.67:_ZN6icu_6722UnescapeTransliteratorC2ERKNS_13UnicodeStringEPKDs
libicui18n.so.67:_ZN6icu_6722UnescapeTransliteratorC2ERKS0_
libicui18n.so.67:_ZN6icu_6722UnescapeTransliteratorD0Ev
libicui18n.so.67:_ZN6icu_6722UnescapeTransliteratorD1Ev
libicui18n.so.67:_ZN6icu_6722UnescapeTransliteratorD2Ev
libicui18n.so.67:_ZN6icu_6723DayPeriodRulesCountSinkD0Ev
libicui18n.so.67:_ZN6icu_6723DayPeriodRulesCountSinkD1Ev
libicui18n.so.67:_ZN6icu_6723DayPeriodRulesCountSinkD2Ev
libicui18n.so.67:_ZN6icu_6723LowercaseTransliterator16getStaticClassIDEv
libicui18n.so.67:_ZN6icu_6723LowercaseTransliteratorC1ERKS0_
libicui18n.so.67:_ZN6icu_6723LowercaseTransliteratorC1Ev
libicui18n.so.67:_ZN6icu_6723LowercaseTransliteratorC2ERKS0_
libicui18n.so.67:_ZN6icu_6723LowercaseTransliteratorC2Ev
libicui18n.so.67:_ZN6icu_6723LowercaseTransliteratorD0Ev
libicui18n.so.67:_ZN6icu_6723LowercaseTransliteratorD1Ev
libicui18n.so.67:_ZN6icu_6723LowercaseTransliteratorD2Ev
libicui18n.so.67:_ZN6icu_6723RuleBasedTransliterator10_constructERKNS_13UnicodeStringE15UTransDirectionR11UParseErrorR10UErrorCode
libicui18n.so.67:_ZN6icu_6723RuleBasedTransliterator16getStaticClassIDEv
libicui18n.so.67:_ZN6icu_6723RuleBasedTransliteratorC1ERKNS_13UnicodeStringEPKNS_23TransliterationRuleDataEPNS_13UnicodeFilterE
libicui18n.so.67:_ZN6icu_6723RuleBasedTransliteratorC1ERKNS_13UnicodeStringEPNS_23TransliterationRuleDataEa
libicui18n.so.67:_ZN6icu_6723RuleBasedTransliteratorC1ERKNS_13UnicodeStringES3_15UTransDirectionPNS_13UnicodeFilterER11UParseErrorR10UErrorCode
libicui18n.so.67:_ZN6icu_6723RuleBasedTransliteratorC1ERKS0_
libicui18n.so.67:_ZN6icu_6723RuleBasedTransliteratorC2ERKNS_13UnicodeStringEPKNS_23TransliterationRuleDataEPNS_13UnicodeFilterE
libicui18n.so.67:_ZN6icu_6723RuleBasedTransliteratorC2ERKNS_13UnicodeStringEPNS_23TransliterationRuleDataEa
libicui18n.so.67:_ZN6icu_6723RuleBasedTransliteratorC2ERKNS_13UnicodeStringES3_15UTransDirectionPNS_13UnicodeFilterER11UParseErrorR10UErrorCode
libicui18n.so.67:_ZN6icu_6723RuleBasedTransliteratorC2ERKS0_
libicui18n.so.67:_ZN6icu_6723RuleBasedTransliteratorD0Ev
libicui18n.so.67:_ZN6icu_6723RuleBasedTransliteratorD1Ev
libicui18n.so.67:_ZN6icu_6723RuleBasedTransliteratorD2Ev
libicui18n.so.67:_ZN6icu_6723SharedDateFormatSymbolsD0Ev
libicui18n.so.67:_ZN6icu_6723SharedDateFormatSymbolsD1Ev
libicui18n.so.67:_ZN6icu_6723SharedDateFormatSymbolsD2Ev
libicui18n.so.67:_ZN6icu_6723TitlecaseTransliterator16getStaticClassIDEv
libicui18n.so.67:_ZN6icu_6723TitlecaseTransliteratorC1ERKS0_
libicui18n.so.67:_ZN6icu_6723TitlecaseTransliteratorC1Ev
libicui18n.so.67:_ZN6icu_6723TitlecaseTransliteratorC2ERKS0_
libicui18n.so.67:_ZN6icu_6723TitlecaseTransliteratorC2Ev
libicui18n.so.67:_ZN6icu_6723TitlecaseTransliteratorD0Ev
libicui18n.so.67:_ZN6icu_6723TitlecaseTransliteratorD1Ev
libicui18n.so.67:_ZN6icu_6723TitlecaseTransliteratorD2Ev
libicui18n.so.67:_ZN6icu_6723TransliterationRuleDataC1ER10UErrorCode
libicui18n.so.67:_ZN6icu_6723TransliterationRuleDataC1ERKS0_
libicui18n.so.67:_ZN6icu_6723TransliterationRuleDataC2ER10UErrorCode
libicui18n.so.67:_ZN6icu_6723TransliterationRuleDataC2ERKS0_
libicui18n.so.67:_ZN6icu_6723TransliterationRuleDataD1Ev
libicui18n.so.67:_ZN6icu_6723TransliterationRuleDataD2Ev
libicui18n.so.67:_ZN6icu_6723UppercaseTransliterator16getStaticClassIDEv
libicui18n.so.67:_ZN6icu_6723UppercaseTransliteratorC1ERKS0_
libicui18n.so.67:_ZN6icu_6723UppercaseTransliteratorC1Ev
libicui18n.so.67:_ZN6icu_6723UppercaseTransliteratorC2ERKS0_
libicui18n.so.67:_ZN6icu_6723UppercaseTransliteratorC2Ev
libicui18n.so.67:_ZN6icu_6723UppercaseTransliteratorD0Ev
libicui18n.so.67:_ZN6icu_6723UppercaseTransliteratorD1Ev
libicui18n.so.67:_ZN6icu_6723UppercaseTransliteratorD2Ev
libicui18n.so.67:_ZN6icu_6723getUmalqura_MonthLengthEii
libicui18n.so.67:_ZN6icu_6724CaseFoldingUCharIterator11inExpansionEv
libicui18n.so.67:_ZN6icu_6724CaseFoldingUCharIterator4nextEv
libicui18n.so.67:_ZN6icu_6724CaseFoldingUCharIterator8getIndexEv
libicui18n.so.67:_ZN6icu_6724CaseFoldingUCharIteratorC1EPKDsll
libicui18n.so.67:_ZN6icu_6724CaseFoldingUCharIteratorC2EPKDsll
libicui18n.so.67:_ZN6icu_6724CaseFoldingUCharIteratorD1Ev
libicui18n.so.67:_ZN6icu_6724CaseFoldingUCharIteratorD2Ev
libicui18n.so.67:_ZN6icu_6724CaseFoldingUTextIterator11inExpansionEv
libicui18n.so.67:_ZN6icu_6724CaseFoldingUTextIterator4nextEv
libicui18n.so.67:_ZN6icu_6724CaseFoldingUTextIteratorC1ER5UText
libicui18n.so.67:_ZN6icu_6724CaseFoldingUTextIteratorC2ER5UText
libicui18n.so.67:_ZN6icu_6724CaseFoldingUTextIteratorD1Ev
libicui18n.so.67:_ZN6icu_6724CaseFoldingUTextIteratorD2Ev
libicui18n.so.67:_ZN6icu_6724CharsetRecog_8859_8_I_heD0Ev
libicui18n.so.67:_ZN6icu_6724CharsetRecog_8859_8_I_heD1Ev
libicui18n.so.67:_ZN6icu_6724CharsetRecog_8859_8_I_heD2Ev
libicui18n.so.67:_ZN6icu_6724CollationElementIterator15getMaxExpansionEPK10UHashtablei
libicui18n.so.67:_ZN6icu_6724CollationElementIterator16getStaticClassIDEv
libicui18n.so.67:_ZN6icu_6724CollationElementIterator20computeMaxExpansionsEPKNS_13CollationDataER10UErrorCode
libicui18n.so.67:_ZN6icu_6724CollationElementIterator4nextER10UErrorCode
libicui18n.so.67:_ZN6icu_6724CollationElementIterator5resetEv
libicui18n.so.67:_ZN6icu_6724CollationElementIterator7setTextERKNS_13UnicodeStringER10UErrorCode
libicui18n.so.67:_ZN6icu_6724CollationElementIterator7setTextERNS_17CharacterIteratorER10UErrorCode
libicui18n.so.67:_ZN6icu_6724CollationElementIterator8previousER10UErrorCode
libicui18n.so.67:_ZN6icu_6724CollationElementIterator9setOffsetEiR10UErrorCode
libicui18n.so.67:_ZN6icu_6724CollationElementIteratorC1ERKNS_13UnicodeStringEPKNS_17RuleBasedCollatorER10UErrorCode
libicui18n.so.67:_ZN6icu_6724CollationElementIteratorC1ERKNS_17CharacterIteratorEPKNS_17RuleBasedCollatorER10UErrorCode
libicui18n.so.67:_ZN6icu_6724CollationElementIteratorC1ERKS0_
libicui18n.so.67:_ZN6icu_6724CollationElementIteratorD0Ev
libicui18n.so.67:_ZN6icu_6724CollationElementIteratorD1Ev
libicui18n.so.67:_ZN6icu_6724CollationElementIteratoraSERKS0_
libicui18n.so.67:_ZN6icu_6724ConstrainedFieldPosition14constrainFieldEii
libicui18n.so.67:_ZN6icu_6724ConstrainedFieldPosition17constrainCategoryEi
libicui18n.so.67:_ZN6icu_6724ConstrainedFieldPosition24setInt64IterationContextEl
libicui18n.so.67:_ZN6icu_6724ConstrainedFieldPosition5resetEv
libicui18n.so.67:_ZN6icu_6724ConstrainedFieldPosition8setStateEiiii
libicui18n.so.67:_ZN6icu_6724ConstrainedFieldPositionC1Ev
libicui18n.so.67:_ZN6icu_6724ConstrainedFieldPositionC2Ev
libicui18n.so.67:_ZN6icu_6724ConstrainedFieldPositionD1Ev
libicui18n.so.67:_ZN6icu_6724ConstrainedFieldPositionD2Ev
libicui18n.so.67:_ZN6icu_6724DateTimePatternGenerator10addPatternERKNS_13UnicodeStringEaRS1_R10UErrorCode
libicui18n.so.67:_ZN6icu_6724DateTimePatternGenerator10getBestRawERNS_15DateTimeMatcherEiPNS_12DistanceInfoER10UErrorCodePPKNS_11PtnSkeletonE
libicui18n.so.67:_ZN6icu_6724DateTimePatternGenerator10setDecimalERKNS_13UnicodeStringE
libicui18n.so.67:_ZN6icu_6724DateTimePatternGenerator11addCLDRDataERKNS_6LocaleER10UErrorCode
libicui18n.so.67:_ZN6icu_6724DateTimePatternGenerator11getSkeletonERKNS_13UnicodeStringER10UErrorCode
libicui18n.so.67:_ZN6icu_6724DateTimePatternGenerator13copyHashtableEPNS_9HashtableER10UErrorCode
libicui18n.so.67:_ZN6icu_6724DateTimePatternGenerator13getAppendNameE21UDateTimePatternFieldRNS_13UnicodeStringE
libicui18n.so.67:_ZN6icu_6724DateTimePatternGenerator13getRedundantsER10UErrorCode
libicui18n.so.67:_ZN6icu_6724DateTimePatternGenerator13initHashtableER10UErrorCode
libicui18n.so.67:_ZN6icu_6724DateTimePatternGenerator14addICUPatternsERKNS_6LocaleER10UErrorCode
libicui18n.so.67:_ZN6icu_6724DateTimePatternGenerator14createInstanceER10UErrorCode
libicui18n.so.67:_ZN6icu_6724DateTimePatternGenerator14createInstanceERKNS_6LocaleER10UErrorCode
libicui18n.so.67:_ZN6icu_6724DateTimePatternGenerator14getBestPatternERKNS_13UnicodeStringE28UDateTimePatternMatchOptionsR10UErrorCode
libicui18n.so.67:_ZN6icu_6724DateTimePatternGenerator14getBestPatternERKNS_13UnicodeStringER10UErrorCode
libicui18n.so.67:_ZN6icu_6724DateTimePatternGenerator15getBaseSkeletonERKNS_13UnicodeStringER10UErrorCode
libicui18n.so.67:_ZN6icu_6724DateTimePatternGenerator16adjustFieldTypesERKNS_13UnicodeStringEPKNS_11PtnSkeletonEi28UDateTimePatternMatchOptions
libicui18n.so.67:_ZN6icu_6724DateTimePatternGenerator16getBestAppendingEiiR10UErrorCode28UDateTimePatternMatchOptions
libicui18n.so.67:_ZN6icu_6724DateTimePatternGenerator16getStaticClassIDEv
libicui18n.so.67:_ZN6icu_6724DateTimePatternGenerator17addCanonicalItemsER10UErrorCode
libicui18n.so.67:_ZN6icu_6724DateTimePatternGenerator17replaceFieldTypesERKNS_13UnicodeStringES3_28UDateTimePatternMatchOptionsR10UErrorCode
libicui18n.so.67:_ZN6icu_6724DateTimePatternGenerator17replaceFieldTypesERKNS_13UnicodeStringES3_R10UErrorCode
libicui18n.so.67:_ZN6icu_6724DateTimePatternGenerator17setAppendItemNameE21UDateTimePatternFieldRKNS_13UnicodeStringE
libicui18n.so.67:_ZN6icu_6724DateTimePatternGenerator17setDateTimeFormatERKNS_13UnicodeStringE
libicui18n.so.67:_ZN6icu_6724DateTimePatternGenerator17setDecimalSymbolsERKNS_6LocaleER10UErrorCode
libicui18n.so.67:_ZN6icu_6724DateTimePatternGenerator17staticGetSkeletonERKNS_13UnicodeStringER10UErrorCode
libicui18n.so.67:_ZN6icu_6724DateTimePatternGenerator18setAvailableFormatERKNS_13UnicodeStringER10UErrorCode
libicui18n.so.67:_ZN6icu_6724DateTimePatternGenerator19AppendItemNamesSinkD0Ev
libicui18n.so.67:_ZN6icu_6724DateTimePatternGenerator19AppendItemNamesSinkD1Ev
libicui18n.so.67:_ZN6icu_6724DateTimePatternGenerator19AppendItemNamesSinkD2Ev
libicui18n.so.67:_ZN6icu_6724DateTimePatternGenerator19createEmptyInstanceER10UErrorCode
libicui18n.so.67:_ZN6icu_6724DateTimePatternGenerator19setAppendItemFormatE21UDateTimePatternFieldRKNS_13UnicodeStringE
libicui18n.so.67:_ZN6icu_6724DateTimePatternGenerator19setFieldDisplayNameE21UDateTimePatternField23UDateTimePGDisplayWidthRKNS_13UnicodeStringE
libicui18n.so.67:_ZN6icu_6724DateTimePatternGenerator20AvailableFormatsSinkD0Ev
libicui18n.so.67:_ZN6icu_6724DateTimePatternGenerator20AvailableFormatsSinkD1Ev
libicui18n.so.67:_ZN6icu_6724DateTimePatternGenerator20AvailableFormatsSinkD2Ev
libicui18n.so.67:_ZN6icu_6724DateTimePatternGenerator20getCalendarTypeToUseERKNS_6LocaleERNS_10CharStringER10UErrorCode
libicui18n.so.67:_ZN6icu_6724DateTimePatternGenerator21AppendItemFormatsSinkD0Ev
libicui18n.so.67:_ZN6icu_6724DateTimePatternGenerator21AppendItemFormatsSinkD1Ev
libicui18n.so.67:_ZN6icu_6724DateTimePatternGenerator21AppendItemFormatsSinkD2Ev
libicui18n.so.67:_ZN6icu_6724DateTimePatternGenerator21getAllowedHourFormatsERKNS_6LocaleER10UErrorCode
libicui18n.so.67:_ZN6icu_6724DateTimePatternGenerator21staticGetBaseSkeletonERKNS_13UnicodeStringER10UErrorCode
libicui18n.so.67:_ZN6icu_6724DateTimePatternGenerator22addPatternWithSkeletonERKNS_13UnicodeStringEPS2_aRS1_R10UErrorCode
libicui18n.so.67:_ZN6icu_6724DateTimePatternGenerator23consumeShortTimePatternERKNS_13UnicodeStringER10UErrorCode
libicui18n.so.67:_ZN6icu_6724DateTimePatternGenerator23setDateTimeFromCalendarERKNS_6LocaleER10UErrorCode
libicui18n.so.67:_ZN6icu_6724DateTimePatternGenerator25mapSkeletonMetacharactersERKNS_13UnicodeStringEPiR10UErrorCode
libicui18n.so.67:_ZN6icu_6724DateTimePatternGenerator26getMutableFieldDisplayNameE21UDateTimePatternField23UDateTimePGDisplayWidth
libicui18n.so.67:_ZN6icu_6724DateTimePatternGenerator26loadAllowedHourFormatsDataER10UErrorCode
libicui18n.so.67:_ZN6icu_6724DateTimePatternGenerator8initDataERKNS_6LocaleER10UErrorCode
libicui18n.so.67:_ZN6icu_6724DateTimePatternGenerator9hackTimesERKNS_13UnicodeStringER10UErrorCode
libicui18n.so.67:_ZN6icu_6724DateTimePatternGeneratorC1ER10UErrorCode
libicui18n.so.67:_ZN6icu_6724DateTimePatternGeneratorC1ERKNS_6LocaleER10UErrorCode
libicui18n.so.67:_ZN6icu_6724DateTimePatternGeneratorC1ERKS0_
libicui18n.so.67:_ZN6icu_6724DateTimePatternGeneratorC2ER10UErrorCode
libicui18n.so.67:_ZN6icu_6724DateTimePatternGeneratorC2ERKNS_6LocaleER10UErrorCode
libicui18n.so.67:_ZN6icu_6724DateTimePatternGeneratorC2ERKS0_
libicui18n.so.67:_ZN6icu_6724DateTimePatternGeneratorD0Ev
libicui18n.so.67:_ZN6icu_6724DateTimePatternGeneratorD1Ev
libicui18n.so.67:_ZN6icu_6724DateTimePatternGeneratorD2Ev
libicui18n.so.67:_ZN6icu_6724DateTimePatternGeneratoraSERKS0_
libicui18n.so.67:_ZN6icu_6724FCDUTF8CollationIterator11nextSegmentER10UErrorCode
libicui18n.so.67:_ZN6icu_6724FCDUTF8CollationIterator13nextCodePointER10UErrorCode
libicui18n.so.67:_ZN6icu_6724FCDUTF8CollationIterator13resetToOffsetEi
libicui18n.so.67:_ZN6icu_6724FCDUTF8CollationIterator14handleNextCE32ERiR10UErrorCode
libicui18n.so.67:_ZN6icu_6724FCDUTF8CollationIterator15previousSegmentER10UErrorCode
libicui18n.so.67:_ZN6icu_6724FCDUTF8CollationIterator15switchToForwardEv
libicui18n.so.67:_ZN6icu_6724FCDUTF8CollationIterator16switchToBackwardEv
libicui18n.so.67:_ZN6icu_6724FCDUTF8CollationIterator17previousCodePointER10UErrorCode
libicui18n.so.67:_ZN6icu_6724FCDUTF8CollationIterator18foundNULTerminatorEv
libicui18n.so.67:_ZN6icu_6724FCDUTF8CollationIterator20forwardNumCodePointsEiR10UErrorCode
libicui18n.so.67:_ZN6icu_6724FCDUTF8CollationIterator21backwardNumCodePointsEiR10UErrorCode
libicui18n.so.67:_ZN6icu_6724FCDUTF8CollationIterator23handleGetTrailSurrogateEv
libicui18n.so.67:_ZN6icu_6724FCDUTF8CollationIterator9normalizeERKNS_13UnicodeStringER10UErrorCode
libicui18n.so.67:_ZN6icu_6724FCDUTF8CollationIteratorD0Ev
libicui18n.so.67:_ZN6icu_6724FCDUTF8CollationIteratorD1Ev
libicui18n.so.67:_ZN6icu_6724FCDUTF8CollationIteratorD2Ev
libicui18n.so.67:_ZN6icu_6724FieldPositionOnlyHandler12addAttributeEiii
libicui18n.so.67:_ZN6icu_6724FieldPositionOnlyHandler18setAcceptFirstOnlyEa
libicui18n.so.67:_ZN6icu_6724FieldPositionOnlyHandler9shiftLastEi
libicui18n.so.67:_ZN6icu_6724FieldPositionOnlyHandlerC1ERNS_13FieldPositionE
libicui18n.so.67:_ZN6icu_6724FieldPositionOnlyHandlerC2ERNS_13FieldPositionE
libicui18n.so.67:_ZN6icu_6724FieldPositionOnlyHandlerD0Ev
libicui18n.so.67:_ZN6icu_6724FieldPositionOnlyHandlerD1Ev
libicui18n.so.67:_ZN6icu_6724FieldPositionOnlyHandlerD2Ev
libicui18n.so.67:_ZN6icu_6724IntegralPartSubstitution16getStaticClassIDEv
libicui18n.so.67:_ZN6icu_6724IntegralPartSubstitutionD0Ev
libicui18n.so.67:_ZN6icu_6724IntegralPartSubstitutionD1Ev
libicui18n.so.67:_ZN6icu_6724IntegralPartSubstitutionD2Ev
libicui18n.so.67:_ZN6icu_6724PluralKeywordEnumeration16getStaticClassIDEv
libicui18n.so.67:_ZN6icu_6724PluralKeywordEnumeration5resetER10UErrorCode
libicui18n.so.67:_ZN6icu_6724PluralKeywordEnumeration5snextER10UErrorCode
libicui18n.so.67:_ZN6icu_6724PluralKeywordEnumerationC1EPNS_9RuleChainER10UErrorCode
libicui18n.so.67:_ZN6icu_6724PluralKeywordEnumerationC2EPNS_9RuleChainER10UErrorCode
libicui18n.so.67:_ZN6icu_6724PluralKeywordEnumerationD0Ev
libicui18n.so.67:_ZN6icu_6724PluralKeywordEnumerationD1Ev
libicui18n.so.67:_ZN6icu_6724PluralKeywordEnumerationD2Ev
libicui18n.so.67:_ZN6icu_6724tokenTypeToPluralOperandENS_9tokenTypeE
libicui18n.so.67:_ZN6icu_6725AbsoluteValueSubstitution16getStaticClassIDEv
libicui18n.so.67:_ZN6icu_6725AbsoluteValueSubstitutionD0Ev
libicui18n.so.67:_ZN6icu_6725AbsoluteValueSubstitutionD1Ev
libicui18n.so.67:_ZN6icu_6725AbsoluteValueSubstitutionD2Ev
libicui18n.so.67:_ZN6icu_6725CharsetRecog_windows_1251D0Ev
libicui18n.so.67:_ZN6icu_6725CharsetRecog_windows_1251D1Ev
libicui18n.so.67:_ZN6icu_6725CharsetRecog_windows_1251D2Ev
libicui18n.so.67:_ZN6icu_6725CharsetRecog_windows_1256D0Ev
libicui18n.so.67:_ZN6icu_6725CharsetRecog_windows_1256D1Ev
libicui18n.so.67:_ZN6icu_6725CharsetRecog_windows_1256D2Ev
libicui18n.so.67:_ZN6icu_6725CollationFastLatinBuilder10loadGroupsERKNS_13CollationDataER10UErrorCode
libicui18n.so.67:_ZN6icu_6725CollationFastLatinBuilder11addUniqueCEElR10UErrorCode
libicui18n.so.67:_ZN6icu_6725CollationFastLatinBuilder13encodeCharCEsER10UErrorCode
libicui18n.so.67:_ZN6icu_6725CollationFastLatinBuilder14getCEsFromCE32ERKNS_13CollationDataEijR10UErrorCode
libicui18n.so.67:_ZN6icu_6725CollationFastLatinBuilder15encodeUniqueCEsER10UErrorCode
libicui18n.so.67:_ZN6icu_6725CollationFastLatinBuilder18encodeContractionsER10UErrorCode
libicui18n.so.67:_ZN6icu_6725CollationFastLatinBuilder19addContractionEntryEillR10UErrorCode
libicui18n.so.67:_ZN6icu_6725CollationFastLatinBuilder25getCEsFromContractionCE32ERKNS_13CollationDataEjR10UErrorCode
libicui18n.so.67:_ZN6icu_6725CollationFastLatinBuilder6getCEsERKNS_13CollationDataER10UErrorCode
libicui18n.so.67:_ZN6icu_6725CollationFastLatinBuilder7forDataERKNS_13CollationDataER10UErrorCode
libicui18n.so.67:_ZN6icu_6725CollationFastLatinBuilder8resetCEsEv
libicui18n.so.67:_ZN6icu_6725CollationFastLatinBuilderC1ER10UErrorCode
libicui18n.so.67:_ZN6icu_6725CollationFastLatinBuilderC2ER10UErrorCode
libicui18n.so.67:_ZN6icu_6725CollationFastLatinBuilderD0Ev
libicui18n.so.67:_ZN6icu_6725CollationFastLatinBuilderD1Ev
libicui18n.so.67:_ZN6icu_6725CollationFastLatinBuilderD2Ev
libicui18n.so.67:_ZN6icu_6725ContractionsAndExpansions10addStringsEiiPNS_10UnicodeSetE
libicui18n.so.67:_ZN6icu_6725ContractionsAndExpansions10handleCE32Eiij
libicui18n.so.67:_ZN6icu_6725ContractionsAndExpansions12forCodePointEPKNS_13CollationDataEiR10UErrorCode
libicui18n.so.67:_ZN6icu_6725ContractionsAndExpansions13addExpansionsEii
libicui18n.so.67:_ZN6icu_6725ContractionsAndExpansions14handlePrefixesEiij
libicui18n.so.67:_ZN6icu_6725ContractionsAndExpansions18handleContractionsEiij
libicui18n.so.67:_ZN6icu_6725ContractionsAndExpansions6CESinkD0Ev
libicui18n.so.67:_ZN6icu_6725ContractionsAndExpansions6CESinkD1Ev
libicui18n.so.67:_ZN6icu_6725ContractionsAndExpansions6CESinkD2Ev
libicui18n.so.67:_ZN6icu_6725ContractionsAndExpansions7forDataEPKNS_13CollationDataER10UErrorCode
libicui18n.so.67:_ZN6icu_6725FCDUIterCollationIterator11nextSegmentER10UErrorCode
libicui18n.so.67:_ZN6icu_6725FCDUIterCollationIterator13nextCodePointER10UErrorCode
libicui18n.so.67:_ZN6icu_6725FCDUIterCollationIterator13resetToOffsetEi
libicui18n.so.67:_ZN6icu_6725FCDUIterCollationIterator14handleNextCE32ERiR10UErrorCode
libicui18n.so.67:_ZN6icu_6725FCDUIterCollationIterator15previousSegmentER10UErrorCode
libicui18n.so.67:_ZN6icu_6725FCDUIterCollationIterator15switchToForwardEv
libicui18n.so.67:_ZN6icu_6725FCDUIterCollationIterator16switchToBackwardEv
libicui18n.so.67:_ZN6icu_6725FCDUIterCollationIterator17previousCodePointER10UErrorCode
libicui18n.so.67:_ZN6icu_6725FCDUIterCollationIterator20forwardNumCodePointsEiR10UErrorCode
libicui18n.so.67:_ZN6icu_6725FCDUIterCollationIterator21backwardNumCodePointsEiR10UErrorCode
libicui18n.so.67:_ZN6icu_6725FCDUIterCollationIterator23handleGetTrailSurrogateEv
libicui18n.so.67:_ZN6icu_6725FCDUIterCollationIterator9normalizeERKNS_13UnicodeStringER10UErrorCode
libicui18n.so.67:_ZN6icu_6725FCDUIterCollationIteratorD0Ev
libicui18n.so.67:_ZN6icu_6725FCDUIterCollationIteratorD1Ev
libicui18n.so.67:_ZN6icu_6725FCDUIterCollationIteratorD2Ev
libicui18n.so.67:_ZN6icu_6725FCDUTF16CollationIterator11nextSegmentER10UErrorCode
libicui18n.so.67:_ZN6icu_6725FCDUTF16CollationIterator13nextCodePointER10UErrorCode
libicui18n.so.67:_ZN6icu_6725FCDUTF16CollationIterator13resetToOffsetEi
libicui18n.so.67:_ZN6icu_6725FCDUTF16CollationIterator14handleNextCE32ERiR10UErrorCode
libicui18n.so.67:_ZN6icu_6725FCDUTF16CollationIterator15previousSegmentER10UErrorCode
libicui18n.so.67:_ZN6icu_6725FCDUTF16CollationIterator15switchToForwardEv
libicui18n.so.67:_ZN6icu_6725FCDUTF16CollationIterator16switchToBackwardEv
libicui18n.so.67:_ZN6icu_6725FCDUTF16CollationIterator17previousCodePointER10UErrorCode
libicui18n.so.67:_ZN6icu_6725FCDUTF16CollationIterator18foundNULTerminatorEv
libicui18n.so.67:_ZN6icu_6725FCDUTF16CollationIterator20forwardNumCodePointsEiR10UErrorCode
libicui18n.so.67:_ZN6icu_6725FCDUTF16CollationIterator21backwardNumCodePointsEiR10UErrorCode
libicui18n.so.67:_ZN6icu_6725FCDUTF16CollationIterator9normalizeEPKDsS2_R10UErrorCode
libicui18n.so.67:_ZN6icu_6725FCDUTF16CollationIteratorC1ERKS0_PKDs
libicui18n.so.67:_ZN6icu_6725FCDUTF16CollationIteratorC2ERKS0_PKDs
libicui18n.so.67:_ZN6icu_6725FCDUTF16CollationIteratorD0Ev
libicui18n.so.67:_ZN6icu_6725FCDUTF16CollationIteratorD1Ev
libicui18n.so.67:_ZN6icu_6725FCDUTF16CollationIteratorD2Ev
libicui18n.so.67:_ZN6icu_6725FormattedDateIntervalDataD0Ev
libicui18n.so.67:_ZN6icu_6725FormattedDateIntervalDataD1Ev
libicui18n.so.67:_ZN6icu_6725FormattedDateIntervalDataD2Ev
libicui18n.so.67:_ZN6icu_6725FormattedRelativeDateTimeC1EOS0_
libicui18n.so.67:_ZN6icu_6725FormattedRelativeDateTimeC2EOS0_
libicui18n.so.67:_ZN6icu_6725FormattedRelativeDateTimeD0Ev
libicui18n.so.67:_ZN6icu_6725FormattedRelativeDateTimeD1Ev
libicui18n.so.67:_ZN6icu_6725FormattedRelativeDateTimeD2Ev
libicui18n.so.67:_ZN6icu_6725FormattedRelativeDateTimeaSEOS0_
libicui18n.so.67:_ZN6icu_6725NameUnicodeTransliterator16getStaticClassIDEv
libicui18n.so.67:_ZN6icu_6725NameUnicodeTransliteratorC1EPNS_13UnicodeFilterE
libicui18n.so.67:_ZN6icu_6725NameUnicodeTransliteratorC1ERKS0_
libicui18n.so.67:_ZN6icu_6725NameUnicodeTransliteratorC2EPNS_13UnicodeFilterE
libicui18n.so.67:_ZN6icu_6725NameUnicodeTransliteratorC2ERKS0_
libicui18n.so.67:_ZN6icu_6725NameUnicodeTransliteratorD0Ev
libicui18n.so.67:_ZN6icu_6725NameUnicodeTransliteratorD1Ev
libicui18n.so.67:_ZN6icu_6725NameUnicodeTransliteratorD2Ev
libicui18n.so.67:_ZN6icu_6725RelativeDateTimeCacheDataD0Ev
libicui18n.so.67:_ZN6icu_6725RelativeDateTimeCacheDataD1Ev
libicui18n.so.67:_ZN6icu_6725RelativeDateTimeCacheDataD2Ev
libicui18n.so.67:_ZN6icu_6725RelativeDateTimeFormatter4initEPNS_12NumberFormatEPNS_13BreakIteratorER10UErrorCode
libicui18n.so.67:_ZN6icu_6725RelativeDateTimeFormatterC1ER10UErrorCode
libicui18n.so.67:_ZN6icu_6725RelativeDateTimeFormatterC1ERKNS_6LocaleEPNS_12NumberFormatE35UDateRelativeDateTimeFormatterStyle15UDisplayContextR10UErrorCode
libicui18n.so.67:_ZN6icu_6725RelativeDateTimeFormatterC1ERKNS_6LocaleEPNS_12NumberFormatER10UErrorCode
libicui18n.so.67:_ZN6icu_6725RelativeDateTimeFormatterC1ERKNS_6LocaleER10UErrorCode
libicui18n.so.67:_ZN6icu_6725RelativeDateTimeFormatterC1ERKS0_
libicui18n.so.67:_ZN6icu_6725RelativeDateTimeFormatterC2ER10UErrorCode
libicui18n.so.67:_ZN6icu_6725RelativeDateTimeFormatterC2ERKNS_6LocaleEPNS_12NumberFormatE35UDateRelativeDateTimeFormatterStyle15UDisplayContextR10UErrorCode
libicui18n.so.67:_ZN6icu_6725RelativeDateTimeFormatterC2ERKNS_6LocaleEPNS_12NumberFormatER10UErrorCode
libicui18n.so.67:_ZN6icu_6725RelativeDateTimeFormatterC2ERKNS_6LocaleER10UErrorCode
libicui18n.so.67:_ZN6icu_6725RelativeDateTimeFormatterC2ERKS0_
libicui18n.so.67:_ZN6icu_6725RelativeDateTimeFormatterD0Ev
libicui18n.so.67:_ZN6icu_6725RelativeDateTimeFormatterD1Ev
libicui18n.so.67:_ZN6icu_6725RelativeDateTimeFormatterD2Ev
libicui18n.so.67:_ZN6icu_6725RelativeDateTimeFormatteraSERKS0_
libicui18n.so.67:_ZN6icu_6725ScientificNumberFormatter14createInstanceEPNS_13DecimalFormatEPNS0_5StyleER10UErrorCode
libicui18n.so.67:_ZN6icu_6725ScientificNumberFormatter14getPreExponentERKNS_20DecimalFormatSymbolsERNS_13UnicodeStringE
libicui18n.so.67:_ZN6icu_6725ScientificNumberFormatter20createMarkupInstanceEPNS_13DecimalFormatERKNS_13UnicodeStringES5_R10UErrorCode
libicui18n.so.67:_ZN6icu_6725ScientificNumberFormatter20createMarkupInstanceERKNS_6LocaleERKNS_13UnicodeStringES6_R10UErrorCode
libicui18n.so.67:_ZN6icu_6725ScientificNumberFormatter25createSuperscriptInstanceEPNS_13DecimalFormatER10UErrorCode
libicui18n.so.67:_ZN6icu_6725ScientificNumberFormatter25createSuperscriptInstanceERKNS_6LocaleER10UErrorCode
libicui18n.so.67:_ZN6icu_6725ScientificNumberFormatterC1EPNS_13DecimalFormatEPNS0_5StyleER10UErrorCode
libicui18n.so.67:_ZN6icu_6725ScientificNumberFormatterC1ERKS0_
libicui18n.so.67:_ZN6icu_6725ScientificNumberFormatterC2EPNS_13DecimalFormatEPNS0_5StyleER10UErrorCode
libicui18n.so.67:_ZN6icu_6725ScientificNumberFormatterC2ERKS0_
libicui18n.so.67:_ZN6icu_6725ScientificNumberFormatterD0Ev
libicui18n.so.67:_ZN6icu_6725ScientificNumberFormatterD1Ev
libicui18n.so.67:_ZN6icu_6725ScientificNumberFormatterD2Ev
libicui18n.so.67:_ZN6icu_6725SimpleNumberFormatFactoryC1ERKNS_6LocaleEa
libicui18n.so.67:_ZN6icu_6725SimpleNumberFormatFactoryC2ERKNS_6LocaleEa
libicui18n.so.67:_ZN6icu_6725SimpleNumberFormatFactoryD0Ev
libicui18n.so.67:_ZN6icu_6725SimpleNumberFormatFactoryD1Ev
libicui18n.so.67:_ZN6icu_6725SimpleNumberFormatFactoryD2Ev
libicui18n.so.67:_ZN6icu_6725UnicodeNameTransliterator16getStaticClassIDEv
libicui18n.so.67:_ZN6icu_6725UnicodeNameTransliteratorC1EPNS_13UnicodeFilterE
libicui18n.so.67:_ZN6icu_6725UnicodeNameTransliteratorC1ERKS0_
libicui18n.so.67:_ZN6icu_6725UnicodeNameTransliteratorC2EPNS_13UnicodeFilterE
libicui18n.so.67:_ZN6icu_6725UnicodeNameTransliteratorC2ERKS0_
libicui18n.so.67:_ZN6icu_6725UnicodeNameTransliteratorD0Ev
libicui18n.so.67:_ZN6icu_6725UnicodeNameTransliteratorD1Ev
libicui18n.so.67:_ZN6icu_6725UnicodeNameTransliteratorD2Ev
libicui18n.so.67:_ZN6icu_6726CharsetRecog_IBM420_ar_ltrD0Ev
libicui18n.so.67:_ZN6icu_6726CharsetRecog_IBM420_ar_ltrD1Ev
libicui18n.so.67:_ZN6icu_6726CharsetRecog_IBM420_ar_ltrD2Ev
libicui18n.so.67:_ZN6icu_6726CharsetRecog_IBM420_ar_rtlD0Ev
libicui18n.so.67:_ZN6icu_6726CharsetRecog_IBM420_ar_rtlD1Ev
libicui18n.so.67:_ZN6icu_6726CharsetRecog_IBM420_ar_rtlD2Ev
libicui18n.so.67:_ZN6icu_6726CharsetRecog_IBM424_he_ltrD0Ev
libicui18n.so.67:_ZN6icu_6726CharsetRecog_IBM424_he_ltrD1Ev
libicui18n.so.67:_ZN6icu_6726CharsetRecog_IBM424_he_ltrD2Ev
libicui18n.so.67:_ZN6icu_6726CharsetRecog_IBM424_he_rtlD0Ev
libicui18n.so.67:_ZN6icu_6726CharsetRecog_IBM424_he_rtlD1Ev
libicui18n.so.67:_ZN6icu_6726CharsetRecog_IBM424_he_rtlD2Ev
libicui18n.so.67:_ZN6icu_6726FractionalPartSubstitution16getStaticClassIDEv
libicui18n.so.67:_ZN6icu_6726FractionalPartSubstitutionC1EiPKNS_9NFRuleSetERKNS_13UnicodeStringER10UErrorCode
libicui18n.so.67:_ZN6icu_6726FractionalPartSubstitutionC2EiPKNS_9NFRuleSetERKNS_13UnicodeStringER10UErrorCode
libicui18n.so.67:_ZN6icu_6726FractionalPartSubstitutionD0Ev
libicui18n.so.67:_ZN6icu_6726FractionalPartSubstitutionD1Ev
libicui18n.so.67:_ZN6icu_6726FractionalPartSubstitutionD2Ev
libicui18n.so.67:_ZN6icu_6726SimpleDateFormatStaticSets13getIgnorablesE16UDateFormatField
libicui18n.so.67:_ZN6icu_6726SimpleDateFormatStaticSets7cleanupEv
libicui18n.so.67:_ZN6icu_6726SimpleDateFormatStaticSetsC1ER10UErrorCode
libicui18n.so.67:_ZN6icu_6726SimpleDateFormatStaticSetsC2ER10UErrorCode
libicui18n.so.67:_ZN6icu_6726SimpleDateFormatStaticSetsD1Ev
libicui18n.so.67:_ZN6icu_6726SimpleDateFormatStaticSetsD2Ev
libicui18n.so.67:_ZN6icu_6726UFormattedDateIntervalImplC1Ev
libicui18n.so.67:_ZN6icu_6726UFormattedDateIntervalImplC2Ev
libicui18n.so.67:_ZN6icu_6726UFormattedDateIntervalImplD1Ev
libicui18n.so.67:_ZN6icu_6726UFormattedDateIntervalImplD2Ev
libicui18n.so.67:_ZN6icu_6727NormalizationTransliterator11registerIDsEv
libicui18n.so.67:_ZN6icu_6727NormalizationTransliterator16getStaticClassIDEv
libicui18n.so.67:_ZN6icu_6727NormalizationTransliterator7_createERKNS_13UnicodeStringENS_14Transliterator5TokenE
libicui18n.so.67:_ZN6icu_6727NormalizationTransliteratorC1ERKNS_13UnicodeStringERKNS_11Normalizer2E
libicui18n.so.67:_ZN6icu_6727NormalizationTransliteratorC1ERKS0_
libicui18n.so.67:_ZN6icu_6727NormalizationTransliteratorC2ERKNS_13UnicodeStringERKNS_11Normalizer2E
libicui18n.so.67:_ZN6icu_6727NormalizationTransliteratorC2ERKS0_
libicui18n.so.67:_ZN6icu_6727NormalizationTransliteratorD0Ev
libicui18n.so.67:_ZN6icu_6727NormalizationTransliteratorD1Ev
libicui18n.so.67:_ZN6icu_6727NormalizationTransliteratorD2Ev
libicui18n.so.67:_ZN6icu_6728DataBuilderCollationIterator13nextCodePointER10UErrorCode
libicui18n.so.67:_ZN6icu_6728DataBuilderCollationIterator13resetToOffsetEi
libicui18n.so.67:_ZN6icu_6728DataBuilderCollationIterator17previousCodePointER10UErrorCode
libicui18n.so.67:_ZN6icu_6728DataBuilderCollationIterator20forwardNumCodePointsEiR10UErrorCode
libicui18n.so.67:_ZN6icu_6728DataBuilderCollationIterator21backwardNumCodePointsEiR10UErrorCode
libicui18n.so.67:_ZN6icu_6728DataBuilderCollationIterator22getCE32FromBuilderDataEjR10UErrorCode
libicui18n.so.67:_ZN6icu_6728DataBuilderCollationIterator8fetchCEsERKNS_13UnicodeStringEiPli
libicui18n.so.67:_ZN6icu_6728DataBuilderCollationIteratorC1ERNS_20CollationDataBuilderE
libicui18n.so.67:_ZN6icu_6728DataBuilderCollationIteratorC2ERNS_20CollationDataBuilderE
libicui18n.so.67:_ZN6icu_6728DataBuilderCollationIteratorD0Ev
libicui18n.so.67:_ZN6icu_6728DataBuilderCollationIteratorD1Ev
libicui18n.so.67:_ZN6icu_6728DataBuilderCollationIteratorD2Ev
libicui18n.so.67:_ZN6icu_6728FieldPositionIteratorHandler12addAttributeEiii
libicui18n.so.67:_ZN6icu_6728FieldPositionIteratorHandler9shiftLastEi
libicui18n.so.67:_ZN6icu_6728FieldPositionIteratorHandlerC1EPNS_21FieldPositionIteratorER10UErrorCode
libicui18n.so.67:_ZN6icu_6728FieldPositionIteratorHandlerC1EPNS_9UVector32ER10UErrorCode
libicui18n.so.67:_ZN6icu_6728FieldPositionIteratorHandlerC2EPNS_21FieldPositionIteratorER10UErrorCode
libicui18n.so.67:_ZN6icu_6728FieldPositionIteratorHandlerC2EPNS_9UVector32ER10UErrorCode
libicui18n.so.67:_ZN6icu_6728FieldPositionIteratorHandlerD0Ev
libicui18n.so.67:_ZN6icu_6728FieldPositionIteratorHandlerD1Ev
libicui18n.so.67:_ZN6icu_6728FieldPositionIteratorHandlerD2Ev
libicui18n.so.67:_ZN6icu_6728TimeZoneGenericNameMatchInfoC1EPNS_7UVectorE
libicui18n.so.67:_ZN6icu_6728TimeZoneGenericNameMatchInfoC2EPNS_7UVectorE
libicui18n.so.67:_ZN6icu_6728TimeZoneGenericNameMatchInfoD1Ev
libicui18n.so.67:_ZN6icu_6728TimeZoneGenericNameMatchInfoD2Ev
libicui18n.so.67:_ZN6icu_6729FormattedRelativeDateTimeDataD0Ev
libicui18n.so.67:_ZN6icu_6729FormattedRelativeDateTimeDataD1Ev
libicui18n.so.67:_ZN6icu_6729FormattedRelativeDateTimeDataD2Ev
libicui18n.so.67:_ZN6icu_6730CollationLocaleListEnumeration16getStaticClassIDEv
libicui18n.so.67:_ZN6icu_6730CollationLocaleListEnumerationD0Ev
libicui18n.so.67:_ZN6icu_6730CollationLocaleListEnumerationD1Ev
libicui18n.so.67:_ZN6icu_6730CollationLocaleListEnumerationD2Ev
libicui18n.so.67:_ZN6icu_6730TextTrieMapSearchResultHandlerD0Ev
libicui18n.so.67:_ZN6icu_6730TextTrieMapSearchResultHandlerD1Ev
libicui18n.so.67:_ZN6icu_6730TextTrieMapSearchResultHandlerD2Ev
libicui18n.so.67:_ZN6icu_6730UFormattedRelativeDateTimeImplC1Ev
libicui18n.so.67:_ZN6icu_6730UFormattedRelativeDateTimeImplC2Ev
libicui18n.so.67:_ZN6icu_6730UFormattedRelativeDateTimeImplD1Ev
libicui18n.so.67:_ZN6icu_6730UFormattedRelativeDateTimeImplD2Ev
libicui18n.so.67:_ZN6icu_6731FormattedValueStringBuilderImpl12isIntOrGroupENS_22FormattedStringBuilder5FieldE
libicui18n.so.67:_ZN6icu_6731FormattedValueStringBuilderImplC1ENS_22FormattedStringBuilder5FieldE
libicui18n.so.67:_ZN6icu_6731FormattedValueStringBuilderImplC2ENS_22FormattedStringBuilder5FieldE
libicui18n.so.67:_ZN6icu_6731FormattedValueStringBuilderImplD0Ev
libicui18n.so.67:_ZN6icu_6731FormattedValueStringBuilderImplD1Ev
libicui18n.so.67:_ZN6icu_6731FormattedValueStringBuilderImplD2Ev
libicui18n.so.67:_ZN6icu_6733PluralAvailableLocalesEnumeration4nextEPiR10UErrorCode
libicui18n.so.67:_ZN6icu_6733PluralAvailableLocalesEnumeration5resetER10UErrorCode
libicui18n.so.67:_ZN6icu_6733PluralAvailableLocalesEnumerationC1ER10UErrorCode
libicui18n.so.67:_ZN6icu_6733PluralAvailableLocalesEnumerationC2ER10UErrorCode
libicui18n.so.67:_ZN6icu_6733PluralAvailableLocalesEnumerationD0Ev
libicui18n.so.67:_ZN6icu_6733PluralAvailableLocalesEnumerationD1Ev
libicui18n.so.67:_ZN6icu_6733PluralAvailableLocalesEnumerationD2Ev
libicui18n.so.67:_ZN6icu_6739FormattedValueFieldPositionIteratorImpl10getHandlerER10UErrorCode
libicui18n.so.67:_ZN6icu_6739FormattedValueFieldPositionIteratorImpl12appendStringENS_13UnicodeStringER10UErrorCode
libicui18n.so.67:_ZN6icu_6739FormattedValueFieldPositionIteratorImpl15addOverlapSpansE14UFieldCategoryaR10UErrorCode
libicui18n.so.67:_ZN6icu_6739FormattedValueFieldPositionIteratorImpl4sortEv
libicui18n.so.67:_ZN6icu_6739FormattedValueFieldPositionIteratorImplC1EiR10UErrorCode
libicui18n.so.67:_ZN6icu_6739FormattedValueFieldPositionIteratorImplC2EiR10UErrorCode
libicui18n.so.67:_ZN6icu_6739FormattedValueFieldPositionIteratorImplD0Ev
libicui18n.so.67:_ZN6icu_6739FormattedValueFieldPositionIteratorImplD1Ev
libicui18n.so.67:_ZN6icu_6739FormattedValueFieldPositionIteratorImplD2Ev
libicui18n.so.67:_ZN6icu_675Grego11dayToFieldsEdRiS1_S1_S1_S1_
libicui18n.so.67:_ZN6icu_675Grego11fieldsToDayEiii
libicui18n.so.67:_ZN6icu_675Grego12timeToFieldsEdRiS1_S1_S1_S1_S1_
libicui18n.so.67:_ZN6icu_675Grego16dayOfWeekInMonthEiii
libicui18n.so.67:_ZN6icu_675Grego9dayOfWeekEd
libicui18n.so.67:_ZN6icu_676Format11syntaxErrorERKNS_13UnicodeStringEiR11UParseError
libicui18n.so.67:_ZN6icu_676Format12setLocaleIDsEPKcS2_
libicui18n.so.67:_ZN6icu_676FormatC1ERKS0_
libicui18n.so.67:_ZN6icu_676FormatC1Ev
libicui18n.so.67:_ZN6icu_676FormatC2ERKS0_
libicui18n.so.67:_ZN6icu_676FormatC2Ev
libicui18n.so.67:_ZN6icu_676FormatD0Ev
libicui18n.so.67:_ZN6icu_676FormatD1Ev
libicui18n.so.67:_ZN6icu_676FormatD2Ev
libicui18n.so.67:_ZN6icu_676FormataSERKS0_
libicui18n.so.67:_ZN6icu_676NFRule12setBaseValueElR10UErrorCode
libicui18n.so.67:_ZN6icu_676NFRule19extractSubstitutionEPKNS_9NFRuleSetEPKS0_R10UErrorCode
libicui18n.so.67:_ZN6icu_676NFRule19parseRuleDescriptorERNS_13UnicodeStringER10UErrorCode
libicui18n.so.67:_ZN6icu_676NFRule20extractSubstitutionsEPKNS_9NFRuleSetERKNS_13UnicodeStringEPKS0_R10UErrorCode
libicui18n.so.67:_ZN6icu_676NFRule23setDecimalFormatSymbolsERKNS_20DecimalFormatSymbolsER10UErrorCode
libicui18n.so.67:_ZN6icu_676NFRule9makeRulesERNS_13UnicodeStringEPNS_9NFRuleSetEPKS0_PKNS_21RuleBasedNumberFormatERNS_10NFRuleListER10UErrorCode
libicui18n.so.67:_ZN6icu_676NFRuleC1EPKNS_21RuleBasedNumberFormatERKNS_13UnicodeStringER10UErrorCode
libicui18n.so.67:_ZN6icu_676NFRuleC2EPKNS_21RuleBasedNumberFormatERKNS_13UnicodeStringER10UErrorCode
libicui18n.so.67:_ZN6icu_676NFRuleD1Ev
libicui18n.so.67:_ZN6icu_676NFRuleD2Ev
libicui18n.so.67:_ZN6icu_676NoUnit16getStaticClassIDEv
libicui18n.so.67:_ZN6icu_676NoUnit4baseEv
libicui18n.so.67:_ZN6icu_676NoUnit7percentEv
libicui18n.so.67:_ZN6icu_676NoUnit8permilleEv
libicui18n.so.67:_ZN6icu_676NoUnitC1EPKc
libicui18n.so.67:_ZN6icu_676NoUnitC1ERKS0_
libicui18n.so.67:_ZN6icu_676NoUnitC2EPKc
libicui18n.so.67:_ZN6icu_676NoUnitC2ERKS0_
libicui18n.so.67:_ZN6icu_676NoUnitD0Ev
libicui18n.so.67:_ZN6icu_676NoUnitD1Ev
libicui18n.so.67:_ZN6icu_676NoUnitD2Ev
libicui18n.so.67:_ZN6icu_676Region11getInstanceEPKcR10UErrorCode
libicui18n.so.67:_ZN6icu_676Region11getInstanceEiR10UErrorCode
libicui18n.so.67:_ZN6icu_676Region12getAvailableE11URegionTypeR10UErrorCode
libicui18n.so.67:_ZN6icu_676Region14loadRegionDataER10UErrorCode
libicui18n.so.67:_ZN6icu_676Region17cleanupRegionDataEv
libicui18n.so.67:_ZN6icu_676RegionC1Ev
libicui18n.so.67:_ZN6icu_676RegionC2Ev
libicui18n.so.67:_ZN6icu_676RegionD0Ev
libicui18n.so.67:_ZN6icu_676RegionD1Ev
libicui18n.so.67:_ZN6icu_676RegionD2Ev
libicui18n.so.67:_ZN6icu_676ZNames12ZNamesLoaderD0Ev
libicui18n.so.67:_ZN6icu_676ZNames12ZNamesLoaderD1Ev
libicui18n.so.67:_ZN6icu_676ZNames12ZNamesLoaderD2Ev
libicui18n.so.67:_ZN6icu_676number12IntegerWidth10truncateAtEi
libicui18n.so.67:_ZN6icu_676number12IntegerWidth10zeroFillToEi
libicui18n.so.67:_ZN6icu_676number12IntegerWidthC1Essb
libicui18n.so.67:_ZN6icu_676number12IntegerWidthC2Essb
libicui18n.so.67:_ZN6icu_676number15FormattedNumberC1EOS1_
libicui18n.so.67:_ZN6icu_676number15FormattedNumberC2EOS1_
libicui18n.so.67:_ZN6icu_676number15FormattedNumberD0Ev
libicui18n.so.67:_ZN6icu_676number15FormattedNumberD1Ev
libicui18n.so.67:_ZN6icu_676number15FormattedNumberD2Ev
libicui18n.so.67:_ZN6icu_676number15FormattedNumberaSEOS1_
libicui18n.so.67:_ZN6icu_676number15NumberFormatter10withLocaleERKNS_6LocaleE
libicui18n.so.67:_ZN6icu_676number15NumberFormatter11forSkeletonERKNS_13UnicodeStringER10UErrorCode
libicui18n.so.67:_ZN6icu_676number15NumberFormatter11forSkeletonERKNS_13UnicodeStringER11UParseErrorR10UErrorCode
libicui18n.so.67:_ZN6icu_676number15NumberFormatter4withEv
libicui18n.so.67:_ZN6icu_676number18ScientificNotationC1Eabs18UNumberSignDisplay
libicui18n.so.67:_ZN6icu_676number18ScientificNotationC2Eabs18UNumberSignDisplay
libicui18n.so.67:_ZN6icu_676number20FormattedNumberRangeC1EOS1_
libicui18n.so.67:_ZN6icu_676number20FormattedNumberRangeC2EOS1_
libicui18n.so.67:_ZN6icu_676number20FormattedNumberRangeD0Ev
libicui18n.so.67:_ZN6icu_676number20FormattedNumberRangeD1Ev
libicui18n.so.67:_ZN6icu_676number20FormattedNumberRangeD2Ev
libicui18n.so.67:_ZN6icu_676number20FormattedNumberRangeaSEOS1_
libicui18n.so.67:_ZN6icu_676number20NumberRangeFormatter10withLocaleERKNS_6LocaleE
libicui18n.so.67:_ZN6icu_676number20NumberRangeFormatter4withEv
libicui18n.so.67:_ZN6icu_676number24LocalizedNumberFormatter13lnfMoveHelperEOS1_
libicui18n.so.67:_ZN6icu_676number24LocalizedNumberFormatter5clearEv
libicui18n.so.67:_ZN6icu_676number24LocalizedNumberFormatterC1EONS0_23NumberFormatterSettingsIS1_EE
libicui18n.so.67:_ZN6icu_676number24LocalizedNumberFormatterC1EONS0_4impl10MacroPropsERKNS_6LocaleE
libicui18n.so.67:_ZN6icu_676number24LocalizedNumberFormatterC1EOS1_
libicui18n.so.67:_ZN6icu_676number24LocalizedNumberFormatterC1ERKNS0_23NumberFormatterSettingsIS1_EE
libicui18n.so.67:_ZN6icu_676number24LocalizedNumberFormatterC1ERKNS0_4impl10MacroPropsERKNS_6LocaleE
libicui18n.so.67:_ZN6icu_676number24LocalizedNumberFormatterC1ERKS1_
libicui18n.so.67:_ZN6icu_676number24LocalizedNumberFormatterC2EONS0_23NumberFormatterSettingsIS1_EE
libicui18n.so.67:_ZN6icu_676number24LocalizedNumberFormatterC2EONS0_4impl10MacroPropsERKNS_6LocaleE
libicui18n.so.67:_ZN6icu_676number24LocalizedNumberFormatterC2EOS1_
libicui18n.so.67:_ZN6icu_676number24LocalizedNumberFormatterC2ERKNS0_23NumberFormatterSettingsIS1_EE
libicui18n.so.67:_ZN6icu_676number24LocalizedNumberFormatterC2ERKNS0_4impl10MacroPropsERKNS_6LocaleE
libicui18n.so.67:_ZN6icu_676number24LocalizedNumberFormatterC2ERKS1_
libicui18n.so.67:_ZN6icu_676number24LocalizedNumberFormatterD1Ev
libicui18n.so.67:_ZN6icu_676number24LocalizedNumberFormatterD2Ev
libicui18n.so.67:_ZN6icu_676number24LocalizedNumberFormatteraSEOS1_
libicui18n.so.67:_ZN6icu_676number24LocalizedNumberFormatteraSERKS1_
libicui18n.so.67:_ZN6icu_676number26UnlocalizedNumberFormatterC1EONS0_23NumberFormatterSettingsIS1_EE
libicui18n.so.67:_ZN6icu_676number26UnlocalizedNumberFormatterC1EOS1_
libicui18n.so.67:_ZN6icu_676number26UnlocalizedNumberFormatterC1ERKNS0_23NumberFormatterSettingsIS1_EE
libicui18n.so.67:_ZN6icu_676number26UnlocalizedNumberFormatterC1ERKS1_
libicui18n.so.67:_ZN6icu_676number26UnlocalizedNumberFormatterC2EONS0_23NumberFormatterSettingsIS1_EE
libicui18n.so.67:_ZN6icu_676number26UnlocalizedNumberFormatterC2EOS1_
libicui18n.so.67:_ZN6icu_676number26UnlocalizedNumberFormatterC2ERKNS0_23NumberFormatterSettingsIS1_EE
libicui18n.so.67:_ZN6icu_676number26UnlocalizedNumberFormatterC2ERKS1_
libicui18n.so.67:_ZN6icu_676number26UnlocalizedNumberFormatteraSEOS1_
libicui18n.so.67:_ZN6icu_676number26UnlocalizedNumberFormatteraSERKS1_
libicui18n.so.67:_ZN6icu_676number29LocalizedNumberRangeFormatterC1EONS0_28NumberRangeFormatterSettingsIS1_EE
libicui18n.so.67:_ZN6icu_676number29LocalizedNumberRangeFormatterC1EONS0_4impl15RangeMacroPropsERKNS_6LocaleE
libicui18n.so.67:_ZN6icu_676number29LocalizedNumberRangeFormatterC1EOS1_
libicui18n.so.67:_ZN6icu_676number29LocalizedNumberRangeFormatterC1ERKNS0_28NumberRangeFormatterSettingsIS1_EE
libicui18n.so.67:_ZN6icu_676number29LocalizedNumberRangeFormatterC1ERKNS0_4impl15RangeMacroPropsERKNS_6LocaleE
libicui18n.so.67:_ZN6icu_676number29LocalizedNumberRangeFormatterC1ERKS1_
libicui18n.so.67:_ZN6icu_676number29LocalizedNumberRangeFormatterC2EONS0_28NumberRangeFormatterSettingsIS1_EE
libicui18n.so.67:_ZN6icu_676number29LocalizedNumberRangeFormatterC2EONS0_4impl15RangeMacroPropsERKNS_6LocaleE
libicui18n.so.67:_ZN6icu_676number29LocalizedNumberRangeFormatterC2EOS1_
libicui18n.so.67:_ZN6icu_676number29LocalizedNumberRangeFormatterC2ERKNS0_28NumberRangeFormatterSettingsIS1_EE
libicui18n.so.67:_ZN6icu_676number29LocalizedNumberRangeFormatterC2ERKNS0_4impl15RangeMacroPropsERKNS_6LocaleE
libicui18n.so.67:_ZN6icu_676number29LocalizedNumberRangeFormatterC2ERKS1_
libicui18n.so.67:_ZN6icu_676number29LocalizedNumberRangeFormatterD1Ev
libicui18n.so.67:_ZN6icu_676number29LocalizedNumberRangeFormatterD2Ev
libicui18n.so.67:_ZN6icu_676number29LocalizedNumberRangeFormatteraSEOS1_
libicui18n.so.67:_ZN6icu_676number29LocalizedNumberRangeFormatteraSERKS1_
libicui18n.so.67:_ZN6icu_676number31UnlocalizedNumberRangeFormatterC1EONS0_28NumberRangeFormatterSettingsIS1_EE
libicui18n.so.67:_ZN6icu_676number31UnlocalizedNumberRangeFormatterC1EOS1_
libicui18n.so.67:_ZN6icu_676number31UnlocalizedNumberRangeFormatterC1ERKNS0_28NumberRangeFormatterSettingsIS1_EE
libicui18n.so.67:_ZN6icu_676number31UnlocalizedNumberRangeFormatterC1ERKS1_
libicui18n.so.67:_ZN6icu_676number31UnlocalizedNumberRangeFormatterC2EONS0_28NumberRangeFormatterSettingsIS1_EE
libicui18n.so.67:_ZN6icu_676number31UnlocalizedNumberRangeFormatterC2EOS1_
libicui18n.so.67:_ZN6icu_676number31UnlocalizedNumberRangeFormatterC2ERKNS0_28NumberRangeFormatterSettingsIS1_EE
libicui18n.so.67:_ZN6icu_676number31UnlocalizedNumberRangeFormatterC2ERKS1_
libicui18n.so.67:_ZN6icu_676number31UnlocalizedNumberRangeFormatteraSEOS1_
libicui18n.so.67:_ZN6icu_676number31UnlocalizedNumberRangeFormatteraSERKS1_
libicui18n.so.67:_ZN6icu_676number4impl10AffixUtils11replaceTypeERKNS_13UnicodeStringENS1_16AffixPatternTypeEDsR10UErrorCode
libicui18n.so.67:_ZN6icu_676number4impl10AffixUtils12containsTypeERKNS_13UnicodeStringENS1_16AffixPatternTypeER10UErrorCode
libicui18n.so.67:_ZN6icu_676number4impl10AffixUtils14estimateLengthERKNS_13UnicodeStringER10UErrorCode
libicui18n.so.67:_ZN6icu_676number4impl10AffixUtils15getFieldForTypeENS1_16AffixPatternTypeE
libicui18n.so.67:_ZN6icu_676number4impl10AffixUtils18hasCurrencySymbolsERKNS_13UnicodeStringER10UErrorCode
libicui18n.so.67:_ZN6icu_676number4impl10AffixUtils19iterateWithConsumerERKNS_13UnicodeStringERNS1_13TokenConsumerER10UErrorCode
libicui18n.so.67:_ZN6icu_676number4impl10AffixUtils23unescapedCodePointCountERKNS_13UnicodeStringERKNS1_14SymbolProviderER10UErrorCode
libicui18n.so.67:_ZN6icu_676number4impl10AffixUtils32containsOnlySymbolsAndIgnorablesERKNS_13UnicodeStringERKNS_10UnicodeSetER10UErrorCode
libicui18n.so.67:_ZN6icu_676number4impl10AffixUtils6escapeERKNS_13UnicodeStringE
libicui18n.so.67:_ZN6icu_676number4impl10AffixUtils7hasNextERKNS1_8AffixTagERKNS_13UnicodeStringE
libicui18n.so.67:_ZN6icu_676number4impl10AffixUtils8unescapeERKNS_13UnicodeStringERNS_22FormattedStringBuilderEiRKNS1_14SymbolProviderENS6_5FieldER10UErrorCode
libicui18n.so.67:_ZN6icu_676number4impl10AffixUtils9nextTokenENS1_8AffixTagERKNS_13UnicodeStringER10UErrorCode
libicui18n.so.67:_ZN6icu_676number4impl11CompactData15CompactDataSink3putEPKcRNS_13ResourceValueEaR10UErrorCode
libicui18n.so.67:_ZN6icu_676number4impl11CompactData8populateERKNS_6LocaleEPKc19UNumberCompactStyleNS1_11CompactTypeER10UErrorCode
libicui18n.so.67:_ZN6icu_676number4impl11CompactDataC1Ev
libicui18n.so.67:_ZN6icu_676number4impl11CompactDataC2Ev
libicui18n.so.67:_ZN6icu_676number4impl12RoundingImpl11passThroughEv
libicui18n.so.67:_ZN6icu_676number4impl12RoundingImpl24chooseMultiplierAndApplyERNS1_15DecimalQuantityERKNS1_18MultiplierProducerER10UErrorCode
libicui18n.so.67:_ZN6icu_676number4impl12RoundingImpl5applyERNS1_15DecimalQuantityEi10UErrorCode
libicui18n.so.67:_ZN6icu_676number4impl12RoundingImplC1ERKNS0_9PrecisionE25UNumberFormatRoundingModeRKNS_12CurrencyUnitER10UErrorCode
libicui18n.so.67:_ZN6icu_676number4impl12RoundingImplC2ERKNS0_9PrecisionE25UNumberFormatRoundingModeRKNS_12CurrencyUnitER10UErrorCode
libicui18n.so.67:_ZN6icu_676number4impl13ModifierStoreD0Ev
libicui18n.so.67:_ZN6icu_676number4impl13ModifierStoreD1Ev
libicui18n.so.67:_ZN6icu_676number4impl13ModifierStoreD2Ev
libicui18n.so.67:_ZN6icu_676number4impl13PatternParser17parseToPropertiesERKNS_13UnicodeStringENS1_14IgnoreRoundingER10UErrorCode
libicui18n.so.67:_ZN6icu_676number4impl13PatternParser17parseToPropertiesERKNS_13UnicodeStringER10UErrorCode
libicui18n.so.67:_ZN6icu_676number4impl13PatternParser18parseToPatternInfoERKNS_13UnicodeStringERNS1_17ParsedPatternInfoER10UErrorCode
libicui18n.so.67:_ZN6icu_676number4impl13PatternParser23patternInfoToPropertiesERNS1_23DecimalFormatPropertiesERNS1_17ParsedPatternInfoENS1_14IgnoreRoundingER10UErrorCode
libicui18n.so.67:_ZN6icu_676number4impl13PatternParser25parseToExistingPropertiesERKNS_13UnicodeStringERNS1_23DecimalFormatPropertiesENS1_14IgnoreRoundingER10UErrorCode
libicui18n.so.67:_ZN6icu_676number4impl13PatternParser29parseToExistingPropertiesImplERKNS_13UnicodeStringERNS1_23DecimalFormatPropertiesENS1_14IgnoreRoundingER10UErrorCode
libicui18n.so.67:_ZN6icu_676number4impl13TokenConsumerD0Ev
libicui18n.so.67:_ZN6icu_676number4impl13TokenConsumerD1Ev
libicui18n.so.67:_ZN6icu_676number4impl13TokenConsumerD2Ev
libicui18n.so.67:_ZN6icu_676number4impl13roundingutils20doubleFractionLengthEdPa
libicui18n.so.67:_ZN6icu_676number4impl14CompactHandler22precomputeAllModifiersERNS1_22MutablePatternModifierER10UErrorCode
libicui18n.so.67:_ZN6icu_676number4impl14CompactHandlerC1E19UNumberCompactStyleRKNS_6LocaleEPKcNS1_11CompactTypeEPKNS_11PluralRulesEPNS1_22MutablePatternModifierEbPKNS1_19MicroPropsGeneratorER10UErrorCode
libicui18n.so.67:_ZN6icu_676number4impl14CompactHandlerC2E19UNumberCompactStyleRKNS_6LocaleEPKcNS1_11CompactTypeEPKNS_11PluralRulesEPNS1_22MutablePatternModifierEbPKNS1_19MicroPropsGeneratorER10UErrorCode
libicui18n.so.67:_ZN6icu_676number4impl14CompactHandlerD0Ev
libicui18n.so.67:_ZN6icu_676number4impl14CompactHandlerD1Ev
libicui18n.so.67:_ZN6icu_676number4impl14CompactHandlerD2Ev
libicui18n.so.67:_ZN6icu_676number4impl14SimpleModifier19formatTwoArgPatternERKNS_15SimpleFormatterERNS_22FormattedStringBuilderEiPiS8_NS6_5FieldER10UErrorCode
libicui18n.so.67:_ZN6icu_676number4impl14SimpleModifierC1ERKNS_15SimpleFormatterENS_22FormattedStringBuilder5FieldEb
libicui18n.so.67:_ZN6icu_676number4impl14SimpleModifierC1ERKNS_15SimpleFormatterENS_22FormattedStringBuilder5FieldEbNS1_8Modifier10ParametersE
libicui18n.so.67:_ZN6icu_676number4impl14SimpleModifierC1Ev
libicui18n.so.67:_ZN6icu_676number4impl14SimpleModifierC2ERKNS_15SimpleFormatterENS_22FormattedStringBuilder5FieldEb
libicui18n.so.67:_ZN6icu_676number4impl14SimpleModifierC2ERKNS_15SimpleFormatterENS_22FormattedStringBuilder5FieldEbNS1_8Modifier10ParametersE
libicui18n.so.67:_ZN6icu_676number4impl14SimpleModifierC2Ev
libicui18n.so.67:_ZN6icu_676number4impl14SymbolProviderD0Ev
libicui18n.so.67:_ZN6icu_676number4impl14SymbolProviderD1Ev
libicui18n.so.67:_ZN6icu_676number4impl14SymbolProviderD2Ev
libicui18n.so.67:_ZN6icu_676number4impl14SymbolsWrapper10doCopyFromERKS2_
libicui18n.so.67:_ZN6icu_676number4impl14SymbolsWrapper10doMoveFromEOS2_
libicui18n.so.67:_ZN6icu_676number4impl14SymbolsWrapper5setToEPKNS_15NumberingSystemE
libicui18n.so.67:_ZN6icu_676number4impl14SymbolsWrapper5setToERKNS_20DecimalFormatSymbolsE
libicui18n.so.67:_ZN6icu_676number4impl14SymbolsWrapper9doCleanupEv
libicui18n.so.67:_ZN6icu_676number4impl14SymbolsWrapperC1EOS2_
libicui18n.so.67:_ZN6icu_676number4impl14SymbolsWrapperC1ERKS2_
libicui18n.so.67:_ZN6icu_676number4impl14SymbolsWrapperC2EOS2_
libicui18n.so.67:_ZN6icu_676number4impl14SymbolsWrapperC2ERKS2_
libicui18n.so.67:_ZN6icu_676number4impl14SymbolsWrapperD1Ev
libicui18n.so.67:_ZN6icu_676number4impl14SymbolsWrapperD2Ev
libicui18n.so.67:_ZN6icu_676number4impl14SymbolsWrapperaSEOS2_
libicui18n.so.67:_ZN6icu_676number4impl14SymbolsWrapperaSERKS2_
libicui18n.so.67:_ZN6icu_676number4impl14stem_to_object11signDisplayENS1_8skeleton8StemEnumE
libicui18n.so.67:_ZN6icu_676number4impl14stem_to_object12roundingModeENS1_8skeleton8StemEnumE
libicui18n.so.67:_ZN6icu_676number4impl14stem_to_object16groupingStrategyENS1_8skeleton8StemEnumE
libicui18n.so.67:_ZN6icu_676number4impl14stem_to_object23decimalSeparatorDisplayENS1_8skeleton8StemEnumE
libicui18n.so.67:_ZN6icu_676number4impl14stem_to_object4unitENS1_8skeleton8StemEnumE
libicui18n.so.67:_ZN6icu_676number4impl14stem_to_object8notationENS1_8skeleton8StemEnumE
libicui18n.so.67:_ZN6icu_676number4impl14stem_to_object9precisionENS1_8skeleton8StemEnumE
libicui18n.so.67:_ZN6icu_676number4impl14stem_to_object9unitWidthENS1_8skeleton8StemEnumE
libicui18n.so.67:_ZN6icu_676number4impl15CurrencySymbolsC1ENS_12CurrencyUnitERKNS_6LocaleER10UErrorCode
libicui18n.so.67:_ZN6icu_676number4impl15CurrencySymbolsC1ENS_12CurrencyUnitERKNS_6LocaleERKNS_20DecimalFormatSymbolsER10UErrorCode
libicui18n.so.67:_ZN6icu_676number4impl15CurrencySymbolsC2ENS_12CurrencyUnitERKNS_6LocaleER10UErrorCode
libicui18n.so.67:_ZN6icu_676number4impl15CurrencySymbolsC2ENS_12CurrencyUnitERKNS_6LocaleERKNS_20DecimalFormatSymbolsER10UErrorCode
libicui18n.so.67:_ZN6icu_676number4impl15DecimalQuantity10_setToLongEl
libicui18n.so.67:_ZN6icu_676number4impl15DecimalQuantity10multiplyByERKNS1_6DecNumER10UErrorCode
libicui18n.so.67:_ZN6icu_676number4impl15DecimalQuantity10shiftRightEi
libicui18n.so.67:_ZN6icu_676number4impl15DecimalQuantity11appendDigitEaib
libicui18n.so.67:_ZN6icu_676number4impl15DecimalQuantity11copyBcdFromERKS2_
libicui18n.so.67:_ZN6icu_676number4impl15DecimalQuantity11moveBcdFromERS2_
libicui18n.so.67:_ZN6icu_676number4impl15DecimalQuantity11popFromLeftEi
libicui18n.so.67:_ZN6icu_676number4impl15DecimalQuantity11setDigitPosEia
libicui18n.so.67:_ZN6icu_676number4impl15DecimalQuantity11setToDecNumERKNS1_6DecNumER10UErrorCode
libicui18n.so.67:_ZN6icu_676number4impl15DecimalQuantity11setToDoubleEd
libicui18n.so.67:_ZN6icu_676number4impl15DecimalQuantity12_setToDecNumERKNS1_6DecNumER10UErrorCode
libicui18n.so.67:_ZN6icu_676number4impl15DecimalQuantity12readIntToBcdEi
libicui18n.so.67:_ZN6icu_676number4impl15DecimalQuantity12setBcdToZeroEv
libicui18n.so.67:_ZN6icu_676number4impl15DecimalQuantity13readLongToBcdEl
libicui18n.so.67:_ZN6icu_676number4impl15DecimalQuantity13roundToNickelEi25UNumberFormatRoundingModeR10UErrorCode
libicui18n.so.67:_ZN6icu_676number4impl15DecimalQuantity13setMinIntegerEi
libicui18n.so.67:_ZN6icu_676number4impl15DecimalQuantity13switchStorageEv
libicui18n.so.67:_ZN6icu_676number4impl15DecimalQuantity14adjustExponentEi
libicui18n.so.67:_ZN6icu_676number4impl15DecimalQuantity14copyFieldsFromERKS2_
libicui18n.so.67:_ZN6icu_676number4impl15DecimalQuantity14ensureCapacityEi
libicui18n.so.67:_ZN6icu_676number4impl15DecimalQuantity14ensureCapacityEv
libicui18n.so.67:_ZN6icu_676number4impl15DecimalQuantity14setMinFractionEi
libicui18n.so.67:_ZN6icu_676number4impl15DecimalQuantity14setToDecNumberENS_11StringPieceER10UErrorCode
libicui18n.so.67:_ZN6icu_676number4impl15DecimalQuantity15adjustMagnitudeEi
libicui18n.so.67:_ZN6icu_676number4impl15DecimalQuantity15applyMaxIntegerEi
libicui18n.so.67:_ZN6icu_676number4impl15DecimalQuantity15roundToInfinityEv
libicui18n.so.67:_ZN6icu_676number4impl15DecimalQuantity16_setToDoubleFastEd
libicui18n.so.67:_ZN6icu_676number4impl15DecimalQuantity16roundToIncrementEd25UNumberFormatRoundingModeR10UErrorCode
libicui18n.so.67:_ZN6icu_676number4impl15DecimalQuantity16roundToMagnitudeEi25UNumberFormatRoundingModeR10UErrorCode
libicui18n.so.67:_ZN6icu_676number4impl15DecimalQuantity16roundToMagnitudeEi25UNumberFormatRoundingModebR10UErrorCode
libicui18n.so.67:_ZN6icu_676number4impl15DecimalQuantity18readDecNumberToBcdERKNS1_6DecNumE
libicui18n.so.67:_ZN6icu_676number4impl15DecimalQuantity23convertToAccurateDoubleEv
libicui18n.so.67:_ZN6icu_676number4impl15DecimalQuantity25readDoubleConversionToBcdEPKcii
libicui18n.so.67:_ZN6icu_676number4impl15DecimalQuantity5clearEv
libicui18n.so.67:_ZN6icu_676number4impl15DecimalQuantity6negateEv
libicui18n.so.67:_ZN6icu_676number4impl15DecimalQuantity7compactEv
libicui18n.so.67:_ZN6icu_676number4impl15DecimalQuantity8divideByERKNS1_6DecNumER10UErrorCode
libicui18n.so.67:_ZN6icu_676number4impl15DecimalQuantity8setToIntEi
libicui18n.so.67:_ZN6icu_676number4impl15DecimalQuantity8truncateEv
libicui18n.so.67:_ZN6icu_676number4impl15DecimalQuantity9_setToIntEi
libicui18n.so.67:_ZN6icu_676number4impl15DecimalQuantity9setToLongEl
libicui18n.so.67:_ZN6icu_676number4impl15DecimalQuantity9shiftLeftEi
libicui18n.so.67:_ZN6icu_676number4impl15DecimalQuantityC1EOS2_
libicui18n.so.67:_ZN6icu_676number4impl15DecimalQuantityC1ERKS2_
libicui18n.so.67:_ZN6icu_676number4impl15DecimalQuantityC1Ev
libicui18n.so.67:_ZN6icu_676number4impl15DecimalQuantityC2EOS2_
libicui18n.so.67:_ZN6icu_676number4impl15DecimalQuantityC2ERKS2_
libicui18n.so.67:_ZN6icu_676number4impl15DecimalQuantityC2Ev
libicui18n.so.67:_ZN6icu_676number4impl15DecimalQuantityD0Ev
libicui18n.so.67:_ZN6icu_676number4impl15DecimalQuantityD1Ev
libicui18n.so.67:_ZN6icu_676number4impl15DecimalQuantityD2Ev
libicui18n.so.67:_ZN6icu_676number4impl15DecimalQuantityaSEOS2_
libicui18n.so.67:_ZN6icu_676number4impl15DecimalQuantityaSERKS2_
libicui18n.so.67:_ZN6icu_676number4impl15LongNameHandler14forMeasureUnitERKNS_6LocaleERKNS_11MeasureUnitES8_RK16UNumberUnitWidthPKNS_11PluralRulesEPKNS1_19MicroPropsGeneratorER10UErrorCode
libicui18n.so.67:_ZN6icu_676number4impl15LongNameHandler14getUnitPatternERKNS_6LocaleERKNS_11MeasureUnitE16UNumberUnitWidthNS_14StandardPlural4FormER10UErrorCode
libicui18n.so.67:_ZN6icu_676number4impl15LongNameHandler15forCompoundUnitERKNS_6LocaleERKNS_11MeasureUnitES8_RK16UNumberUnitWidthPKNS_11PluralRulesEPKNS1_19MicroPropsGeneratorER10UErrorCode
libicui18n.so.67:_ZN6icu_676number4impl15LongNameHandler18getUnitDisplayNameERKNS_6LocaleERKNS_11MeasureUnitE16UNumberUnitWidthR10UErrorCode
libicui18n.so.67:_ZN6icu_676number4impl15LongNameHandler20forCurrencyLongNamesERKNS_6LocaleERKNS_12CurrencyUnitEPKNS_11PluralRulesEPKNS1_19MicroPropsGeneratorER10UErrorCode
libicui18n.so.67:_ZN6icu_676number4impl15LongNameHandler24simpleFormatsToModifiersEPKNS_13UnicodeStringENS_22FormattedStringBuilder5FieldER10UErrorCode
libicui18n.so.67:_ZN6icu_676number4impl15LongNameHandler29multiSimpleFormatsToModifiersEPKNS_13UnicodeStringES3_NS_22FormattedStringBuilder5FieldER10UErrorCode
libicui18n.so.67:_ZN6icu_676number4impl15resolveCurrencyERKNS1_23DecimalFormatPropertiesERKNS_6LocaleER10UErrorCode
libicui18n.so.67:_ZN6icu_676number4impl16GeneratorHelpers12integerWidthERKNS1_10MacroPropsERNS_13UnicodeStringER10UErrorCode
libicui18n.so.67:_ZN6icu_676number4impl16GeneratorHelpers12roundingModeERKNS1_10MacroPropsERNS_13UnicodeStringER10UErrorCode
libicui18n.so.67:_ZN6icu_676number4impl16GeneratorHelpers16generateSkeletonERKNS1_10MacroPropsERNS_13UnicodeStringER10UErrorCode
libicui18n.so.67:_ZN6icu_676number4impl16GeneratorHelpers4signERKNS1_10MacroPropsERNS_13UnicodeStringER10UErrorCode
libicui18n.so.67:_ZN6icu_676number4impl16GeneratorHelpers4unitERKNS1_10MacroPropsERNS_13UnicodeStringER10UErrorCode
libicui18n.so.67:_ZN6icu_676number4impl16GeneratorHelpers5scaleERKNS1_10MacroPropsERNS_13UnicodeStringER10UErrorCode
libicui18n.so.67:_ZN6icu_676number4impl16GeneratorHelpers7decimalERKNS1_10MacroPropsERNS_13UnicodeStringER10UErrorCode
libicui18n.so.67:_ZN6icu_676number4impl16GeneratorHelpers7perUnitERKNS1_10MacroPropsERNS_13UnicodeStringER10UErrorCode
libicui18n.so.67:_ZN6icu_676number4impl16GeneratorHelpers7symbolsERKNS1_10MacroPropsERNS_13UnicodeStringER10UErrorCode
libicui18n.so.67:_ZN6icu_676number4impl16GeneratorHelpers8groupingERKNS1_10MacroPropsERNS_13UnicodeStringER10UErrorCode
libicui18n.so.67:_ZN6icu_676number4impl16GeneratorHelpers8notationERKNS1_10MacroPropsERNS_13UnicodeStringER10UErrorCode
libicui18n.so.67:_ZN6icu_676number4impl16GeneratorHelpers9precisionERKNS1_10MacroPropsERNS_13UnicodeStringER10UErrorCode
libicui18n.so.67:_ZN6icu_676number4impl16GeneratorHelpers9unitWidthERKNS1_10MacroPropsERNS_13UnicodeStringER10UErrorCode
libicui18n.so.67:_ZN6icu_676number4impl17ParsedPatternInfo11ParserState4nextEv
libicui18n.so.67:_ZN6icu_676number4impl17ParsedPatternInfo11ParserState4peekEv
libicui18n.so.67:_ZN6icu_676number4impl17ParsedPatternInfo12consumeAffixERNS1_9EndpointsER10UErrorCode
libicui18n.so.67:_ZN6icu_676number4impl17ParsedPatternInfo13consumeFormatER10UErrorCode
libicui18n.so.67:_ZN6icu_676number4impl17ParsedPatternInfo14consumeLiteralER10UErrorCode
libicui18n.so.67:_ZN6icu_676number4impl17ParsedPatternInfo14consumePaddingE24UNumberFormatPadPositionR10UErrorCode
libicui18n.so.67:_ZN6icu_676number4impl17ParsedPatternInfo14consumePatternERKNS_13UnicodeStringER10UErrorCode
libicui18n.so.67:_ZN6icu_676number4impl17ParsedPatternInfo15consumeExponentER10UErrorCode
libicui18n.so.67:_ZN6icu_676number4impl17ParsedPatternInfo17consumeSubpatternER10UErrorCode
libicui18n.so.67:_ZN6icu_676number4impl17ParsedPatternInfo20consumeIntegerFormatER10UErrorCode
libicui18n.so.67:_ZN6icu_676number4impl17ParsedPatternInfo21consumeFractionFormatER10UErrorCode
libicui18n.so.67:_ZN6icu_676number4impl17ParsedPatternInfo22getLengthFromEndpointsERKNS1_9EndpointsE
libicui18n.so.67:_ZN6icu_676number4impl17ScientificHandlerC1EPKNS0_8NotationEPKNS_20DecimalFormatSymbolsEPKNS1_19MicroPropsGeneratorE
libicui18n.so.67:_ZN6icu_676number4impl17ScientificHandlerC2EPKNS0_8NotationEPKNS_20DecimalFormatSymbolsEPKNS1_19MicroPropsGeneratorE
libicui18n.so.67:_ZN6icu_676number4impl17blueprint_helpers15parseDigitsStemERKNS_13StringSegmentERNS1_10MacroPropsER10UErrorCode
libicui18n.so.67:_ZN6icu_676number4impl17blueprint_helpers16parseIntegerStemERKNS_13StringSegmentERNS1_10MacroPropsER10UErrorCode
libicui18n.so.67:_ZN6icu_676number4impl17blueprint_helpers16parseScaleOptionERKNS_13StringSegmentERNS1_10MacroPropsER10UErrorCode
libicui18n.so.67:_ZN6icu_676number4impl17blueprint_helpers17parseFractionStemERKNS_13StringSegmentERNS1_10MacroPropsER10UErrorCode
libicui18n.so.67:_ZN6icu_676number4impl17blueprint_helpers18generateDigitsStemEiiRNS_13UnicodeStringER10UErrorCode
libicui18n.so.67:_ZN6icu_676number4impl17blueprint_helpers18parseFracSigOptionERKNS_13StringSegmentERNS1_10MacroPropsER10UErrorCode
libicui18n.so.67:_ZN6icu_676number4impl17blueprint_helpers19generateScaleOptionEiPKNS1_6DecNumERNS_13UnicodeStringER10UErrorCode
libicui18n.so.67:_ZN6icu_676number4impl17blueprint_helpers19parseCurrencyOptionERKNS_13StringSegmentERNS1_10MacroPropsER10UErrorCode
libicui18n.so.67:_ZN6icu_676number4impl17blueprint_helpers19parseScientificStemERKNS_13StringSegmentERNS1_10MacroPropsER10UErrorCode
libicui18n.so.67:_ZN6icu_676number4impl17blueprint_helpers20generateFractionStemEiiRNS_13UnicodeStringER10UErrorCode
libicui18n.so.67:_ZN6icu_676number4impl17blueprint_helpers20parseIncrementOptionERKNS_13StringSegmentERNS1_10MacroPropsER10UErrorCode
libicui18n.so.67:_ZN6icu_676number4impl17blueprint_helpers22generateCurrencyOptionERKNS_12CurrencyUnitERNS_13UnicodeStringER10UErrorCode
libicui18n.so.67:_ZN6icu_676number4impl17blueprint_helpers22parseMeasureUnitOptionERKNS_13StringSegmentERNS1_10MacroPropsER10UErrorCode
libicui18n.so.67:_ZN6icu_676number4impl17blueprint_helpers23generateIncrementOptionEdiRNS_13UnicodeStringER10UErrorCode
libicui18n.so.67:_ZN6icu_676number4impl17blueprint_helpers23parseExponentSignOptionERKNS_13StringSegmentERNS1_10MacroPropsER10UErrorCode
libicui18n.so.67:_ZN6icu_676number4impl17blueprint_helpers23parseIntegerWidthOptionERKNS_13StringSegmentERNS1_10MacroPropsER10UErrorCode
libicui18n.so.67:_ZN6icu_676number4impl17blueprint_helpers24parseExponentWidthOptionERKNS_13StringSegmentERNS1_10MacroPropsER10UErrorCode
libicui18n.so.67:_ZN6icu_676number4impl17blueprint_helpers25generateMeasureUnitOptionERKNS_11MeasureUnitERNS_13UnicodeStringER10UErrorCode
libicui18n.so.67:_ZN6icu_676number4impl17blueprint_helpers25parseIdentifierUnitOptionERKNS_13StringSegmentERNS1_10MacroPropsER10UErrorCode
libicui18n.so.67:_ZN6icu_676number4impl17blueprint_helpers25parseMeasurePerUnitOptionERKNS_13StringSegmentERNS1_10MacroPropsER10UErrorCode
libicui18n.so.67:_ZN6icu_676number4impl17blueprint_helpers26generateIntegerWidthOptionEiiRNS_13UnicodeStringER10UErrorCode
libicui18n.so.67:_ZN6icu_676number4impl17blueprint_helpers26parseNumberingSystemOptionERKNS_13StringSegmentERNS1_10MacroPropsER10UErrorCode
libicui18n.so.67:_ZN6icu_676number4impl17blueprint_helpers27generateExponentWidthOptionEiRNS_13UnicodeStringER10UErrorCode
libicui18n.so.67:_ZN6icu_676number4impl17blueprint_helpers29generateNumberingSystemOptionERKNS_15NumberingSystemERNS_13UnicodeStringER10UErrorCode
libicui18n.so.67:_ZN6icu_676number4impl17touchRangeLocalesERNS1_15RangeMacroPropsE
libicui18n.so.67:_ZN6icu_676number4impl18MultiplierProducerD0Ev
libicui18n.so.67:_ZN6icu_676number4impl18MultiplierProducerD1Ev
libicui18n.so.67:_ZN6icu_676number4impl18MultiplierProducerD2Ev
libicui18n.so.67:_ZN6icu_676number4impl18PatternStringUtils16convertLocalizedERKNS_13UnicodeStringERKNS_20DecimalFormatSymbolsEbR10UErrorCode
libicui18n.so.67:_ZN6icu_676number4impl18PatternStringUtils18resolveSignDisplayE18UNumberSignDisplayNS1_6SignumE
libicui18n.so.67:_ZN6icu_676number4impl18PatternStringUtils19escapePaddingStringENS_13UnicodeStringERS3_iR10UErrorCode
libicui18n.so.67:_ZN6icu_676number4impl18PatternStringUtils23ignoreRoundingIncrementEdi
libicui18n.so.67:_ZN6icu_676number4impl18PatternStringUtils25propertiesToPatternStringERKNS1_23DecimalFormatPropertiesER10UErrorCode
libicui18n.so.67:_ZN6icu_676number4impl18PatternStringUtils26patternInfoToStringBuilderERKNS1_20AffixPatternProviderEbNS1_15PatternSignTypeENS_14StandardPlural4FormEbRNS_13UnicodeStringE
libicui18n.so.67:_ZN6icu_676number4impl18ScientificModifier3setEiPKNS1_17ScientificHandlerE
libicui18n.so.67:_ZN6icu_676number4impl18ScientificModifierC1Ev
libicui18n.so.67:_ZN6icu_676number4impl18ScientificModifierC2Ev
libicui18n.so.67:_ZN6icu_676number4impl19MicroPropsGeneratorD0Ev
libicui18n.so.67:_ZN6icu_676number4impl19MicroPropsGeneratorD1Ev
libicui18n.so.67:_ZN6icu_676number4impl19MicroPropsGeneratorD2Ev
libicui18n.so.67:_ZN6icu_676number4impl19NumberFormatterImpl11writeNumberERKNS1_10MicroPropsERNS1_15DecimalQuantityERNS_22FormattedStringBuilderEiR10UErrorCode
libicui18n.so.67:_ZN6icu_676number4impl19NumberFormatterImpl12formatStaticERKNS1_10MacroPropsERNS1_15DecimalQuantityERNS_22FormattedStringBuilderER10UErrorCode
libicui18n.so.67:_ZN6icu_676number4impl19NumberFormatterImpl12writeAffixesERKNS1_10MicroPropsERNS_22FormattedStringBuilderEiiR10UErrorCode
libicui18n.so.67:_ZN6icu_676number4impl19NumberFormatterImpl16preProcessUnsafeERNS1_15DecimalQuantityER10UErrorCode
libicui18n.so.67:_ZN6icu_676number4impl19NumberFormatterImpl18resolvePluralRulesEPKNS_11PluralRulesERKNS_6LocaleER10UErrorCode
libicui18n.so.67:_ZN6icu_676number4impl19NumberFormatterImpl18writeIntegerDigitsERKNS1_10MicroPropsERNS1_15DecimalQuantityERNS_22FormattedStringBuilderEiR10UErrorCode
libicui18n.so.67:_ZN6icu_676number4impl19NumberFormatterImpl19writeFractionDigitsERKNS1_10MicroPropsERNS1_15DecimalQuantityERNS_22FormattedStringBuilderEiR10UErrorCode
libicui18n.so.67:_ZN6icu_676number4impl19NumberFormatterImpl21getPrefixSuffixStaticERKNS1_10MacroPropsENS1_6SignumENS_14StandardPlural4FormERNS_22FormattedStringBuilderER10UErrorCode
libicui18n.so.67:_ZN6icu_676number4impl19NumberFormatterImpl21getPrefixSuffixUnsafeENS1_6SignumENS_14StandardPlural4FormERNS_22FormattedStringBuilderER10UErrorCode
libicui18n.so.67:_ZN6icu_676number4impl19NumberFormatterImpl22macrosToMicroGeneratorERKNS1_10MacroPropsEbR10UErrorCode
libicui18n.so.67:_ZN6icu_676number4impl19NumberFormatterImplC1ERKNS1_10MacroPropsER10UErrorCode
libicui18n.so.67:_ZN6icu_676number4impl19NumberFormatterImplC1ERKNS1_10MacroPropsEbR10UErrorCode
libicui18n.so.67:_ZN6icu_676number4impl19NumberFormatterImplC2ERKNS1_10MacroPropsER10UErrorCode
libicui18n.so.67:_ZN6icu_676number4impl19NumberFormatterImplC2ERKNS1_10MacroPropsEbR10UErrorCode
libicui18n.so.67:_ZN6icu_676number4impl19enum_to_stem_string11signDisplayE18UNumberSignDisplayRNS_13UnicodeStringE
libicui18n.so.67:_ZN6icu_676number4impl19enum_to_stem_string12roundingModeE25UNumberFormatRoundingModeRNS_13UnicodeStringE
libicui18n.so.67:_ZN6icu_676number4impl19enum_to_stem_string16groupingStrategyE23UNumberGroupingStrategyRNS_13UnicodeStringE
libicui18n.so.67:_ZN6icu_676number4impl19enum_to_stem_string23decimalSeparatorDisplayE30UNumberDecimalSeparatorDisplayRNS_13UnicodeStringE
libicui18n.so.67:_ZN6icu_676number4impl19enum_to_stem_string9unitWidthE16UNumberUnitWidthRNS_13UnicodeStringE
libicui18n.so.67:_ZN6icu_676number4impl20AffixPatternProviderD0Ev
libicui18n.so.67:_ZN6icu_676number4impl20AffixPatternProviderD1Ev
libicui18n.so.67:_ZN6icu_676number4impl20AffixPatternProviderD2Ev
libicui18n.so.67:_ZN6icu_676number4impl20NumberPropertyMapper6createERKNS1_23DecimalFormatPropertiesERKNS_20DecimalFormatSymbolsERNS1_22DecimalFormatWarehouseER10UErrorCode
libicui18n.so.67:_ZN6icu_676number4impl20NumberPropertyMapper6createERKNS1_23DecimalFormatPropertiesERKNS_20DecimalFormatSymbolsERNS1_22DecimalFormatWarehouseERS3_R10UErrorCode
libicui18n.so.67:_ZN6icu_676number4impl20NumberPropertyMapper8oldToNewERKNS1_23DecimalFormatPropertiesERKNS_20DecimalFormatSymbolsERNS1_22DecimalFormatWarehouseEPS3_R10UErrorCode
libicui18n.so.67:_ZN6icu_676number4impl20StandardPluralRanges10initializeERKNS_6LocaleER10UErrorCode
libicui18n.so.67:_ZN6icu_676number4impl20StandardPluralRanges11setCapacityEi
libicui18n.so.67:_ZN6icu_676number4impl20StandardPluralRanges14addPluralRangeENS_14StandardPlural4FormES4_S4_
libicui18n.so.67:_ZN6icu_676number4impl20UFormattedNumberDataD0Ev
libicui18n.so.67:_ZN6icu_676number4impl20UFormattedNumberDataD1Ev
libicui18n.so.67:_ZN6icu_676number4impl20UFormattedNumberDataD2Ev
libicui18n.so.67:_ZN6icu_676number4impl20UFormattedNumberImplC1Ev
libicui18n.so.67:_ZN6icu_676number4impl20UFormattedNumberImplC2Ev
libicui18n.so.67:_ZN6icu_676number4impl20UFormattedNumberImplD1Ev
libicui18n.so.67:_ZN6icu_676number4impl20UFormattedNumberImplD2Ev
libicui18n.so.67:_ZN6icu_676number4impl21AdoptingModifierStoreD0Ev
libicui18n.so.67:_ZN6icu_676number4impl21AdoptingModifierStoreD1Ev
libicui18n.so.67:_ZN6icu_676number4impl21AdoptingModifierStoreD2Ev
libicui18n.so.67:_ZN6icu_676number4impl22MutablePatternModifier10addToChainEPKNS1_19MicroPropsGeneratorE
libicui18n.so.67:_ZN6icu_676number4impl22MutablePatternModifier10setSymbolsEPKNS_20DecimalFormatSymbolsERKNS_12CurrencyUnitE16UNumberUnitWidthPKNS_11PluralRulesER10UErrorCode
libicui18n.so.67:_ZN6icu_676number4impl22MutablePatternModifier12insertPrefixERNS_22FormattedStringBuilderEiR10UErrorCode
libicui18n.so.67:_ZN6icu_676number4impl22MutablePatternModifier12insertSuffixERNS_22FormattedStringBuilderEiR10UErrorCode
libicui18n.so.67:_ZN6icu_676number4impl22MutablePatternModifier12prepareAffixEb
libicui18n.so.67:_ZN6icu_676number4impl22MutablePatternModifier14setPatternInfoEPKNS1_20AffixPatternProviderENS_22FormattedStringBuilder5FieldE
libicui18n.so.67:_ZN6icu_676number4impl22MutablePatternModifier15createImmutableER10UErrorCode
libicui18n.so.67:_ZN6icu_676number4impl22MutablePatternModifier19setNumberPropertiesENS1_6SignumENS_14StandardPlural4FormE
libicui18n.so.67:_ZN6icu_676number4impl22MutablePatternModifier20setPatternAttributesE18UNumberSignDisplayb
libicui18n.so.67:_ZN6icu_676number4impl22MutablePatternModifier22createConstantModifierER10UErrorCode
libicui18n.so.67:_ZN6icu_676number4impl22MutablePatternModifierC1Eb
libicui18n.so.67:_ZN6icu_676number4impl22MutablePatternModifierC2Eb
libicui18n.so.67:_ZN6icu_676number4impl23DecimalFormatProperties10getDefaultEv
libicui18n.so.67:_ZN6icu_676number4impl23DecimalFormatProperties5clearEv
libicui18n.so.67:_ZN6icu_676number4impl23DecimalFormatPropertiesC1Ev
libicui18n.so.67:_ZN6icu_676number4impl23DecimalFormatPropertiesC2Ev
libicui18n.so.67:_ZN6icu_676number4impl23MultiplierFormatHandler11setAndChainERKNS0_5ScaleEPKNS1_19MicroPropsGeneratorE
libicui18n.so.67:_ZN6icu_676number4impl24ImmutablePatternModifier10addToChainEPKNS1_19MicroPropsGeneratorE
libicui18n.so.67:_ZN6icu_676number4impl24ImmutablePatternModifierC1EPNS1_21AdoptingModifierStoreEPKNS_11PluralRulesE
libicui18n.so.67:_ZN6icu_676number4impl24ImmutablePatternModifierC2EPNS1_21AdoptingModifierStoreEPKNS_11PluralRulesE
libicui18n.so.67:_ZN6icu_676number4impl24NumberRangeFormatterImplC1ERKNS1_15RangeMacroPropsER10UErrorCode
libicui18n.so.67:_ZN6icu_676number4impl24NumberRangeFormatterImplC2ERKNS1_15RangeMacroPropsER10UErrorCode
libicui18n.so.67:_ZN6icu_676number4impl25UFormattedNumberRangeDataD0Ev
libicui18n.so.67:_ZN6icu_676number4impl25UFormattedNumberRangeDataD1Ev
libicui18n.so.67:_ZN6icu_676number4impl25UFormattedNumberRangeDataD2Ev
libicui18n.so.67:_ZN6icu_676number4impl30CurrencySpacingEnabledModifier13getUnicodeSetERKNS_20DecimalFormatSymbolsENS2_9EPositionENS2_6EAffixER10UErrorCode
libicui18n.so.67:_ZN6icu_676number4impl30CurrencySpacingEnabledModifier15getInsertStringERKNS_20DecimalFormatSymbolsENS2_6EAffixER10UErrorCode
libicui18n.so.67:_ZN6icu_676number4impl30CurrencySpacingEnabledModifier20applyCurrencySpacingERNS_22FormattedStringBuilderEiiiiRKNS_20DecimalFormatSymbolsER10UErrorCode
libicui18n.so.67:_ZN6icu_676number4impl30CurrencySpacingEnabledModifier25applyCurrencySpacingAffixERNS_22FormattedStringBuilderEiNS2_6EAffixERKNS_20DecimalFormatSymbolsER10UErrorCode
libicui18n.so.67:_ZN6icu_676number4impl30CurrencySpacingEnabledModifierC1ERKNS_22FormattedStringBuilderES5_bbRKNS_20DecimalFormatSymbolsER10UErrorCode
libicui18n.so.67:_ZN6icu_676number4impl30CurrencySpacingEnabledModifierC2ERKNS_22FormattedStringBuilderES5_bbRKNS_20DecimalFormatSymbolsER10UErrorCode
libicui18n.so.67:_ZN6icu_676number4impl30PropertiesAffixPatternProvider5setToERKNS1_23DecimalFormatPropertiesER10UErrorCode
libicui18n.so.67:_ZN6icu_676number4impl31CurrencyPluralInfoAffixProvider5setToERKNS_18CurrencyPluralInfoERKNS1_23DecimalFormatPropertiesER10UErrorCode
libicui18n.so.67:_ZN6icu_676number4impl32LocalizedNumberFormatterAsFormat16getStaticClassIDEv
libicui18n.so.67:_ZN6icu_676number4impl32LocalizedNumberFormatterAsFormatC1ERKNS0_24LocalizedNumberFormatterERKNS_6LocaleE
libicui18n.so.67:_ZN6icu_676number4impl32LocalizedNumberFormatterAsFormatC2ERKNS0_24LocalizedNumberFormatterERKNS_6LocaleE
libicui18n.so.67:_ZN6icu_676number4impl32LocalizedNumberFormatterAsFormatD0Ev
libicui18n.so.67:_ZN6icu_676number4impl32LocalizedNumberFormatterAsFormatD1Ev
libicui18n.so.67:_ZN6icu_676number4impl32LocalizedNumberFormatterAsFormatD2Ev
libicui18n.so.67:_ZN6icu_676number4impl41validateUFormattedNumberToDecimalQuantityEPK16UFormattedNumberR10UErrorCode
libicui18n.so.67:_ZN6icu_676number4impl5utils18getPatternForStyleERKNS_6LocaleEPKcNS1_16CldrPatternStyleER10UErrorCode
libicui18n.so.67:_ZN6icu_676number4impl6DecNum10multiplyByERKS2_R10UErrorCode
libicui18n.so.67:_ZN6icu_676number4impl6DecNum5setToENS_11StringPieceER10UErrorCode
libicui18n.so.67:_ZN6icu_676number4impl6DecNum5setToEPKcR10UErrorCode
libicui18n.so.67:_ZN6icu_676number4impl6DecNum5setToEPKhiibR10UErrorCode
libicui18n.so.67:_ZN6icu_676number4impl6DecNum5setToEdR10UErrorCode
libicui18n.so.67:_ZN6icu_676number4impl6DecNum6_setToEPKciR10UErrorCode
libicui18n.so.67:_ZN6icu_676number4impl6DecNum8divideByERKS2_R10UErrorCode
libicui18n.so.67:_ZN6icu_676number4impl6DecNum9normalizeEv
libicui18n.so.67:_ZN6icu_676number4impl6DecNumC1ERKS2_R10UErrorCode
libicui18n.so.67:_ZN6icu_676number4impl6DecNumC1Ev
libicui18n.so.67:_ZN6icu_676number4impl6DecNumC2ERKS2_R10UErrorCode
libicui18n.so.67:_ZN6icu_676number4impl6DecNumC2Ev
libicui18n.so.67:_ZN6icu_676number4impl6Padder10codePointsEii24UNumberFormatPadPosition
libicui18n.so.67:_ZN6icu_676number4impl6Padder13forPropertiesERKNS1_23DecimalFormatPropertiesE
libicui18n.so.67:_ZN6icu_676number4impl6Padder4noneEv
libicui18n.so.67:_ZN6icu_676number4impl6PadderC1Ei
libicui18n.so.67:_ZN6icu_676number4impl6PadderC1Eii24UNumberFormatPadPosition
libicui18n.so.67:_ZN6icu_676number4impl6PadderC2Ei
libicui18n.so.67:_ZN6icu_676number4impl6PadderC2Eii24UNumberFormatPadPosition
libicui18n.so.67:_ZN6icu_676number4impl7Grouper11forStrategyE23UNumberGroupingStrategy
libicui18n.so.67:_ZN6icu_676number4impl7Grouper13forPropertiesERKNS1_23DecimalFormatPropertiesE
libicui18n.so.67:_ZN6icu_676number4impl7Grouper13setLocaleDataERKNS1_17ParsedPatternInfoERKNS_6LocaleE
libicui18n.so.67:_ZN6icu_676number4impl8Modifier10ParametersC1EPKNS1_13ModifierStoreENS1_6SignumENS_14StandardPlural4FormE
libicui18n.so.67:_ZN6icu_676number4impl8Modifier10ParametersC1Ev
libicui18n.so.67:_ZN6icu_676number4impl8Modifier10ParametersC2EPKNS1_13ModifierStoreENS1_6SignumENS_14StandardPlural4FormE
libicui18n.so.67:_ZN6icu_676number4impl8Modifier10ParametersC2Ev
libicui18n.so.67:_ZN6icu_676number4impl8ModifierD0Ev
libicui18n.so.67:_ZN6icu_676number4impl8ModifierD1Ev
libicui18n.so.67:_ZN6icu_676number4impl8ModifierD2Ev
libicui18n.so.67:_ZN6icu_676number4impl8skeleton11parseOptionENS2_10ParseStateERKNS_13StringSegmentERNS1_10MacroPropsER10UErrorCode
libicui18n.so.67:_ZN6icu_676number4impl8skeleton13parseSkeletonERKNS_13UnicodeStringERiR10UErrorCode
libicui18n.so.67:_ZN6icu_676number4impl8skeleton6createERKNS_13UnicodeStringEP11UParseErrorR10UErrorCode
libicui18n.so.67:_ZN6icu_676number4impl8skeleton8generateERKNS1_10MacroPropsER10UErrorCode
libicui18n.so.67:_ZN6icu_676number4impl8skeleton9parseStemERKNS_13StringSegmentERKNS_10UCharsTrieERNS1_14SeenMacroPropsERNS1_10MacroPropsER10UErrorCode
libicui18n.so.67:_ZN6icu_676number5Scale10powerOfTenEi
libicui18n.so.67:_ZN6icu_676number5Scale21byDoubleAndPowerOfTenEdi
libicui18n.so.67:_ZN6icu_676number5Scale4noneEv
libicui18n.so.67:_ZN6icu_676number5Scale8byDoubleEd
libicui18n.so.67:_ZN6icu_676number5Scale9byDecimalENS_11StringPieceE
libicui18n.so.67:_ZN6icu_676number5ScaleC1EOS1_
libicui18n.so.67:_ZN6icu_676number5ScaleC1ERKS1_
libicui18n.so.67:_ZN6icu_676number5ScaleC1EiPNS0_4impl6DecNumE
libicui18n.so.67:_ZN6icu_676number5ScaleC2EOS1_
libicui18n.so.67:_ZN6icu_676number5ScaleC2ERKS1_
libicui18n.so.67:_ZN6icu_676number5ScaleC2EiPNS0_4impl6DecNumE
libicui18n.so.67:_ZN6icu_676number5ScaleD1Ev
libicui18n.so.67:_ZN6icu_676number5ScaleD2Ev
libicui18n.so.67:_ZN6icu_676number5ScaleaSEOS1_
libicui18n.so.67:_ZN6icu_676number5ScaleaSERKS1_
libicui18n.so.67:_ZN6icu_676number8Notation10scientificEv
libicui18n.so.67:_ZN6icu_676number8Notation11compactLongEv
libicui18n.so.67:_ZN6icu_676number8Notation11engineeringEv
libicui18n.so.67:_ZN6icu_676number8Notation12compactShortEv
libicui18n.so.67:_ZN6icu_676number8Notation6simpleEv
libicui18n.so.67:_ZN6icu_676number9Precision11maxFractionEi
libicui18n.so.67:_ZN6icu_676number9Precision11minFractionEi
libicui18n.so.67:_ZN6icu_676number9Precision13fixedFractionEi
libicui18n.so.67:_ZN6icu_676number9Precision14minMaxFractionEii
libicui18n.so.67:_ZN6icu_676number9Precision17constructCurrencyE14UCurrencyUsage
libicui18n.so.67:_ZN6icu_676number9Precision17constructFractionEii
libicui18n.so.67:_ZN6icu_676number9Precision18constructIncrementEdi
libicui18n.so.67:_ZN6icu_676number9Precision20constructSignificantEii
libicui18n.so.67:_ZN6icu_676number9Precision20maxSignificantDigitsEi
libicui18n.so.67:_ZN6icu_676number9Precision20minSignificantDigitsEi
libicui18n.so.67:_ZN6icu_676number9Precision22fixedSignificantDigitsEi
libicui18n.so.67:_ZN6icu_676number9Precision23minMaxSignificantDigitsEii
libicui18n.so.67:_ZN6icu_676number9Precision28constructFractionSignificantERKNS0_17FractionPrecisionEii
libicui18n.so.67:_ZN6icu_676number9Precision7integerEv
libicui18n.so.67:_ZN6icu_676number9Precision8currencyE14UCurrencyUsage
libicui18n.so.67:_ZN6icu_676number9Precision9incrementEd
libicui18n.so.67:_ZN6icu_676number9Precision9unlimitedEv
libicui18n.so.67:_ZN6icu_677Measure16getStaticClassIDEv
libicui18n.so.67:_ZN6icu_677MeasureC1ERKNS_11FormattableEPNS_11MeasureUnitER10UErrorCode
libicui18n.so.67:_ZN6icu_677MeasureC1ERKS0_
libicui18n.so.67:_ZN6icu_677MeasureC1Ev
libicui18n.so.67:_ZN6icu_677MeasureC2ERKNS_11FormattableEPNS_11MeasureUnitER10UErrorCode
libicui18n.so.67:_ZN6icu_677MeasureC2ERKS0_
libicui18n.so.67:_ZN6icu_677MeasureC2Ev
libicui18n.so.67:_ZN6icu_677MeasureD0Ev
libicui18n.so.67:_ZN6icu_677MeasureD1Ev
libicui18n.so.67:_ZN6icu_677MeasureD2Ev
libicui18n.so.67:_ZN6icu_677MeasureaSERKS0_
libicui18n.so.67:_ZN6icu_677PtnElemC1ERKNS_13UnicodeStringES3_
libicui18n.so.67:_ZN6icu_677PtnElemC2ERKNS_13UnicodeStringES3_
libicui18n.so.67:_ZN6icu_677PtnElemD0Ev
libicui18n.so.67:_ZN6icu_677PtnElemD1Ev
libicui18n.so.67:_ZN6icu_677PtnElemD2Ev
libicui18n.so.67:_ZN6icu_678CFactoryD0Ev
libicui18n.so.67:_ZN6icu_678CFactoryD1Ev
libicui18n.so.67:_ZN6icu_678CFactoryD2Ev
libicui18n.so.67:_ZN6icu_678Calendar10setLenientEa
libicui18n.so.67:_ZN6icu_678Calendar10unregisterEPKvR10UErrorCode
libicui18n.so.67:_ZN6icu_678Calendar10updateTimeER10UErrorCode
libicui18n.so.67:_ZN6icu_678Calendar10weekNumberEiii
libicui18n.so.67:_ZN6icu_678Calendar11computeTimeER10UErrorCode
libicui18n.so.67:_ZN6icu_678Calendar11getLocalDOWEv
libicui18n.so.67:_ZN6icu_678Calendar11internalSetENS0_11EDateFieldsEi
libicui18n.so.67:_ZN6icu_678Calendar11setTimeZoneERKNS_8TimeZoneE
libicui18n.so.67:_ZN6icu_678Calendar11setWeekDataERKNS_6LocaleEPKcR10UErrorCode
libicui18n.so.67:_ZN6icu_678Calendar12makeInstanceERKNS_6LocaleER10UErrorCode
libicui18n.so.67:_ZN6icu_678Calendar13adoptTimeZoneEPNS_8TimeZoneE
libicui18n.so.67:_ZN6icu_678Calendar13computeFieldsER10UErrorCode
libicui18n.so.67:_ZN6icu_678Calendar13resolveFieldsEPA12_A8_Ki
libicui18n.so.67:_ZN6icu_678Calendar13validateFieldE19UCalendarDateFieldsR10UErrorCode
libicui18n.so.67:_ZN6icu_678Calendar13validateFieldE19UCalendarDateFieldsiiR10UErrorCode
libicui18n.so.67:_ZN6icu_678Calendar14createInstanceEPNS_8TimeZoneERKNS_6LocaleER10UErrorCode
libicui18n.so.67:_ZN6icu_678Calendar14createInstanceER10UErrorCode
libicui18n.so.67:_ZN6icu_678Calendar14createInstanceERKNS_6LocaleER10UErrorCode
libicui18n.so.67:_ZN6icu_678Calendar14createInstanceERKNS_8TimeZoneER10UErrorCode
libicui18n.so.67:_ZN6icu_678Calendar14createInstanceERKNS_8TimeZoneERKNS_6LocaleER10UErrorCode
libicui18n.so.67:_ZN6icu_678Calendar14orphanTimeZoneEv
libicui18n.so.67:_ZN6icu_678Calendar14setRelatedYearEi
libicui18n.so.67:_ZN6icu_678Calendar14validateFieldsER10UErrorCode
libicui18n.so.67:_ZN6icu_678Calendar15fieldDifferenceEd19UCalendarDateFieldsR10UErrorCode
libicui18n.so.67:_ZN6icu_678Calendar15fieldDifferenceEdNS0_11EDateFieldsER10UErrorCode
libicui18n.so.67:_ZN6icu_678Calendar15registerFactoryEPNS_17ICUServiceFactoryER10UErrorCode
libicui18n.so.67:_ZN6icu_678Calendar15setTimeInMillisEdR10UErrorCode
libicui18n.so.67:_ZN6icu_678Calendar16computeJulianDayEv
libicui18n.so.67:_ZN6icu_678Calendar16prepareGetActualE19UCalendarDateFieldsaR10UErrorCode
libicui18n.so.67:_ZN6icu_678Calendar16recalculateStampEv
libicui18n.so.67:_ZN6icu_678Calendar17computeWeekFieldsER10UErrorCode
libicui18n.so.67:_ZN6icu_678Calendar17computeZoneOffsetEddR10UErrorCode
libicui18n.so.67:_ZN6icu_678Calendar17setFirstDayOfWeekE19UCalendarDaysOfWeek
libicui18n.so.67:_ZN6icu_678Calendar18computeMillisInDayEv
libicui18n.so.67:_ZN6icu_678Calendar19getAvailableLocalesERi
libicui18n.so.67:_ZN6icu_678Calendar19handleComputeFieldsEiR10UErrorCode
libicui18n.so.67:_ZN6icu_678Calendar20getDefaultDayInMonthEii
libicui18n.so.67:_ZN6icu_678Calendar20julianDayToDayOfWeekEd
libicui18n.so.67:_ZN6icu_678Calendar21getDefaultMonthInYearEi
libicui18n.so.67:_ZN6icu_678Calendar22computeGregorianFieldsEiR10UErrorCode
libicui18n.so.67:_ZN6icu_678Calendar22handleComputeJulianDayE19UCalendarDateFields
libicui18n.so.67:_ZN6icu_678Calendar24setSkippedWallTimeOptionE23UCalendarWallTimeOption
libicui18n.so.67:_ZN6icu_678Calendar25getCalendarTypeFromLocaleERKNS_6LocaleEPciR10UErrorCode
libicui18n.so.67:_ZN6icu_678Calendar25getKeywordValuesForLocaleEPKcRKNS_6LocaleEaR10UErrorCode
libicui18n.so.67:_ZN6icu_678Calendar25setMinimalDaysInFirstWeekEh
libicui18n.so.67:_ZN6icu_678Calendar25setRepeatedWallTimeOptionE23UCalendarWallTimeOption
libicui18n.so.67:_ZN6icu_678Calendar28computeGregorianAndDOWFieldsEiR10UErrorCode
libicui18n.so.67:_ZN6icu_678Calendar35handleGetExtendedYearFromWeekFieldsEii
libicui18n.so.67:_ZN6icu_678Calendar3addE19UCalendarDateFieldsiR10UErrorCode
libicui18n.so.67:_ZN6icu_678Calendar3addENS0_11EDateFieldsEiR10UErrorCode
libicui18n.so.67:_ZN6icu_678Calendar3setE19UCalendarDateFieldsi
libicui18n.so.67:_ZN6icu_678Calendar3setEiii
libicui18n.so.67:_ZN6icu_678Calendar3setEiiiii
libicui18n.so.67:_ZN6icu_678Calendar3setEiiiiii
libicui18n.so.67:_ZN6icu_678Calendar4rollE19UCalendarDateFieldsiR10UErrorCode
libicui18n.so.67:_ZN6icu_678Calendar4rollENS0_11EDateFieldsEiR10UErrorCode
libicui18n.so.67:_ZN6icu_678Calendar5clearE19UCalendarDateFields
libicui18n.so.67:_ZN6icu_678Calendar5clearEv
libicui18n.so.67:_ZN6icu_678Calendar6getNowEv
libicui18n.so.67:_ZN6icu_678Calendar8completeER10UErrorCode
libicui18n.so.67:_ZN6icu_678Calendar8pinFieldE19UCalendarDateFieldsR10UErrorCode
libicui18n.so.67:_ZN6icu_678CalendarC1EPNS_8TimeZoneERKNS_6LocaleER10UErrorCode
libicui18n.so.67:_ZN6icu_678CalendarC1ER10UErrorCode
libicui18n.so.67:_ZN6icu_678CalendarC1ERKNS_8TimeZoneERKNS_6LocaleER10UErrorCode
libicui18n.so.67:_ZN6icu_678CalendarC1ERKS0_
libicui18n.so.67:_ZN6icu_678CalendarC2EPNS_8TimeZoneERKNS_6LocaleER10UErrorCode
libicui18n.so.67:_ZN6icu_678CalendarC2ER10UErrorCode
libicui18n.so.67:_ZN6icu_678CalendarC2ERKNS_8TimeZoneERKNS_6LocaleER10UErrorCode
libicui18n.so.67:_ZN6icu_678CalendarC2ERKS0_
libicui18n.so.67:_ZN6icu_678CalendarD0Ev
libicui18n.so.67:_ZN6icu_678CalendarD1Ev
libicui18n.so.67:_ZN6icu_678CalendarD2Ev
libicui18n.so.67:_ZN6icu_678CalendaraSERKS0_
libicui18n.so.67:_ZN6icu_678Collator10setLocalesERKNS_6LocaleES3_S3_
libicui18n.so.67:_ZN6icu_678Collator10unregisterEPKvR10UErrorCode
libicui18n.so.67:_ZN6icu_678Collator11getKeywordsER10UErrorCode
libicui18n.so.67:_ZN6icu_678Collator11setStrengthENS0_18ECollationStrengthE
libicui18n.so.67:_ZN6icu_678Collator12makeInstanceERKNS_6LocaleER10UErrorCode
libicui18n.so.67:_ZN6icu_678Collator14createInstanceER10UErrorCode
libicui18n.so.67:_ZN6icu_678Collator14createInstanceERKNS_6LocaleER10UErrorCode
libicui18n.so.67:_ZN6icu_678Collator14getDisplayNameERKNS_6LocaleERNS_13UnicodeStringE
libicui18n.so.67:_ZN6icu_678Collator14getDisplayNameERKNS_6LocaleES3_RNS_13UnicodeStringE
libicui18n.so.67:_ZN6icu_678Collator14setMaxVariableE15UColReorderCodeR10UErrorCode
libicui18n.so.67:_ZN6icu_678Collator15registerFactoryEPNS_15CollatorFactoryER10UErrorCode
libicui18n.so.67:_ZN6icu_678Collator15setReorderCodesEPKiiR10UErrorCode
libicui18n.so.67:_ZN6icu_678Collator16getKeywordValuesEPKcR10UErrorCode
libicui18n.so.67:_ZN6icu_678Collator16registerInstanceEPS0_RKNS_6LocaleER10UErrorCode
libicui18n.so.67:_ZN6icu_678Collator19getAvailableLocalesERi
libicui18n.so.67:_ZN6icu_678Collator19getAvailableLocalesEv
libicui18n.so.67:_ZN6icu_678Collator23getFunctionalEquivalentEPKcRKNS_6LocaleERaR10UErrorCode
libicui18n.so.67:_ZN6icu_678Collator25getEquivalentReorderCodesEiPiiR10UErrorCode
libicui18n.so.67:_ZN6icu_678Collator25getKeywordValuesForLocaleEPKcRKNS_6LocaleEaR10UErrorCode
libicui18n.so.67:_ZN6icu_678Collator8getBoundEPKhi13UColBoundModejPhiR10UErrorCode
libicui18n.so.67:_ZN6icu_678CollatorC1E18UColAttributeValue18UNormalizationMode
libicui18n.so.67:_ZN6icu_678CollatorC1ERKS0_
libicui18n.so.67:_ZN6icu_678CollatorC1Ev
libicui18n.so.67:_ZN6icu_678CollatorC2E18UColAttributeValue18UNormalizationMode
libicui18n.so.67:_ZN6icu_678CollatorC2ERKS0_
libicui18n.so.67:_ZN6icu_678CollatorC2Ev
libicui18n.so.67:_ZN6icu_678CollatorD0Ev
libicui18n.so.67:_ZN6icu_678CollatorD1Ev
libicui18n.so.67:_ZN6icu_678CollatorD2Ev
libicui18n.so.67:_ZN6icu_678EraRules14createInstanceEPKcaR10UErrorCode
libicui18n.so.67:_ZN6icu_678EraRules14initCurrentEraEv
libicui18n.so.67:_ZN6icu_678EraRulesC1ERNS_11LocalMemoryIiEEi
libicui18n.so.67:_ZN6icu_678EraRulesC2ERNS_11LocalMemoryIiEEi
libicui18n.so.67:_ZN6icu_678EraRulesD1Ev
libicui18n.so.67:_ZN6icu_678EraRulesD2Ev
libicui18n.so.67:_ZN6icu_678RuleHalf12isValidInputERNS_20TransliteratorParserE
libicui18n.so.67:_ZN6icu_678RuleHalf12parseSectionERKNS_13UnicodeStringEiiRS1_S3_aR10UErrorCode
libicui18n.so.67:_ZN6icu_678RuleHalf13isValidOutputERNS_20TransliteratorParserE
libicui18n.so.67:_ZN6icu_678RuleHalf13removeContextEv
libicui18n.so.67:_ZN6icu_678RuleHalf5parseERKNS_13UnicodeStringEiiR10UErrorCode
libicui18n.so.67:_ZN6icu_678RuleHalfC1ERNS_20TransliteratorParserE
libicui18n.so.67:_ZN6icu_678RuleHalfC2ERNS_20TransliteratorParserE
libicui18n.so.67:_ZN6icu_678RuleHalfD1Ev
libicui18n.so.67:_ZN6icu_678RuleHalfD2Ev
libicui18n.so.67:_ZN6icu_678TZGNCore10initializeERKNS_6LocaleER10UErrorCode
libicui18n.so.67:_ZN6icu_678TZGNCore11loadStringsERKNS_13UnicodeStringE
libicui18n.so.67:_ZN6icu_678TZGNCore22getGenericLocationNameERKNS_13UnicodeStringE
libicui18n.so.67:_ZN6icu_678TZGNCore22getPartialLocationNameERKNS_13UnicodeStringES3_aS3_
libicui18n.so.67:_ZN6icu_678TZGNCore7cleanupEv
libicui18n.so.67:_ZN6icu_678TZGNCoreC1ERKNS_6LocaleER10UErrorCode
libicui18n.so.67:_ZN6icu_678TZGNCoreC2ERKNS_6LocaleER10UErrorCode
libicui18n.so.67:_ZN6icu_678TZGNCoreD0Ev
libicui18n.so.67:_ZN6icu_678TZGNCoreD1Ev
libicui18n.so.67:_ZN6icu_678TZGNCoreD2Ev
libicui18n.so.67:_ZN6icu_678TimeUnit14createInstanceENS0_15UTimeUnitFieldsER10UErrorCode
libicui18n.so.67:_ZN6icu_678TimeUnit16getStaticClassIDEv
libicui18n.so.67:_ZN6icu_678TimeUnitC1ENS0_15UTimeUnitFieldsE
libicui18n.so.67:_ZN6icu_678TimeUnitC1ERKS0_
libicui18n.so.67:_ZN6icu_678TimeUnitC2ENS0_15UTimeUnitFieldsE
libicui18n.so.67:_ZN6icu_678TimeUnitC2ERKS0_
libicui18n.so.67:_ZN6icu_678TimeUnitD0Ev
libicui18n.so.67:_ZN6icu_678TimeUnitD1Ev
libicui18n.so.67:_ZN6icu_678TimeUnitD2Ev
libicui18n.so.67:_ZN6icu_678TimeUnitaSERKS0_
libicui18n.so.67:_ZN6icu_678TimeZone10getUnknownEv
libicui18n.so.67:_ZN6icu_678TimeZone10setDefaultERKS0_
libicui18n.so.67:_ZN6icu_678TimeZone11getCustomIDERKNS_13UnicodeStringERS1_R10UErrorCode
libicui18n.so.67:_ZN6icu_678TimeZone12adoptDefaultEPS0_
libicui18n.so.67:_ZN6icu_678TimeZone12getWindowsIDERKNS_13UnicodeStringERS1_R10UErrorCode
libicui18n.so.67:_ZN6icu_678TimeZone13createDefaultEv
libicui18n.so.67:_ZN6icu_678TimeZone13parseCustomIDERKNS_13UnicodeStringERiS4_S4_S4_
libicui18n.so.67:_ZN6icu_678TimeZone14createTimeZoneERKNS_13UnicodeStringE
libicui18n.so.67:_ZN6icu_678TimeZone14formatCustomIDEiiiaRNS_13UnicodeStringE
libicui18n.so.67:_ZN6icu_678TimeZone14getCanonicalIDERKNS_13UnicodeStringERS1_R10UErrorCode
libicui18n.so.67:_ZN6icu_678TimeZone14getCanonicalIDERKNS_13UnicodeStringERS1_RaR10UErrorCode
libicui18n.so.67:_ZN6icu_678TimeZone15getEquivalentIDERKNS_13UnicodeStringEi
libicui18n.so.67:_ZN6icu_678TimeZone16dereferOlsonLinkERKNS_13UnicodeStringE
libicui18n.so.67:_ZN6icu_678TimeZone16getStaticClassIDEv
libicui18n.so.67:_ZN6icu_678TimeZone16getTZDataVersionER10UErrorCode
libicui18n.so.67:_ZN6icu_678TimeZone17createEnumerationEPKc
libicui18n.so.67:_ZN6icu_678TimeZone17createEnumerationEi
libicui18n.so.67:_ZN6icu_678TimeZone17createEnumerationEv
libicui18n.so.67:_ZN6icu_678TimeZone17getIDForWindowsIDERKNS_13UnicodeStringEPKcRS1_R10UErrorCode
libicui18n.so.67:_ZN6icu_678TimeZone18countEquivalentIDsERKNS_13UnicodeStringE
libicui18n.so.67:_ZN6icu_678TimeZone18detectHostTimeZoneEv
libicui18n.so.67:_ZN6icu_678TimeZone20createCustomTimeZoneERKNS_13UnicodeStringE
libicui18n.so.67:_ZN6icu_678TimeZone27createTimeZoneIDEnumerationE19USystemTimeZoneTypePKcPKiR10UErrorCode
libicui18n.so.67:_ZN6icu_678TimeZone6findIDERKNS_13UnicodeStringE
libicui18n.so.67:_ZN6icu_678TimeZone6getGMTEv
libicui18n.so.67:_ZN6icu_678TimeZone8loadRuleEPK15UResourceBundleRKNS_13UnicodeStringEPS1_R10UErrorCode
libicui18n.so.67:_ZN6icu_678TimeZone9getRegionERKNS_13UnicodeStringE
libicui18n.so.67:_ZN6icu_678TimeZone9getRegionERKNS_13UnicodeStringEPciR10UErrorCode
libicui18n.so.67:_ZN6icu_678TimeZone9getRegionERKNS_13UnicodeStringER10UErrorCode
libicui18n.so.67:_ZN6icu_678TimeZoneC1ERKNS_13UnicodeStringE
libicui18n.so.67:_ZN6icu_678TimeZoneC1ERKS0_
libicui18n.so.67:_ZN6icu_678TimeZoneC1Ev
libicui18n.so.67:_ZN6icu_678TimeZoneC2ERKNS_13UnicodeStringE
libicui18n.so.67:_ZN6icu_678TimeZoneC2ERKS0_
libicui18n.so.67:_ZN6icu_678TimeZoneC2Ev
libicui18n.so.67:_ZN6icu_678TimeZoneD0Ev
libicui18n.so.67:_ZN6icu_678TimeZoneD1Ev
libicui18n.so.67:_ZN6icu_678TimeZoneD2Ev
libicui18n.so.67:_ZN6icu_678TimeZoneaSERKS0_
libicui18n.so.67:_ZN6icu_678ZoneMeta10getShortIDERKNS_13UnicodeStringE
libicui18n.so.67:_ZN6icu_678ZoneMeta10getShortIDERKNS_8TimeZoneE
libicui18n.so.67:_ZN6icu_678ZoneMeta13getMetazoneIDERKNS_13UnicodeStringEdRS1_
libicui18n.so.67:_ZN6icu_678ZoneMeta14findMetaZoneIDERKNS_13UnicodeStringE
libicui18n.so.67:_ZN6icu_678ZoneMeta14findTimeZoneIDERKNS_13UnicodeStringE
libicui18n.so.67:_ZN6icu_678ZoneMeta14formatCustomIDEhhhaRNS_13UnicodeStringE
libicui18n.so.67:_ZN6icu_678ZoneMeta18getCanonicalCLDRIDERKNS_13UnicodeStringER10UErrorCode
libicui18n.so.67:_ZN6icu_678ZoneMeta18getCanonicalCLDRIDERKNS_13UnicodeStringERS1_R10UErrorCode
libicui18n.so.67:_ZN6icu_678ZoneMeta18getCanonicalCLDRIDERKNS_8TimeZoneE
libicui18n.so.67:_ZN6icu_678ZoneMeta19getCanonicalCountryERKNS_13UnicodeStringERS1_Pa
libicui18n.so.67:_ZN6icu_678ZoneMeta19getMetazoneMappingsERKNS_13UnicodeStringE
libicui18n.so.67:_ZN6icu_678ZoneMeta19getZoneIdByMetazoneERKNS_13UnicodeStringES3_RS1_
libicui18n.so.67:_ZN6icu_678ZoneMeta20createCustomTimeZoneEi
libicui18n.so.67:_ZN6icu_678ZoneMeta22createMetazoneMappingsERKNS_13UnicodeStringE
libicui18n.so.67:_ZN6icu_678ZoneMeta23getAvailableMetazoneIDsEv
libicui18n.so.67:_ZN6icu_678ZoneMeta23getShortIDFromCanonicalEPKDs
libicui18n.so.67:_ZN6icu_678numparse4impl10NanMatcherC1ERKNS_20DecimalFormatSymbolsE
libicui18n.so.67:_ZN6icu_678numparse4impl10NanMatcherC2ERKNS_20DecimalFormatSymbolsE
libicui18n.so.67:_ZN6icu_678numparse4impl12AffixMatcherC1EPNS1_19AffixPatternMatcherES4_i
libicui18n.so.67:_ZN6icu_678numparse4impl12AffixMatcherC2EPNS1_19AffixPatternMatcherES4_i
libicui18n.so.67:_ZN6icu_678numparse4impl12ParsedNumber11postProcessEv
libicui18n.so.67:_ZN6icu_678numparse4impl12ParsedNumber12isBetterThanERKS2_
libicui18n.so.67:_ZN6icu_678numparse4impl12ParsedNumber16setCharsConsumedERKNS_13StringSegmentE
libicui18n.so.67:_ZN6icu_678numparse4impl12ParsedNumber5clearEv
libicui18n.so.67:_ZN6icu_678numparse4impl12ParsedNumberC1Ev
libicui18n.so.67:_ZN6icu_678numparse4impl12ParsedNumberC2Ev
libicui18n.so.67:_ZN6icu_678numparse4impl13SymbolMatcherC1ERKNS_13UnicodeStringENS_7unisets3KeyE
libicui18n.so.67:_ZN6icu_678numparse4impl13SymbolMatcherC2ERKNS_13UnicodeStringENS_7unisets3KeyE
libicui18n.so.67:_ZN6icu_678numparse4impl14DecimalMatcherC1ERKNS_20DecimalFormatSymbolsERKNS_6number4impl7GrouperEi
libicui18n.so.67:_ZN6icu_678numparse4impl14DecimalMatcherC2ERKNS_20DecimalFormatSymbolsERKNS_6number4impl7GrouperEi
libicui18n.so.67:_ZN6icu_678numparse4impl14PaddingMatcherC1ERKNS_13UnicodeStringE
libicui18n.so.67:_ZN6icu_678numparse4impl14PaddingMatcherC2ERKNS_13UnicodeStringE
libicui18n.so.67:_ZN6icu_678numparse4impl14PercentMatcherC1ERKNS_20DecimalFormatSymbolsE
libicui18n.so.67:_ZN6icu_678numparse4impl14PercentMatcherC2ERKNS_20DecimalFormatSymbolsE
libicui18n.so.67:_ZN6icu_678numparse4impl15InfinityMatcherC1ERKNS_20DecimalFormatSymbolsE
libicui18n.so.67:_ZN6icu_678numparse4impl15InfinityMatcherC2ERKNS_20DecimalFormatSymbolsE
libicui18n.so.67:_ZN6icu_678numparse4impl15PermilleMatcherC1ERKNS_20DecimalFormatSymbolsE
libicui18n.so.67:_ZN6icu_678numparse4impl15PermilleMatcherC2ERKNS_20DecimalFormatSymbolsE
libicui18n.so.67:_ZN6icu_678numparse4impl15PlusSignMatcherC1ERKNS_20DecimalFormatSymbolsEb
libicui18n.so.67:_ZN6icu_678numparse4impl15PlusSignMatcherC2ERKNS_20DecimalFormatSymbolsEb
libicui18n.so.67:_ZN6icu_678numparse4impl16CodePointMatcherC1Ei
libicui18n.so.67:_ZN6icu_678numparse4impl16CodePointMatcherC2Ei
libicui18n.so.67:_ZN6icu_678numparse4impl16MinusSignMatcherC1ERKNS_20DecimalFormatSymbolsEb
libicui18n.so.67:_ZN6icu_678numparse4impl16MinusSignMatcherC2ERKNS_20DecimalFormatSymbolsEb
libicui18n.so.67:_ZN6icu_678numparse4impl16NumberParserImpl10addMatcherERNS1_18NumberParseMatcherE
libicui18n.so.67:_ZN6icu_678numparse4impl16NumberParserImpl18createSimpleParserERKNS_6LocaleERKNS_13UnicodeStringEiR10UErrorCode
libicui18n.so.67:_ZN6icu_678numparse4impl16NumberParserImpl26createParserFromPropertiesERKNS_6number4impl23DecimalFormatPropertiesERKNS_20DecimalFormatSymbolsEbR10UErrorCode
libicui18n.so.67:_ZN6icu_678numparse4impl16NumberParserImpl6freezeEv
libicui18n.so.67:_ZN6icu_678numparse4impl16NumberParserImplC1Ei
libicui18n.so.67:_ZN6icu_678numparse4impl16NumberParserImplC2Ei
libicui18n.so.67:_ZN6icu_678numparse4impl16NumberParserImplD0Ev
libicui18n.so.67:_ZN6icu_678numparse4impl16NumberParserImplD1Ev
libicui18n.so.67:_ZN6icu_678numparse4impl16NumberParserImplD2Ev
libicui18n.so.67:_ZN6icu_678numparse4impl17IgnorablesMatcherC1Ei
libicui18n.so.67:_ZN6icu_678numparse4impl17IgnorablesMatcherC2Ei
libicui18n.so.67:_ZN6icu_678numparse4impl17ScientificMatcherC1ERKNS_20DecimalFormatSymbolsERKNS_6number4impl7GrouperE
libicui18n.so.67:_ZN6icu_678numparse4impl17ScientificMatcherC2ERKNS_20DecimalFormatSymbolsERKNS_6number4impl7GrouperE
libicui18n.so.67:_ZN6icu_678numparse4impl18ArraySeriesMatcherC1ERNS_15MaybeStackArrayIPKNS1_18NumberParseMatcherELi3EEEi
libicui18n.so.67:_ZN6icu_678numparse4impl18ArraySeriesMatcherC1Ev
libicui18n.so.67:_ZN6icu_678numparse4impl18ArraySeriesMatcherC2ERNS_15MaybeStackArrayIPKNS1_18NumberParseMatcherELi3EEEi
libicui18n.so.67:_ZN6icu_678numparse4impl18ArraySeriesMatcherC2Ev
libicui18n.so.67:_ZN6icu_678numparse4impl18NumberParseMatcherD0Ev
libicui18n.so.67:_ZN6icu_678numparse4impl18NumberParseMatcherD1Ev
libicui18n.so.67:_ZN6icu_678numparse4impl18NumberParseMatcherD2Ev
libicui18n.so.67:_ZN6icu_678numparse4impl19AffixPatternMatcher16fromAffixPatternERKNS_13UnicodeStringERNS1_26AffixTokenMatcherWarehouseEiPbR10UErrorCode
libicui18n.so.67:_ZN6icu_678numparse4impl19AffixPatternMatcherC1ERNS_15MaybeStackArrayIPKNS1_18NumberParseMatcherELi3EEEiRKNS_13UnicodeStringE
libicui18n.so.67:_ZN6icu_678numparse4impl19AffixPatternMatcherC2ERNS_15MaybeStackArrayIPKNS1_18NumberParseMatcherELi3EEEiRKNS_13UnicodeStringE
libicui18n.so.67:_ZN6icu_678numparse4impl21AffixMatcherWarehouse13isInterestingERKNS_6number4impl20AffixPatternProviderERKNS1_17IgnorablesMatcherEiR10UErrorCode
libicui18n.so.67:_ZN6icu_678numparse4impl21AffixMatcherWarehouse19createAffixMatchersERKNS_6number4impl20AffixPatternProviderERNS1_24MutableMatcherCollectionERKNS1_17IgnorablesMatcherEiR10UErrorCode
libicui18n.so.67:_ZN6icu_678numparse4impl21AffixMatcherWarehouseC1EPNS1_26AffixTokenMatcherWarehouseE
libicui18n.so.67:_ZN6icu_678numparse4impl21AffixMatcherWarehouseC2EPNS1_26AffixTokenMatcherWarehouseE
libicui18n.so.67:_ZN6icu_678numparse4impl22MultiplierParseHandlerC1ENS_6number5ScaleE
libicui18n.so.67:_ZN6icu_678numparse4impl22MultiplierParseHandlerC2ENS_6number5ScaleE
libicui18n.so.67:_ZN6icu_678numparse4impl23CombinedCurrencyMatcherC1ERKNS_6number4impl15CurrencySymbolsERKNS_20DecimalFormatSymbolsEiR10UErrorCode
libicui18n.so.67:_ZN6icu_678numparse4impl23CombinedCurrencyMatcherC2ERKNS_6number4impl15CurrencySymbolsERKNS_20DecimalFormatSymbolsEiR10UErrorCode
libicui18n.so.67:_ZN6icu_678numparse4impl26AffixPatternMatcherBuilder10addMatcherERNS1_18NumberParseMatcherE
libicui18n.so.67:_ZN6icu_678numparse4impl26AffixPatternMatcherBuilder12consumeTokenENS_6number4impl16AffixPatternTypeEiR10UErrorCode
libicui18n.so.67:_ZN6icu_678numparse4impl26AffixPatternMatcherBuilder5buildEv
libicui18n.so.67:_ZN6icu_678numparse4impl26AffixPatternMatcherBuilderC1ERKNS_13UnicodeStringERNS1_26AffixTokenMatcherWarehouseEPNS1_17IgnorablesMatcherE
libicui18n.so.67:_ZN6icu_678numparse4impl26AffixPatternMatcherBuilderC2ERKNS_13UnicodeStringERNS1_26AffixTokenMatcherWarehouseEPNS1_17IgnorablesMatcherE
libicui18n.so.67:_ZN6icu_678numparse4impl26AffixTokenMatcherWarehouse10ignorablesEv
libicui18n.so.67:_ZN6icu_678numparse4impl26AffixTokenMatcherWarehouse20nextCodePointMatcherEiR10UErrorCode
libicui18n.so.67:_ZN6icu_678numparse4impl26AffixTokenMatcherWarehouse7percentEv
libicui18n.so.67:_ZN6icu_678numparse4impl26AffixTokenMatcherWarehouse8currencyER10UErrorCode
libicui18n.so.67:_ZN6icu_678numparse4impl26AffixTokenMatcherWarehouse8permilleEv
libicui18n.so.67:_ZN6icu_678numparse4impl26AffixTokenMatcherWarehouse8plusSignEv
libicui18n.so.67:_ZN6icu_678numparse4impl26AffixTokenMatcherWarehouse9minusSignEv
libicui18n.so.67:_ZN6icu_678numparse4impl26AffixTokenMatcherWarehouseC1EPKNS1_26AffixTokenMatcherSetupDataE
libicui18n.so.67:_ZN6icu_678numparse4impl26AffixTokenMatcherWarehouseC2EPKNS1_26AffixTokenMatcherSetupDataE
libicui18n.so.67:_ZN6icu_678numparse4impl32RequireDecimalSeparatorValidatorC1Eb
libicui18n.so.67:_ZN6icu_678numparse4impl32RequireDecimalSeparatorValidatorC2Eb
libicui18n.so.67:_ZN6icu_679ClockMath11floorDivideEddRd
libicui18n.so.67:_ZN6icu_679ClockMath11floorDivideEdiRi
libicui18n.so.67:_ZN6icu_679ClockMath11floorDivideEii
libicui18n.so.67:_ZN6icu_679ClockMath11floorDivideEll
libicui18n.so.67:_ZN6icu_679Collation25incTwoBytePrimaryByOffsetEjai
libicui18n.so.67:_ZN6icu_679Collation26decTwoBytePrimaryByOneStepEjai
libicui18n.so.67:_ZN6icu_679Collation27incThreeBytePrimaryByOffsetEjai
libicui18n.so.67:_ZN6icu_679Collation28decThreeBytePrimaryByOneStepEjai
libicui18n.so.67:_ZN6icu_679Collation30unassignedPrimaryFromCodePointEi
libicui18n.so.67:_ZN6icu_679Collation32getThreeBytePrimaryForOffsetDataEil
libicui18n.so.67:_ZN6icu_679InputText10MungeInputEa
libicui18n.so.67:_ZN6icu_679InputText19setDeclaredEncodingEPKci
libicui18n.so.67:_ZN6icu_679InputText7setTextEPKci
libicui18n.so.67:_ZN6icu_679InputTextC1ER10UErrorCode
libicui18n.so.67:_ZN6icu_679InputTextC2ER10UErrorCode
libicui18n.so.67:_ZN6icu_679InputTextD1Ev
libicui18n.so.67:_ZN6icu_679InputTextD2Ev
libicui18n.so.67:_ZN6icu_679NFFactoryD0Ev
libicui18n.so.67:_ZN6icu_679NFFactoryD1Ev
libicui18n.so.67:_ZN6icu_679NFFactoryD2Ev
libicui18n.so.67:_ZN6icu_679NFRuleSet10parseRulesERNS_13UnicodeStringER10UErrorCode
libicui18n.so.67:_ZN6icu_679NFRuleSet19setBestFractionRuleEiPNS_6NFRuleEa
libicui18n.so.67:_ZN6icu_679NFRuleSet19setNonNumericalRuleEPNS_6NFRuleE
libicui18n.so.67:_ZN6icu_679NFRuleSet23setDecimalFormatSymbolsERKNS_20DecimalFormatSymbolsER10UErrorCode
libicui18n.so.67:_ZN6icu_679NFRuleSetC1EPNS_21RuleBasedNumberFormatEPNS_13UnicodeStringEiR10UErrorCode
libicui18n.so.67:_ZN6icu_679NFRuleSetC2EPNS_21RuleBasedNumberFormatEPNS_13UnicodeStringEiR10UErrorCode
libicui18n.so.67:_ZN6icu_679NFRuleSetD1Ev
libicui18n.so.67:_ZN6icu_679NFRuleSetD2Ev
libicui18n.so.67:_ZN6icu_679PCEBuffer3getEv
libicui18n.so.67:_ZN6icu_679PCEBuffer3putEmiiR10UErrorCode
libicui18n.so.67:_ZN6icu_679PCEBuffer5resetEv
libicui18n.so.67:_ZN6icu_679PCEBufferC1Ev
libicui18n.so.67:_ZN6icu_679PCEBufferC2Ev
libicui18n.so.67:_ZN6icu_679PCEBufferD1Ev
libicui18n.so.67:_ZN6icu_679PCEBufferD2Ev
libicui18n.so.67:_ZN6icu_679ParseData10isReplacerEi
libicui18n.so.67:_ZN6icu_679ParseData9isMatcherEi
libicui18n.so.67:_ZN6icu_679ParseDataC1EPKNS_23TransliterationRuleDataEPKNS_7UVectorEPKNS_9HashtableE
libicui18n.so.67:_ZN6icu_679ParseDataC2EPKNS_23TransliterationRuleDataEPKNS_7UVectorEPKNS_9HashtableE
libicui18n.so.67:_ZN6icu_679ParseDataD0Ev
libicui18n.so.67:_ZN6icu_679ParseDataD1Ev
libicui18n.so.67:_ZN6icu_679ParseDataD2Ev
libicui18n.so.67:_ZN6icu_679RCEBuffer3getEv
libicui18n.so.67:_ZN6icu_679RCEBuffer3putEjiiR10UErrorCode
libicui18n.so.67:_ZN6icu_679RCEBufferC1Ev
libicui18n.so.67:_ZN6icu_679RCEBufferC2Ev
libicui18n.so.67:_ZN6icu_679RCEBufferD1Ev
libicui18n.so.67:_ZN6icu_679RCEBufferD2Ev
libicui18n.so.67:_ZN6icu_679RuleChain9dumpRulesERNS_13UnicodeStringE
libicui18n.so.67:_ZN6icu_679RuleChainC1ERKS0_
libicui18n.so.67:_ZN6icu_679RuleChainC2ERKS0_
libicui18n.so.67:_ZN6icu_679RuleChainD0Ev
libicui18n.so.67:_ZN6icu_679RuleChainD1Ev
libicui18n.so.67:_ZN6icu_679RuleChainD2Ev
libicui18n.so.67:_ZN6icu_679SPUStringC1EPNS_13UnicodeStringE
libicui18n.so.67:_ZN6icu_679SPUStringC2EPNS_13UnicodeStringE
libicui18n.so.67:_ZN6icu_679SPUStringD1Ev
libicui18n.so.67:_ZN6icu_679SPUStringD2Ev
libicui18n.so.67:_ZN6icu_679ScriptSet12parseScriptsERKNS_13UnicodeStringER10UErrorCode
libicui18n.so.67:_ZN6icu_679ScriptSet19setScriptExtensionsEiR10UErrorCode
libicui18n.so.67:_ZN6icu_679ScriptSet3setE11UScriptCodeR10UErrorCode
libicui18n.so.67:_ZN6icu_679ScriptSet5UnionERKS0_
libicui18n.so.67:_ZN6icu_679ScriptSet5resetE11UScriptCodeR10UErrorCode
libicui18n.so.67:_ZN6icu_679ScriptSet6setAllEv
libicui18n.so.67:_ZN6icu_679ScriptSet8resetAllEv
libicui18n.so.67:_ZN6icu_679ScriptSet9intersectE11UScriptCodeR10UErrorCode
libicui18n.so.67:_ZN6icu_679ScriptSet9intersectERKS0_
libicui18n.so.67:_ZN6icu_679ScriptSetC1ERKS0_
libicui18n.so.67:_ZN6icu_679ScriptSetC1Ev
libicui18n.so.67:_ZN6icu_679ScriptSetC2ERKS0_
libicui18n.so.67:_ZN6icu_679ScriptSetC2Ev
libicui18n.so.67:_ZN6icu_679ScriptSetD1Ev
libicui18n.so.67:_ZN6icu_679ScriptSetD2Ev
libicui18n.so.67:_ZN6icu_679ScriptSetaSERKS0_
libicui18n.so.67:_ZN6icu_679SpoofData10getDefaultER10UErrorCode
libicui18n.so.67:_ZN6icu_679SpoofData12addReferenceEv
libicui18n.so.67:_ZN6icu_679SpoofData12reserveSpaceEiR10UErrorCode
libicui18n.so.67:_ZN6icu_679SpoofData15removeReferenceEv
libicui18n.so.67:_ZN6icu_679SpoofData5resetEv
libicui18n.so.67:_ZN6icu_679SpoofData8initPtrsER10UErrorCode
libicui18n.so.67:_ZN6icu_679SpoofDataC1EP11UDataMemoryR10UErrorCode
libicui18n.so.67:_ZN6icu_679SpoofDataC1EPKviR10UErrorCode
libicui18n.so.67:_ZN6icu_679SpoofDataC1ER10UErrorCode
libicui18n.so.67:_ZN6icu_679SpoofDataC2EP11UDataMemoryR10UErrorCode
libicui18n.so.67:_ZN6icu_679SpoofDataC2EPKviR10UErrorCode
libicui18n.so.67:_ZN6icu_679SpoofDataC2ER10UErrorCode
libicui18n.so.67:_ZN6icu_679SpoofDataD1Ev
libicui18n.so.67:_ZN6icu_679SpoofDataD2Ev
libicui18n.so.67:_ZN6icu_679SpoofImpl12validateThisEP13USpoofCheckerR10UErrorCode
libicui18n.so.67:_ZN6icu_679SpoofImpl12validateThisEPK13USpoofCheckerR10UErrorCode
libicui18n.so.67:_ZN6icu_679SpoofImpl14addScriptCharsEPKcPNS_10UnicodeSetER10UErrorCode
libicui18n.so.67:_ZN6icu_679SpoofImpl15asUSpoofCheckerEv
libicui18n.so.67:_ZN6icu_679SpoofImpl16getStaticClassIDEv
libicui18n.so.67:_ZN6icu_679SpoofImpl17getAllowedLocalesER10UErrorCode
libicui18n.so.67:_ZN6icu_679SpoofImpl17setAllowedLocalesEPKcR10UErrorCode
libicui18n.so.67:_ZN6icu_679SpoofImpl21getAugmentedScriptSetEiRNS_9ScriptSetER10UErrorCode
libicui18n.so.67:_ZN6icu_679SpoofImpl7ScanHexEPKDsiiR10UErrorCode
libicui18n.so.67:_ZN6icu_679SpoofImpl9constructER10UErrorCode
libicui18n.so.67:_ZN6icu_679SpoofImplC1EPNS_9SpoofDataER10UErrorCode
libicui18n.so.67:_ZN6icu_679SpoofImplC1ER10UErrorCode
libicui18n.so.67:_ZN6icu_679SpoofImplC1ERKS0_R10UErrorCode
libicui18n.so.67:_ZN6icu_679SpoofImplC1Ev
libicui18n.so.67:_ZN6icu_679SpoofImplC2EPNS_9SpoofDataER10UErrorCode
libicui18n.so.67:_ZN6icu_679SpoofImplC2ER10UErrorCode
libicui18n.so.67:_ZN6icu_679SpoofImplC2ERKS0_R10UErrorCode
libicui18n.so.67:_ZN6icu_679SpoofImplC2Ev
libicui18n.so.67:_ZN6icu_679SpoofImplD0Ev
libicui18n.so.67:_ZN6icu_679SpoofImplD1Ev
libicui18n.so.67:_ZN6icu_679SpoofImplD2Ev
libicui18n.so.67:_ZN6icu_679TZDBNames14createInstanceEP15UResourceBundlePKc
libicui18n.so.67:_ZN6icu_679TZDBNamesC1EPPKDsPPci
libicui18n.so.67:_ZN6icu_679TZDBNamesC2EPPKDsPPci
libicui18n.so.67:_ZN6icu_679TZDBNamesD0Ev
libicui18n.so.67:_ZN6icu_679TZDBNamesD1Ev
libicui18n.so.67:_ZN6icu_679TZDBNamesD2Ev
libicui18n.so.67:_ZN6icu_679VTZReader4readEv
libicui18n.so.67:_ZN6icu_679VTZReaderC1ERKNS_13UnicodeStringE
libicui18n.so.67:_ZN6icu_679VTZReaderC2ERKNS_13UnicodeStringE
libicui18n.so.67:_ZN6icu_679VTZReaderD1Ev
libicui18n.so.67:_ZN6icu_679VTZReaderD2Ev
libicui18n.so.67:_ZN6icu_679VTZWriter5writeEDs
libicui18n.so.67:_ZN6icu_679VTZWriter5writeEPKDs
libicui18n.so.67:_ZN6icu_679VTZWriter5writeERKNS_13UnicodeStringE
libicui18n.so.67:_ZN6icu_679VTZWriterC1ERNS_13UnicodeStringE
libicui18n.so.67:_ZN6icu_679VTZWriterC2ERNS_13UnicodeStringE
libicui18n.so.67:_ZN6icu_679VTZWriterD1Ev
libicui18n.so.67:_ZN6icu_679VTZWriterD2Ev
libicui18n.so.67:_ZN6icu_679VTimeZone12setRawOffsetEi
libicui18n.so.67:_ZN6icu_679VTimeZone15createVTimeZoneERKNS_13UnicodeStringER10UErrorCode
libicui18n.so.67:_ZN6icu_679VTimeZone15setLastModifiedEd
libicui18n.so.67:_ZN6icu_679VTimeZone16getStaticClassIDEv
libicui18n.so.67:_ZN6icu_679VTimeZone19createVTimeZoneByIDERKNS_13UnicodeStringE
libicui18n.so.67:_ZN6icu_679VTimeZone32createVTimeZoneFromBasicTimeZoneERKNS_13BasicTimeZoneER10UErrorCode
libicui18n.so.67:_ZN6icu_679VTimeZone4loadERNS_9VTZReaderER10UErrorCode
libicui18n.so.67:_ZN6icu_679VTimeZone5parseER10UErrorCode
libicui18n.so.67:_ZN6icu_679VTimeZone8setTZURLERKNS_13UnicodeStringE
libicui18n.so.67:_ZN6icu_679VTimeZoneC1ERKS0_
libicui18n.so.67:_ZN6icu_679VTimeZoneC1Ev
libicui18n.so.67:_ZN6icu_679VTimeZoneC2ERKS0_
libicui18n.so.67:_ZN6icu_679VTimeZoneC2Ev
libicui18n.so.67:_ZN6icu_679VTimeZoneD0Ev
libicui18n.so.67:_ZN6icu_679VTimeZoneD1Ev
libicui18n.so.67:_ZN6icu_679VTimeZoneD2Ev
libicui18n.so.67:_ZN6icu_679VTimeZoneaSERKS0_
libicui18n.so.67:_ZNK6icu_6710CECalendar14handleGetLimitE19UCalendarDateFieldsNS_8Calendar10ELimitTypeE
libicui18n.so.67:_ZNK6icu_6710CECalendar14inDaylightTimeER10UErrorCode
libicui18n.so.67:_ZNK6icu_6710CECalendar18haveDefaultCenturyEv
libicui18n.so.67:_ZNK6icu_6710CECalendar23handleComputeMonthStartEiia
libicui18n.so.67:_ZNK6icu_6710DateFormat10getContextE19UDisplayContextTypeR10UErrorCode
libicui18n.so.67:_ZNK6icu_6710DateFormat11getCalendarEv
libicui18n.so.67:_ZNK6icu_6710DateFormat11getTimeZoneEv
libicui18n.so.67:_ZNK6icu_6710DateFormat11parseObjectERKNS_13UnicodeStringERNS_11FormattableERNS_13ParsePositionE
libicui18n.so.67:_ZNK6icu_6710DateFormat15getNumberFormatEv
libicui18n.so.67:_ZNK6icu_6710DateFormat17isCalendarLenientEv
libicui18n.so.67:_ZNK6icu_6710DateFormat19getBooleanAttributeE27UDateFormatBooleanAttributeR10UErrorCode
libicui18n.so.67:_ZNK6icu_6710DateFormat5parseERKNS_13UnicodeStringER10UErrorCode
libicui18n.so.67:_ZNK6icu_6710DateFormat5parseERKNS_13UnicodeStringERNS_13ParsePositionE
libicui18n.so.67:_ZNK6icu_6710DateFormat6formatERKNS_11FormattableERNS_13UnicodeStringEPNS_21FieldPositionIteratorER10UErrorCode
libicui18n.so.67:_ZNK6icu_6710DateFormat6formatERKNS_11FormattableERNS_13UnicodeStringERNS_13FieldPositionER10UErrorCode
libicui18n.so.67:_ZNK6icu_6710DateFormat6formatERNS_8CalendarERNS_13UnicodeStringEPNS_21FieldPositionIteratorER10UErrorCode
libicui18n.so.67:_ZNK6icu_6710DateFormat6formatEdRNS_13UnicodeStringE
libicui18n.so.67:_ZNK6icu_6710DateFormat6formatEdRNS_13UnicodeStringEPNS_21FieldPositionIteratorER10UErrorCode
libicui18n.so.67:_ZNK6icu_6710DateFormat6formatEdRNS_13UnicodeStringERNS_13FieldPositionE
libicui18n.so.67:_ZNK6icu_6710DateFormat9isLenientEv
libicui18n.so.67:_ZNK6icu_6710DateFormateqERKNS_6FormatE
libicui18n.so.67:_ZNK6icu_6710GenderInfo13getListGenderEPK7UGenderiR10UErrorCode
libicui18n.so.67:_ZNK6icu_6710PatternMap22getPatternFromSkeletonERKNS_11PtnSkeletonEPPS2_
libicui18n.so.67:_ZNK6icu_6710PatternMap25getPatternFromBasePatternERKNS_13UnicodeStringERa
libicui18n.so.67:_ZNK6icu_6710PatternMap6equalsERKS0_
libicui18n.so.67:_ZNK6icu_6710PatternMap9getHeaderEDs
libicui18n.so.67:_ZNK6icu_6710Quantifier13addMatchSetToERNS_10UnicodeSetE
libicui18n.so.67:_ZNK6icu_6710Quantifier17getDynamicClassIDEv
libicui18n.so.67:_ZNK6icu_6710Quantifier17matchesIndexValueEh
libicui18n.so.67:_ZNK6icu_6710Quantifier5cloneEv
libicui18n.so.67:_ZNK6icu_6710Quantifier9toMatcherEv
libicui18n.so.67:_ZNK6icu_6710Quantifier9toPatternERNS_13UnicodeStringEa
libicui18n.so.67:_ZNK6icu_6711Formattable17getDynamicClassIDEv
libicui18n.so.67:_ZNK6icu_6711Formattable23populateDecimalQuantityERNS_6number4impl15DecimalQuantityER10UErrorCode
libicui18n.so.67:_ZNK6icu_6711Formattable5cloneEv
libicui18n.so.67:_ZNK6icu_6711Formattable7getLongER10UErrorCode
libicui18n.so.67:_ZNK6icu_6711Formattable7getTypeEv
libicui18n.so.67:_ZNK6icu_6711Formattable8getArrayERiR10UErrorCode
libicui18n.so.67:_ZNK6icu_6711Formattable8getBogusEv
libicui18n.so.67:_ZNK6icu_6711Formattable8getInt64ER10UErrorCode
libicui18n.so.67:_ZNK6icu_6711Formattable9getDoubleER10UErrorCode
libicui18n.so.67:_ZNK6icu_6711Formattable9getObjectEv
libicui18n.so.67:_ZNK6icu_6711Formattable9getStringER10UErrorCode
libicui18n.so.67:_ZNK6icu_6711Formattable9getStringERNS_13UnicodeStringER10UErrorCode
libicui18n.so.67:_ZNK6icu_6711Formattable9isNumericEv
libicui18n.so.67:_ZNK6icu_6711FormattableeqERKS0_
libicui18n.so.67:_ZNK6icu_6711MeasureUnit10getSubtypeEv
libicui18n.so.67:_ZNK6icu_6711MeasureUnit10reciprocalER10UErrorCode
libicui18n.so.67:_ZNK6icu_6711MeasureUnit11getSIPrefixER10UErrorCode
libicui18n.so.67:_ZNK6icu_6711MeasureUnit12withSIPrefixENS_16UMeasureSIPrefixER10UErrorCode
libicui18n.so.67:_ZNK6icu_6711MeasureUnit13getComplexityER10UErrorCode
libicui18n.so.67:_ZNK6icu_6711MeasureUnit13getIdentifierEv
libicui18n.so.67:_ZNK6icu_6711MeasureUnit17getDimensionalityER10UErrorCode
libicui18n.so.67:_ZNK6icu_6711MeasureUnit17getDynamicClassIDEv
libicui18n.so.67:_ZNK6icu_6711MeasureUnit18splitToSingleUnitsERiR10UErrorCode
libicui18n.so.67:_ZNK6icu_6711MeasureUnit18withDimensionalityEiR10UErrorCode
libicui18n.so.67:_ZNK6icu_6711MeasureUnit5cloneEv
libicui18n.so.67:_ZNK6icu_6711MeasureUnit7getTypeEv
libicui18n.so.67:_ZNK6icu_6711MeasureUnit7productERKS0_R10UErrorCode
libicui18n.so.67:_ZNK6icu_6711MeasureUnit8getIndexEv
libicui18n.so.67:_ZNK6icu_6711MeasureUnit9getOffsetEv
libicui18n.so.67:_ZNK6icu_6711MeasureUniteqERKNS_7UObjectE
libicui18n.so.67:_ZNK6icu_6711PluralRules11getKeywordsER10UErrorCode
libicui18n.so.67:_ZNK6icu_6711PluralRules15getKeywordOtherEv
libicui18n.so.67:_ZNK6icu_6711PluralRules15rulesForKeywordERKNS_13UnicodeStringE
libicui18n.so.67:_ZNK6icu_6711PluralRules17getDynamicClassIDEv
libicui18n.so.67:_ZNK6icu_6711PluralRules5cloneEv
libicui18n.so.67:_ZNK6icu_6711PluralRules6selectERKNS_13IFixedDecimalE
libicui18n.so.67:_ZNK6icu_6711PluralRules6selectERKNS_6number15FormattedNumberER10UErrorCode
libicui18n.so.67:_ZNK6icu_6711PluralRules6selectEd
libicui18n.so.67:_ZNK6icu_6711PluralRules6selectEi
libicui18n.so.67:_ZNK6icu_6711PluralRules8getRulesEv
libicui18n.so.67:_ZNK6icu_6711PluralRules9isKeywordERKNS_13UnicodeStringE
libicui18n.so.67:_ZNK6icu_6711PluralRuleseqERKS0_
libicui18n.so.67:_ZNK6icu_6711PtnSkeleton11getSkeletonEv
libicui18n.so.67:_ZNK6icu_6711PtnSkeleton12getFirstCharEv
libicui18n.so.67:_ZNK6icu_6711PtnSkeleton15getBaseSkeletonEv
libicui18n.so.67:_ZNK6icu_6711PtnSkeleton6equalsERKS0_
libicui18n.so.67:_ZNK6icu_6711TextTrieMap12getChildNodeEPNS_13CharacterNodeEDs
libicui18n.so.67:_ZNK6icu_6711TextTrieMap6searchEPNS_13CharacterNodeERKNS_13UnicodeStringEiiPNS_30TextTrieMapSearchResultHandlerER10UErrorCode
libicui18n.so.67:_ZNK6icu_6711TextTrieMap6searchERKNS_13UnicodeStringEiPNS_30TextTrieMapSearchResultHandlerER10UErrorCode
libicui18n.so.67:_ZNK6icu_6711TextTrieMap7isEmptyEv
libicui18n.so.67:_ZNK6icu_6712CharsetMatch11getLanguageEv
libicui18n.so.67:_ZNK6icu_6712CharsetMatch13getConfidenceEv
libicui18n.so.67:_ZNK6icu_6712CharsetMatch7getNameEv
libicui18n.so.67:_ZNK6icu_6712CharsetMatch9getUCharsEPDsiP10UErrorCode
libicui18n.so.67:_ZNK6icu_6712ChoiceFormat10getFormatsERi
libicui18n.so.67:_ZNK6icu_6712ChoiceFormat11getClosuresERi
libicui18n.so.67:_ZNK6icu_6712ChoiceFormat17getDynamicClassIDEv
libicui18n.so.67:_ZNK6icu_6712ChoiceFormat5cloneEv
libicui18n.so.67:_ZNK6icu_6712ChoiceFormat5parseERKNS_13UnicodeStringERNS_11FormattableERNS_13ParsePositionE
libicui18n.so.67:_ZNK6icu_6712ChoiceFormat6formatEPKNS_11FormattableEiRNS_13UnicodeStringERNS_13FieldPositionER10UErrorCode
libicui18n.so.67:_ZNK6icu_6712ChoiceFormat6formatEdRNS_13UnicodeStringERNS_13FieldPositionE
libicui18n.so.67:_ZNK6icu_6712ChoiceFormat6formatEiRNS_13UnicodeStringERNS_13FieldPositionE
libicui18n.so.67:_ZNK6icu_6712ChoiceFormat6formatElRNS_13UnicodeStringERNS_13FieldPositionE
libicui18n.so.67:_ZNK6icu_6712ChoiceFormat9getLimitsERi
libicui18n.so.67:_ZNK6icu_6712ChoiceFormat9toPatternERNS_13UnicodeStringE
libicui18n.so.67:_ZNK6icu_6712ChoiceFormateqERKNS_6FormatE
libicui18n.so.67:_ZNK6icu_6712CollationKey17getDynamicClassIDEv
libicui18n.so.67:_ZNK6icu_6712CollationKey8hashCodeEv
libicui18n.so.67:_ZNK6icu_6712CollationKey9compareToERKS0_
libicui18n.so.67:_ZNK6icu_6712CollationKey9compareToERKS0_R10UErrorCode
libicui18n.so.67:_ZNK6icu_6712CollationKeyeqERKS0_
libicui18n.so.67:_ZNK6icu_6712CurrencyUnit17getDynamicClassIDEv
libicui18n.so.67:_ZNK6icu_6712CurrencyUnit5cloneEv
libicui18n.so.67:_ZNK6icu_6712DateTimeRule12getRuleMonthEv
libicui18n.so.67:_ZNK6icu_6712DateTimeRule15getDateRuleTypeEv
libicui18n.so.67:_ZNK6icu_6712DateTimeRule15getTimeRuleTypeEv
libicui18n.so.67:_ZNK6icu_6712DateTimeRule16getRuleDayOfWeekEv
libicui18n.so.67:_ZNK6icu_6712DateTimeRule17getDynamicClassIDEv
libicui18n.so.67:_ZNK6icu_6712DateTimeRule17getRuleDayOfMonthEv
libicui18n.so.67:_ZNK6icu_6712DateTimeRule18getRuleMillisInDayEv
libicui18n.so.67:_ZNK6icu_6712DateTimeRule18getRuleWeekInMonthEv
libicui18n.so.67:_ZNK6icu_6712DateTimeRule5cloneEv
libicui18n.so.67:_ZNK6icu_6712DateTimeRuleeqERKS0_
libicui18n.so.67:_ZNK6icu_6712DateTimeRuleneERKS0_
libicui18n.so.67:_ZNK6icu_6712FixedDecimal10isInfiniteEv
libicui18n.so.67:_ZNK6icu_6712FixedDecimal15hasIntegerValueEv
libicui18n.so.67:_ZNK6icu_6712FixedDecimal15isNanOrInfinityEv
libicui18n.so.67:_ZNK6icu_6712FixedDecimal16getPluralOperandENS_13PluralOperandE
libicui18n.so.67:_ZNK6icu_6712FixedDecimal28getVisibleFractionDigitCountEv
libicui18n.so.67:_ZNK6icu_6712FixedDecimal5isNaNEv
libicui18n.so.67:_ZNK6icu_6712FormatParser18isPatternSeparatorERKNS_13UnicodeStringE
libicui18n.so.67:_ZNK6icu_6712NumberFormat10getContextE19UDisplayContextTypeR10UErrorCode
libicui18n.so.67:_ZNK6icu_6712NumberFormat11getCurrencyEv
libicui18n.so.67:_ZNK6icu_6712NumberFormat11parseObjectERKNS_13UnicodeStringERNS_11FormattableERNS_13ParsePositionE
libicui18n.so.67:_ZNK6icu_6712NumberFormat13parseCurrencyERKNS_13UnicodeStringERNS_13ParsePositionE
libicui18n.so.67:_ZNK6icu_6712NumberFormat14isGroupingUsedEv
libicui18n.so.67:_ZNK6icu_6712NumberFormat15getRoundingModeEv
libicui18n.so.67:_ZNK6icu_6712NumberFormat20getEffectiveCurrencyEPDsR10UErrorCode
libicui18n.so.67:_ZNK6icu_6712NumberFormat23getMaximumIntegerDigitsEv
libicui18n.so.67:_ZNK6icu_6712NumberFormat23getMinimumIntegerDigitsEv
libicui18n.so.67:_ZNK6icu_6712NumberFormat24getMaximumFractionDigitsEv
libicui18n.so.67:_ZNK6icu_6712NumberFormat24getMinimumFractionDigitsEv
libicui18n.so.67:_ZNK6icu_6712NumberFormat5parseERKNS_13UnicodeStringERNS_11FormattableER10UErrorCode
libicui18n.so.67:_ZNK6icu_6712NumberFormat6formatENS_11StringPieceERNS_13UnicodeStringEPNS_21FieldPositionIteratorER10UErrorCode
libicui18n.so.67:_ZNK6icu_6712NumberFormat6formatERKNS_11FormattableERNS_13UnicodeStringEPNS_21FieldPositionIteratorER10UErrorCode
libicui18n.so.67:_ZNK6icu_6712NumberFormat6formatERKNS_11FormattableERNS_13UnicodeStringERNS_13FieldPositionER10UErrorCode
libicui18n.so.67:_ZNK6icu_6712NumberFormat6formatERKNS_6number4impl15DecimalQuantityERNS_13UnicodeStringEPNS_21FieldPositionIteratorER10UErrorCode
libicui18n.so.67:_ZNK6icu_6712NumberFormat6formatERKNS_6number4impl15DecimalQuantityERNS_13UnicodeStringERNS_13FieldPositionER10UErrorCode
libicui18n.so.67:_ZNK6icu_6712NumberFormat6formatEdRNS_13UnicodeStringE
libicui18n.so.67:_ZNK6icu_6712NumberFormat6formatEdRNS_13UnicodeStringEPNS_21FieldPositionIteratorER10UErrorCode
libicui18n.so.67:_ZNK6icu_6712NumberFormat6formatEdRNS_13UnicodeStringERNS_13FieldPositionER10UErrorCode
libicui18n.so.67:_ZNK6icu_6712NumberFormat6formatEiRNS_13UnicodeStringE
libicui18n.so.67:_ZNK6icu_6712NumberFormat6formatEiRNS_13UnicodeStringEPNS_21FieldPositionIteratorER10UErrorCode
libicui18n.so.67:_ZNK6icu_6712NumberFormat6formatEiRNS_13UnicodeStringERNS_13FieldPositionER10UErrorCode
libicui18n.so.67:_ZNK6icu_6712NumberFormat6formatElRNS_13UnicodeStringE
libicui18n.so.67:_ZNK6icu_6712NumberFormat6formatElRNS_13UnicodeStringEPNS_21FieldPositionIteratorER10UErrorCode
libicui18n.so.67:_ZNK6icu_6712NumberFormat6formatElRNS_13UnicodeStringERNS_13FieldPositionE
libicui18n.so.67:_ZNK6icu_6712NumberFormat6formatElRNS_13UnicodeStringERNS_13FieldPositionER10UErrorCode
libicui18n.so.67:_ZNK6icu_6712NumberFormateqERKNS_6FormatE
libicui18n.so.67:_ZNK6icu_6712PluralFormat11parseObjectERKNS_13UnicodeStringERNS_11FormattableERNS_13ParsePositionE
libicui18n.so.67:_ZNK6icu_6712PluralFormat17getDynamicClassIDEv
libicui18n.so.67:_ZNK6icu_6712PluralFormat21PluralSelectorAdapter6selectEPvdR10UErrorCode
libicui18n.so.67:_ZNK6icu_6712PluralFormat5cloneEv
libicui18n.so.67:_ZNK6icu_6712PluralFormat6formatERKNS_11FormattableERNS_13UnicodeStringERNS_13FieldPositionER10UErrorCode
libicui18n.so.67:_ZNK6icu_6712PluralFormat6formatERKNS_11FormattableEdRNS_13UnicodeStringERNS_13FieldPositionER10UErrorCode
libicui18n.so.67:_ZNK6icu_6712PluralFormat6formatEdR10UErrorCode
libicui18n.so.67:_ZNK6icu_6712PluralFormat6formatEdRNS_13UnicodeStringERNS_13FieldPositionER10UErrorCode
libicui18n.so.67:_ZNK6icu_6712PluralFormat6formatEiR10UErrorCode
libicui18n.so.67:_ZNK6icu_6712PluralFormat6formatEiRNS_13UnicodeStringERNS_13FieldPositionER10UErrorCode
libicui18n.so.67:_ZNK6icu_6712PluralFormat9parseTypeERKNS_13UnicodeStringEPKNS_6NFRuleERNS_11FormattableERNS_13FieldPositionE
libicui18n.so.67:_ZNK6icu_6712PluralFormateqERKNS_6FormatE
libicui18n.so.67:_ZNK6icu_6712PluralFormatneERKNS_6FormatE
libicui18n.so.67:_ZNK6icu_6712RegexMatcher10groupCountEv
libicui18n.so.67:_ZNK6icu_6712RegexMatcher10requireEndEv
libicui18n.so.67:_ZNK6icu_6712RegexMatcher11appendGroupEiP5UTextR10UErrorCode
libicui18n.so.67:_ZNK6icu_6712RegexMatcher11regionEnd64Ev
libicui18n.so.67:_ZNK6icu_6712RegexMatcher11regionStartEv
libicui18n.so.67:_ZNK6icu_6712RegexMatcher12getTimeLimitEv
libicui18n.so.67:_ZNK6icu_6712RegexMatcher13getStackLimitEv
libicui18n.so.67:_ZNK6icu_6712RegexMatcher13regionStart64Ev
libicui18n.so.67:_ZNK6icu_6712RegexMatcher17getDynamicClassIDEv
libicui18n.so.67:_ZNK6icu_6712RegexMatcher18hasAnchoringBoundsEv
libicui18n.so.67:_ZNK6icu_6712RegexMatcher20hasTransparentBoundsEv
libicui18n.so.67:_ZNK6icu_6712RegexMatcher3endER10UErrorCode
libicui18n.so.67:_ZNK6icu_6712RegexMatcher3endEiR10UErrorCode
libicui18n.so.67:_ZNK6icu_6712RegexMatcher5end64ER10UErrorCode
libicui18n.so.67:_ZNK6icu_6712RegexMatcher5end64EiR10UErrorCode
libicui18n.so.67:_ZNK6icu_6712RegexMatcher5groupEP5UTextRlR10UErrorCode
libicui18n.so.67:_ZNK6icu_6712RegexMatcher5groupER10UErrorCode
libicui18n.so.67:_ZNK6icu_6712RegexMatcher5groupEiP5UTextRlR10UErrorCode
libicui18n.so.67:_ZNK6icu_6712RegexMatcher5groupEiR10UErrorCode
libicui18n.so.67:_ZNK6icu_6712RegexMatcher5inputEv
libicui18n.so.67:_ZNK6icu_6712RegexMatcher5startER10UErrorCode
libicui18n.so.67:_ZNK6icu_6712RegexMatcher5startEiR10UErrorCode
libicui18n.so.67:_ZNK6icu_6712RegexMatcher6hitEndEv
libicui18n.so.67:_ZNK6icu_6712RegexMatcher7patternEv
libicui18n.so.67:_ZNK6icu_6712RegexMatcher7start64ER10UErrorCode
libicui18n.so.67:_ZNK6icu_6712RegexMatcher7start64EiR10UErrorCode
libicui18n.so.67:_ZNK6icu_6712RegexMatcher8getInputEP5UTextR10UErrorCode
libicui18n.so.67:_ZNK6icu_6712RegexMatcher9inputTextEv
libicui18n.so.67:_ZNK6icu_6712RegexMatcher9regionEndEv
libicui18n.so.67:_ZNK6icu_6712RegexPattern11dumpPatternEv
libicui18n.so.67:_ZNK6icu_6712RegexPattern11patternTextER10UErrorCode
libicui18n.so.67:_ZNK6icu_6712RegexPattern17getDynamicClassIDEv
libicui18n.so.67:_ZNK6icu_6712RegexPattern19groupNumberFromNameEPKciR10UErrorCode
libicui18n.so.67:_ZNK6icu_6712RegexPattern19groupNumberFromNameERKNS_13UnicodeStringER10UErrorCode
libicui18n.so.67:_ZNK6icu_6712RegexPattern5cloneEv
libicui18n.so.67:_ZNK6icu_6712RegexPattern5flagsEv
libicui18n.so.67:_ZNK6icu_6712RegexPattern5splitEP5UTextPS2_iR10UErrorCode
libicui18n.so.67:_ZNK6icu_6712RegexPattern5splitERKNS_13UnicodeStringEPS1_iR10UErrorCode
libicui18n.so.67:_ZNK6icu_6712RegexPattern6dumpOpEi
libicui18n.so.67:_ZNK6icu_6712RegexPattern7matcherER10UErrorCode
libicui18n.so.67:_ZNK6icu_6712RegexPattern7matcherERKNS_13UnicodeStringER10UErrorCode
libicui18n.so.67:_ZNK6icu_6712RegexPattern7patternEv
libicui18n.so.67:_ZNK6icu_6712RegexPatterneqERKS0_
libicui18n.so.67:_ZNK6icu_6712SelectFormat11parseObjectERKNS_13UnicodeStringERNS_11FormattableERNS_13ParsePositionE
libicui18n.so.67:_ZNK6icu_6712SelectFormat17getDynamicClassIDEv
libicui18n.so.67:_ZNK6icu_6712SelectFormat5cloneEv
libicui18n.so.67:_ZNK6icu_6712SelectFormat6formatERKNS_11FormattableERNS_13UnicodeStringERNS_13FieldPositionER10UErrorCode
libicui18n.so.67:_ZNK6icu_6712SelectFormat6formatERKNS_13UnicodeStringERS1_RNS_13FieldPositionER10UErrorCode
libicui18n.so.67:_ZNK6icu_6712SelectFormateqERKNS_6FormatE
libicui18n.so.67:_ZNK6icu_6712SelectFormatneERKNS_6FormatE
libicui18n.so.67:_ZNK6icu_6712StringSearch10getPatternEv
libicui18n.so.67:_ZNK6icu_6712StringSearch11getCollatorEv
libicui18n.so.67:_ZNK6icu_6712StringSearch17getDynamicClassIDEv
libicui18n.so.67:_ZNK6icu_6712StringSearch5cloneEv
libicui18n.so.67:_ZNK6icu_6712StringSearch9getOffsetEv
libicui18n.so.67:_ZNK6icu_6712StringSearch9safeCloneEv
libicui18n.so.67:_ZNK6icu_6712StringSearcheqERKNS_14SearchIteratorE
libicui18n.so.67:_ZNK6icu_6712TimeZoneRule12getRawOffsetEv
libicui18n.so.67:_ZNK6icu_6712TimeZoneRule13getDSTSavingsEv
libicui18n.so.67:_ZNK6icu_6712TimeZoneRule14isEquivalentToERKS0_
libicui18n.so.67:_ZNK6icu_6712TimeZoneRule7getNameERNS_13UnicodeStringE
libicui18n.so.67:_ZNK6icu_6712TimeZoneRuleeqERKS0_
libicui18n.so.67:_ZNK6icu_6712TimeZoneRuleneERKS0_
libicui18n.so.67:_ZNK6icu_6713BasicTimeZone18getOffsetFromLocalEdiiRiS1_R10UErrorCode
libicui18n.so.67:_ZNK6icu_6713BasicTimeZone18getSimpleRulesNearEdRPNS_19InitialTimeZoneRuleERPNS_18AnnualTimeZoneRuleES6_R10UErrorCode
libicui18n.so.67:_ZNK6icu_6713BasicTimeZone21getTimeZoneRulesAfterEdRPNS_19InitialTimeZoneRuleERPNS_7UVectorER10UErrorCode
libicui18n.so.67:_ZNK6icu_6713BasicTimeZone24hasEquivalentTransitionsERKS0_ddaR10UErrorCode
libicui18n.so.67:_ZNK6icu_6713CollationData11getSingleCEEiR10UErrorCode
libicui18n.so.67:_ZNK6icu_6713CollationData12getFinalCE32Ej
libicui18n.so.67:_ZNK6icu_6713CollationData14getScriptIndexEi
libicui18n.so.67:_ZNK6icu_6713CollationData15getIndirectCE32Ej
libicui18n.so.67:_ZNK6icu_6713CollationData17addLowScriptRangeEPhii
libicui18n.so.67:_ZNK6icu_6713CollationData17makeReorderRangesEPKiiRNS_9UVector32ER10UErrorCode
libicui18n.so.67:_ZNK6icu_6713CollationData17makeReorderRangesEPKiiaRNS_9UVector32ER10UErrorCode
libicui18n.so.67:_ZNK6icu_6713CollationData18addHighScriptRangeEPhii
libicui18n.so.67:_ZNK6icu_6713CollationData18getGroupForPrimaryEj
libicui18n.so.67:_ZNK6icu_6713CollationData20getEquivalentScriptsEiPiiR10UErrorCode
libicui18n.so.67:_ZNK6icu_6713CollationData22getLastPrimaryForGroupEi
libicui18n.so.67:_ZNK6icu_6713CollationData23getFirstPrimaryForGroupEi
libicui18n.so.67:_ZNK6icu_6713DangiCalendar17getDynamicClassIDEv
libicui18n.so.67:_ZNK6icu_6713DangiCalendar24getDangiCalZoneAstroCalcEv
libicui18n.so.67:_ZNK6icu_6713DangiCalendar5cloneEv
libicui18n.so.67:_ZNK6icu_6713DangiCalendar7getTypeEv
libicui18n.so.67:_ZNK6icu_6713DecimalFormat12getAttributeE22UNumberFormatAttributeR10UErrorCode
libicui18n.so.67:_ZNK6icu_6713DecimalFormat13getMultiplierEv
libicui18n.so.67:_ZNK6icu_6713DecimalFormat13parseCurrencyERKNS_13UnicodeStringERNS_13ParsePositionE
libicui18n.so.67:_ZNK6icu_6713DecimalFormat14getFormatWidthEv
libicui18n.so.67:_ZNK6icu_6713DecimalFormat14getPadPositionEv
libicui18n.so.67:_ZNK6icu_6713DecimalFormat15fastFormatInt64ElRNS_13UnicodeStringE
libicui18n.so.67:_ZNK6icu_6713DecimalFormat15getGroupingSizeEv
libicui18n.so.67:_ZNK6icu_6713DecimalFormat15getRoundingModeEv
libicui18n.so.67:_ZNK6icu_6713DecimalFormat16fastFormatDoubleEdRNS_13UnicodeStringE
libicui18n.so.67:_ZNK6icu_6713DecimalFormat16getCurrencyUsageEv
libicui18n.so.67:_ZNK6icu_6713DecimalFormat17doFastFormatInt32EibRNS_13UnicodeStringE
libicui18n.so.67:_ZNK6icu_6713DecimalFormat17getCurrencyParserER10UErrorCode
libicui18n.so.67:_ZNK6icu_6713DecimalFormat17getDynamicClassIDEv
libicui18n.so.67:_ZNK6icu_6713DecimalFormat17getNegativePrefixERNS_13UnicodeStringE
libicui18n.so.67:_ZNK6icu_6713DecimalFormat17getNegativeSuffixERNS_13UnicodeStringE
libicui18n.so.67:_ZNK6icu_6713DecimalFormat17getPositivePrefixERNS_13UnicodeStringE
libicui18n.so.67:_ZNK6icu_6713DecimalFormat17getPositiveSuffixERNS_13UnicodeStringE
libicui18n.so.67:_ZNK6icu_6713DecimalFormat17isParseNoExponentEv
libicui18n.so.67:_ZNK6icu_6713DecimalFormat17isSignAlwaysShownEv
libicui18n.so.67:_ZNK6icu_6713DecimalFormat17toNumberFormatterER10UErrorCode
libicui18n.so.67:_ZNK6icu_6713DecimalFormat18getMultiplierScaleEv
libicui18n.so.67:_ZNK6icu_6713DecimalFormat18toLocalizedPatternERNS_13UnicodeStringE
libicui18n.so.67:_ZNK6icu_6713DecimalFormat20getRoundingIncrementEv
libicui18n.so.67:_ZNK6icu_6713DecimalFormat20isParseCaseSensitiveEv
libicui18n.so.67:_ZNK6icu_6713DecimalFormat20isScientificNotationEv
libicui18n.so.67:_ZNK6icu_6713DecimalFormat21getCurrencyPluralInfoEv
libicui18n.so.67:_ZNK6icu_6713DecimalFormat21getPadCharacterStringEv
libicui18n.so.67:_ZNK6icu_6713DecimalFormat23formatToDecimalQuantityERKNS_11FormattableERNS_6number4impl15DecimalQuantityER10UErrorCode
libicui18n.so.67:_ZNK6icu_6713DecimalFormat23formatToDecimalQuantityEdRNS_6number4impl15DecimalQuantityER10UErrorCode
libicui18n.so.67:_ZNK6icu_6713DecimalFormat23getDecimalFormatSymbolsEv
libicui18n.so.67:_ZNK6icu_6713DecimalFormat24areSignificantDigitsUsedEv
libicui18n.so.67:_ZNK6icu_6713DecimalFormat24getMinimumExponentDigitsEv
libicui18n.so.67:_ZNK6icu_6713DecimalFormat24getMinimumGroupingDigitsEv
libicui18n.so.67:_ZNK6icu_6713DecimalFormat24getSecondaryGroupingSizeEv
libicui18n.so.67:_ZNK6icu_6713DecimalFormat25isExponentSignAlwaysShownEv
libicui18n.so.67:_ZNK6icu_6713DecimalFormat27getMaximumSignificantDigitsEv
libicui18n.so.67:_ZNK6icu_6713DecimalFormat27getMinimumSignificantDigitsEv
libicui18n.so.67:_ZNK6icu_6713DecimalFormat29isDecimalPatternMatchRequiredEv
libicui18n.so.67:_ZNK6icu_6713DecimalFormat29isDecimalSeparatorAlwaysShownEv
libicui18n.so.67:_ZNK6icu_6713DecimalFormat31isFormatFailIfMoreThanMaxDigitsEv
libicui18n.so.67:_ZNK6icu_6713DecimalFormat5cloneEv
libicui18n.so.67:_ZNK6icu_6713DecimalFormat5parseERKNS_13UnicodeStringERNS_11FormattableERNS_13ParsePositionE
libicui18n.so.67:_ZNK6icu_6713DecimalFormat6formatENS_11StringPieceERNS_13UnicodeStringEPNS_21FieldPositionIteratorER10UErrorCode
libicui18n.so.67:_ZNK6icu_6713DecimalFormat6formatERKNS_6number4impl15DecimalQuantityERNS_13UnicodeStringEPNS_21FieldPositionIteratorER10UErrorCode
libicui18n.so.67:_ZNK6icu_6713DecimalFormat6formatERKNS_6number4impl15DecimalQuantityERNS_13UnicodeStringERNS_13FieldPositionER10UErrorCode
libicui18n.so.67:_ZNK6icu_6713DecimalFormat6formatEdRNS_13UnicodeStringEPNS_21FieldPositionIteratorER10UErrorCode
libicui18n.so.67:_ZNK6icu_6713DecimalFormat6formatEdRNS_13UnicodeStringERNS_13FieldPositionE
libicui18n.so.67:_ZNK6icu_6713DecimalFormat6formatEdRNS_13UnicodeStringERNS_13FieldPositionER10UErrorCode
libicui18n.so.67:_ZNK6icu_6713DecimalFormat6formatEiRNS_13UnicodeStringEPNS_21FieldPositionIteratorER10UErrorCode
libicui18n.so.67:_ZNK6icu_6713DecimalFormat6formatEiRNS_13UnicodeStringERNS_13FieldPositionE
libicui18n.so.67:_ZNK6icu_6713DecimalFormat6formatEiRNS_13UnicodeStringERNS_13FieldPositionER10UErrorCode
libicui18n.so.67:_ZNK6icu_6713DecimalFormat6formatElRNS_13UnicodeStringEPNS_21FieldPositionIteratorER10UErrorCode
libicui18n.so.67:_ZNK6icu_6713DecimalFormat6formatElRNS_13UnicodeStringERNS_13FieldPositionE
libicui18n.so.67:_ZNK6icu_6713DecimalFormat6formatElRNS_13UnicodeStringERNS_13FieldPositionER10UErrorCode
libicui18n.so.67:_ZNK6icu_6713DecimalFormat9getParserER10UErrorCode
libicui18n.so.67:_ZNK6icu_6713DecimalFormat9toPatternERNS_13UnicodeStringE
libicui18n.so.67:_ZNK6icu_6713DecimalFormateqERKNS_6FormatE
libicui18n.so.67:_ZNK6icu_6713FieldPosition17getDynamicClassIDEv
libicui18n.so.67:_ZNK6icu_6713FieldPosition5cloneEv
libicui18n.so.67:_ZNK6icu_6713FormattedList12nextPositionERNS_24ConstrainedFieldPositionER10UErrorCode
libicui18n.so.67:_ZNK6icu_6713FormattedList12toTempStringER10UErrorCode
libicui18n.so.67:_ZNK6icu_6713FormattedList8appendToERNS_10AppendableER10UErrorCode
libicui18n.so.67:_ZNK6icu_6713FormattedList8toStringER10UErrorCode
libicui18n.so.67:_ZNK6icu_6713ListFormatter20formatStringsToValueEPKNS_13UnicodeStringEiR10UErrorCode
libicui18n.so.67:_ZNK6icu_6713ListFormatter6formatEPKNS_13UnicodeStringEiRS1_R10UErrorCode
libicui18n.so.67:_ZNK6icu_6713ListFormatter6formatEPKNS_13UnicodeStringEiRS1_iRiR10UErrorCode
libicui18n.so.67:_ZNK6icu_6713ListFormatter7format_EPKNS_13UnicodeStringEiRS1_iRiPNS_20FieldPositionHandlerER10UErrorCode
libicui18n.so.67:_ZNK6icu_6713MeasureFormat11getLocaleIDER10UErrorCode
libicui18n.so.67:_ZNK6icu_6713MeasureFormat11parseObjectERKNS_13UnicodeStringERNS_11FormattableERNS_13ParsePositionE
libicui18n.so.67:_ZNK6icu_6713MeasureFormat13formatMeasureERKNS_7MeasureERKNS_12NumberFormatERNS_13UnicodeStringERNS_13FieldPositionER10UErrorCode
libicui18n.so.67:_ZNK6icu_6713MeasureFormat13formatNumericEPKNS_11FormattableEiRNS_13UnicodeStringER10UErrorCode
libicui18n.so.67:_ZNK6icu_6713MeasureFormat14formatMeasuresEPKNS_7MeasureEiRNS_13UnicodeStringERNS_13FieldPositionER10UErrorCode
libicui18n.so.67:_ZNK6icu_6713MeasureFormat14getPluralRulesEv
libicui18n.so.67:_ZNK6icu_6713MeasureFormat17getDynamicClassIDEv
libicui18n.so.67:_ZNK6icu_6713MeasureFormat18getUnitDisplayNameERKNS_11MeasureUnitER10UErrorCode
libicui18n.so.67:_ZNK6icu_6713MeasureFormat20formatMeasurePerUnitERKNS_7MeasureERKNS_11MeasureUnitERNS_13UnicodeStringERNS_13FieldPositionER10UErrorCode
libicui18n.so.67:_ZNK6icu_6713MeasureFormat23formatMeasuresSlowTrackEPKNS_7MeasureEiRNS_13UnicodeStringERNS_13FieldPositionER10UErrorCode
libicui18n.so.67:_ZNK6icu_6713MeasureFormat23getNumberFormatInternalEv
libicui18n.so.67:_ZNK6icu_6713MeasureFormat25getCurrencyFormatInternalEv
libicui18n.so.67:_ZNK6icu_6713MeasureFormat5cloneEv
libicui18n.so.67:_ZNK6icu_6713MeasureFormat6formatERKNS_11FormattableERNS_13UnicodeStringERNS_13FieldPositionER10UErrorCode
libicui18n.so.67:_ZNK6icu_6713MeasureFormat9getLocaleER10UErrorCode
libicui18n.so.67:_ZNK6icu_6713MeasureFormateqERKNS_6FormatE
libicui18n.so.67:_ZNK6icu_6713MessageFormat10getFormatsERi
libicui18n.so.67:_ZNK6icu_6713MessageFormat11DummyFormat11parseObjectERKNS_13UnicodeStringERNS_11FormattableERNS_13ParsePositionE
libicui18n.so.67:_ZNK6icu_6713MessageFormat11DummyFormat5cloneEv
libicui18n.so.67:_ZNK6icu_6713MessageFormat11DummyFormat6formatERKNS_11FormattableERNS_13UnicodeStringEPNS_21FieldPositionIteratorER10UErrorCode
libicui18n.so.67:_ZNK6icu_6713MessageFormat11DummyFormat6formatERKNS_11FormattableERNS_13UnicodeStringER10UErrorCode
libicui18n.so.67:_ZNK6icu_6713MessageFormat11DummyFormat6formatERKNS_11FormattableERNS_13UnicodeStringERNS_13FieldPositionER10UErrorCode
libicui18n.so.67:_ZNK6icu_6713MessageFormat11DummyFormateqERKNS_6FormatE
libicui18n.so.67:_ZNK6icu_6713MessageFormat11parseObjectERKNS_13UnicodeStringERNS_11FormattableERNS_13ParsePositionE
libicui18n.so.67:_ZNK6icu_6713MessageFormat14updateMetaDataERNS_17AppendableWrapperEiPNS_13FieldPositionEPKNS_11FormattableE
libicui18n.so.67:_ZNK6icu_6713MessageFormat15getArgTypeCountEv
libicui18n.so.67:_ZNK6icu_6713MessageFormat17getDynamicClassIDEv
libicui18n.so.67:_ZNK6icu_6713MessageFormat18getCachedFormatterEi
libicui18n.so.67:_ZNK6icu_6713MessageFormat18usesNamedArgumentsEv
libicui18n.so.67:_ZNK6icu_6713MessageFormat19createIntegerFormatERKNS_6LocaleER10UErrorCode
libicui18n.so.67:_ZNK6icu_6713MessageFormat19findOtherSubMessageEi
libicui18n.so.67:_ZNK6icu_6713MessageFormat20getArgFromListByNameEPKNS_11FormattableEPKNS_13UnicodeStringEiRS4_
libicui18n.so.67:_ZNK6icu_6713MessageFormat20getDefaultDateFormatER10UErrorCode
libicui18n.so.67:_ZNK6icu_6713MessageFormat20nextTopLevelArgStartEi
libicui18n.so.67:_ZNK6icu_6713MessageFormat22PluralSelectorProvider6selectEPvdR10UErrorCode
libicui18n.so.67:_ZNK6icu_6713MessageFormat22getDefaultNumberFormatER10UErrorCode
libicui18n.so.67:_ZNK6icu_6713MessageFormat23formatComplexSubMessageEiPKvPKNS_11FormattableEPKNS_13UnicodeStringEiRNS_17AppendableWrapperER10UErrorCode
libicui18n.so.67:_ZNK6icu_6713MessageFormat24findFirstPluralNumberArgEiRKNS_13UnicodeStringE
libicui18n.so.67:_ZNK6icu_6713MessageFormat33getLiteralStringUntilNextArgumentEi
libicui18n.so.67:_ZNK6icu_6713MessageFormat5cloneEv
libicui18n.so.67:_ZNK6icu_6713MessageFormat5parseERKNS_13UnicodeStringERNS_13ParsePositionERi
libicui18n.so.67:_ZNK6icu_6713MessageFormat5parseERKNS_13UnicodeStringERiR10UErrorCode
libicui18n.so.67:_ZNK6icu_6713MessageFormat5parseEiRKNS_13UnicodeStringERNS_13ParsePositionERiR10UErrorCode
libicui18n.so.67:_ZNK6icu_6713MessageFormat6formatEPKNS_11FormattableEPKNS_13UnicodeStringEiRS4_PNS_13FieldPositionER10UErrorCode
libicui18n.so.67:_ZNK6icu_6713MessageFormat6formatEPKNS_11FormattableEiRNS_13UnicodeStringERNS_13FieldPositionER10UErrorCode
libicui18n.so.67:_ZNK6icu_6713MessageFormat6formatEPKNS_13UnicodeStringEPKNS_11FormattableEiRS1_R10UErrorCode
libicui18n.so.67:_ZNK6icu_6713MessageFormat6formatERKNS_11FormattableERNS_13UnicodeStringERNS_13FieldPositionER10UErrorCode
libicui18n.so.67:_ZNK6icu_6713MessageFormat6formatEiPKvPKNS_11FormattableEPKNS_13UnicodeStringEiRNS_17AppendableWrapperEPNS_13FieldPositionER10UErrorCode
libicui18n.so.67:_ZNK6icu_6713MessageFormat9getLocaleEv
libicui18n.so.67:_ZNK6icu_6713MessageFormat9toPatternERNS_13UnicodeStringE
libicui18n.so.67:_ZNK6icu_6713MessageFormateqERKNS_6FormatE
libicui18n.so.67:_ZNK6icu_6713OlsonTimeZone12getRawOffsetEv
libicui18n.so.67:_ZNK6icu_6713OlsonTimeZone12hasSameRulesERKNS_8TimeZoneE
libicui18n.so.67:_ZNK6icu_6713OlsonTimeZone13getDSTSavingsEv
libicui18n.so.67:_ZNK6icu_6713OlsonTimeZone14inDaylightTimeEdR10UErrorCode
libicui18n.so.67:_ZNK6icu_6713OlsonTimeZone15useDaylightTimeEv
libicui18n.so.67:_ZNK6icu_6713OlsonTimeZone16getTimeZoneRulesERPKNS_19InitialTimeZoneRuleEPPKNS_12TimeZoneRuleERiR10UErrorCode
libicui18n.so.67:_ZNK6icu_6713OlsonTimeZone17getDynamicClassIDEv
libicui18n.so.67:_ZNK6icu_6713OlsonTimeZone17getNextTransitionEdaRNS_18TimeZoneTransitionE
libicui18n.so.67:_ZNK6icu_6713OlsonTimeZone18getOffsetFromLocalEdiiRiS1_R10UErrorCode
libicui18n.so.67:_ZNK6icu_6713OlsonTimeZone19getHistoricalOffsetEdaiiRiS1_
libicui18n.so.67:_ZNK6icu_6713OlsonTimeZone20checkTransitionRulesER10UErrorCode
libicui18n.so.67:_ZNK6icu_6713OlsonTimeZone20countTransitionRulesER10UErrorCode
libicui18n.so.67:_ZNK6icu_6713OlsonTimeZone21getPreviousTransitionEdaRNS_18TimeZoneTransitionE
libicui18n.so.67:_ZNK6icu_6713OlsonTimeZone23transitionTimeInSecondsEs
libicui18n.so.67:_ZNK6icu_6713OlsonTimeZone5cloneEv
libicui18n.so.67:_ZNK6icu_6713OlsonTimeZone9getOffsetEdaRiS1_R10UErrorCode
libicui18n.so.67:_ZNK6icu_6713OlsonTimeZone9getOffsetEhiiihiR10UErrorCode
libicui18n.so.67:_ZNK6icu_6713OlsonTimeZone9getOffsetEhiiihiiR10UErrorCode
libicui18n.so.67:_ZNK6icu_6713OlsonTimeZoneeqERKNS_8TimeZoneE
libicui18n.so.67:_ZNK6icu_6713StringMatcher10toReplacerEv
libicui18n.so.67:_ZNK6icu_6713StringMatcher13addMatchSetToERNS_10UnicodeSetE
libicui18n.so.67:_ZNK6icu_6713StringMatcher17getDynamicClassIDEv
libicui18n.so.67:_ZNK6icu_6713StringMatcher17matchesIndexValueEh
libicui18n.so.67:_ZNK6icu_6713StringMatcher17toReplacerPatternERNS_13UnicodeStringEa
libicui18n.so.67:_ZNK6icu_6713StringMatcher19addReplacementSetToERNS_10UnicodeSetE
libicui18n.so.67:_ZNK6icu_6713StringMatcher5cloneEv
libicui18n.so.67:_ZNK6icu_6713StringMatcher9toMatcherEv
libicui18n.so.67:_ZNK6icu_6713StringMatcher9toPatternERNS_13UnicodeStringEa
libicui18n.so.67:_ZNK6icu_6713StringSegment10startsWithERKNS_10UnicodeSetE
libicui18n.so.67:_ZNK6icu_6713StringSegment10startsWithERKNS_13UnicodeStringE
libicui18n.so.67:_ZNK6icu_6713StringSegment10startsWithEi
libicui18n.so.67:_ZNK6icu_6713StringSegment11codePointAtEi
libicui18n.so.67:_ZNK6icu_6713StringSegment12getCodePointEv
libicui18n.so.67:_ZNK6icu_6713StringSegment15toUnicodeStringEv
libicui18n.so.67:_ZNK6icu_6713StringSegment19toTempUnicodeStringEv
libicui18n.so.67:_ZNK6icu_6713StringSegment6charAtEi
libicui18n.so.67:_ZNK6icu_6713StringSegment6lengthEv
libicui18n.so.67:_ZNK6icu_6713StringSegment9getOffsetEv
libicui18n.so.67:_ZNK6icu_6713StringSegmenteqERKNS_13UnicodeStringE
libicui18n.so.67:_ZNK6icu_6713TZEnumeration17getDynamicClassIDEv
libicui18n.so.67:_ZNK6icu_6713TimeZoneNames14getDisplayNameERKNS_13UnicodeStringE17UTimeZoneNameTypedRS1_
libicui18n.so.67:_ZNK6icu_6713TimeZoneNames15getDisplayNamesERKNS_13UnicodeStringEPK17UTimeZoneNameTypeidPS1_R10UErrorCode
libicui18n.so.67:_ZNK6icu_6713TimeZoneNames19MatchInfoCollection13getNameTypeAtEi
libicui18n.so.67:_ZNK6icu_6713TimeZoneNames19MatchInfoCollection15getMetaZoneIDAtEiRNS_13UnicodeStringE
libicui18n.so.67:_ZNK6icu_6713TimeZoneNames19MatchInfoCollection15getTimeZoneIDAtEiRNS_13UnicodeStringE
libicui18n.so.67:_ZNK6icu_6713TimeZoneNames19MatchInfoCollection16getMatchLengthAtEi
libicui18n.so.67:_ZNK6icu_6713TimeZoneNames19MatchInfoCollection4sizeEv
libicui18n.so.67:_ZNK6icu_6713TimeZoneNames23getExemplarLocationNameERKNS_13UnicodeStringERS1_
libicui18n.so.67:_ZNK6icu_6714CopticCalendar16getJDEpochOffsetEv
libicui18n.so.67:_ZNK6icu_6714CopticCalendar17getDynamicClassIDEv
libicui18n.so.67:_ZNK6icu_6714CopticCalendar19defaultCenturyStartEv
libicui18n.so.67:_ZNK6icu_6714CopticCalendar23defaultCenturyStartYearEv
libicui18n.so.67:_ZNK6icu_6714CopticCalendar5cloneEv
libicui18n.so.67:_ZNK6icu_6714CopticCalendar7getTypeEv
libicui18n.so.67:_ZNK6icu_6714CurrencyAmount17getDynamicClassIDEv
libicui18n.so.67:_ZNK6icu_6714CurrencyAmount5cloneEv
libicui18n.so.67:_ZNK6icu_6714CurrencyFormat11parseObjectERKNS_13UnicodeStringERNS_11FormattableERNS_13ParsePositionE
libicui18n.so.67:_ZNK6icu_6714CurrencyFormat17getDynamicClassIDEv
libicui18n.so.67:_ZNK6icu_6714CurrencyFormat5cloneEv
libicui18n.so.67:_ZNK6icu_6714CurrencyFormat6formatERKNS_11FormattableERNS_13UnicodeStringERNS_13FieldPositionER10UErrorCode
libicui18n.so.67:_ZNK6icu_6714DayPeriodRules22getEndHourForDayPeriodENS0_9DayPeriodER10UErrorCode
libicui18n.so.67:_ZNK6icu_6714DayPeriodRules23getMidPointForDayPeriodENS0_9DayPeriodER10UErrorCode
libicui18n.so.67:_ZNK6icu_6714DayPeriodRules24getStartHourForDayPeriodENS0_9DayPeriodER10UErrorCode
libicui18n.so.67:_ZNK6icu_6714HebrewCalendar14handleGetLimitE19UCalendarDateFieldsNS_8Calendar10ELimitTypeE
libicui18n.so.67:_ZNK6icu_6714HebrewCalendar14inDaylightTimeER10UErrorCode
libicui18n.so.67:_ZNK6icu_6714HebrewCalendar17getDynamicClassIDEv
libicui18n.so.67:_ZNK6icu_6714HebrewCalendar18haveDefaultCenturyEv
libicui18n.so.67:_ZNK6icu_6714HebrewCalendar19defaultCenturyStartEv
libicui18n.so.67:_ZNK6icu_6714HebrewCalendar19handleGetYearLengthEi
libicui18n.so.67:_ZNK6icu_6714HebrewCalendar20handleGetMonthLengthEii
libicui18n.so.67:_ZNK6icu_6714HebrewCalendar23defaultCenturyStartYearEv
libicui18n.so.67:_ZNK6icu_6714HebrewCalendar23handleComputeMonthStartEiia
libicui18n.so.67:_ZNK6icu_6714HebrewCalendar5cloneEv
libicui18n.so.67:_ZNK6icu_6714HebrewCalendar7getTypeEv
libicui18n.so.67:_ZNK6icu_6714HebrewCalendar8yearTypeEi
libicui18n.so.67:_ZNK6icu_6714IndianCalendar14handleGetLimitE19UCalendarDateFieldsNS_8Calendar10ELimitTypeE
libicui18n.so.67:_ZNK6icu_6714IndianCalendar14inDaylightTimeER10UErrorCode
libicui18n.so.67:_ZNK6icu_6714IndianCalendar17getDynamicClassIDEv
libicui18n.so.67:_ZNK6icu_6714IndianCalendar18haveDefaultCenturyEv
libicui18n.so.67:_ZNK6icu_6714IndianCalendar19defaultCenturyStartEv
libicui18n.so.67:_ZNK6icu_6714IndianCalendar19handleGetYearLengthEi
libicui18n.so.67:_ZNK6icu_6714IndianCalendar20handleGetMonthLengthEii
libicui18n.so.67:_ZNK6icu_6714IndianCalendar23defaultCenturyStartYearEv
libicui18n.so.67:_ZNK6icu_6714IndianCalendar23handleComputeMonthStartEiia
libicui18n.so.67:_ZNK6icu_6714IndianCalendar5cloneEv
libicui18n.so.67:_ZNK6icu_6714IndianCalendar7getTypeEv
libicui18n.so.67:_ZNK6icu_6714LocaleCacheKeyINS_14SharedCalendarEE12createObjectEPKvR10UErrorCode
libicui18n.so.67:_ZNK6icu_6714LocaleCacheKeyINS_17SharedPluralRulesEE12createObjectEPKvR10UErrorCode
libicui18n.so.67:_ZNK6icu_6714LocaleCacheKeyINS_18DateFmtBestPatternEE12createObjectEPKvR10UErrorCode
libicui18n.so.67:_ZNK6icu_6714LocaleCacheKeyINS_18SharedNumberFormatEE12createObjectEPKvR10UErrorCode
libicui18n.so.67:_ZNK6icu_6714LocaleCacheKeyINS_19CollationCacheEntryEE12createObjectEPKvR10UErrorCode
libicui18n.so.67:_ZNK6icu_6714LocaleCacheKeyINS_22MeasureFormatCacheDataEE12createObjectEPKvR10UErrorCode
libicui18n.so.67:_ZNK6icu_6714LocaleCacheKeyINS_23SharedDateFormatSymbolsEE12createObjectEPKvR10UErrorCode
libicui18n.so.67:_ZNK6icu_6714LocaleCacheKeyINS_25RelativeDateTimeCacheDataEE12createObjectEPKvR10UErrorCode
libicui18n.so.67:_ZNK6icu_6714NFSubstitution14doSubstitutionEdRNS_13UnicodeStringEiiR10UErrorCode
libicui18n.so.67:_ZNK6icu_6714NFSubstitution14doSubstitutionElRNS_13UnicodeStringEiiR10UErrorCode
libicui18n.so.67:_ZNK6icu_6714NFSubstitution17getDynamicClassIDEv
libicui18n.so.67:_ZNK6icu_6714NFSubstitution21isModulusSubstitutionEv
libicui18n.so.67:_ZNK6icu_6714NFSubstitution7doParseERKNS_13UnicodeStringERNS_13ParsePositionEddajRNS_11FormattableE
libicui18n.so.67:_ZNK6icu_6714NFSubstitution8toStringERNS_13UnicodeStringE
libicui18n.so.67:_ZNK6icu_6714NFSubstitutioneqERKS0_
libicui18n.so.67:_ZNK6icu_6714SearchIterator12getAttributeE16USearchAttribute
libicui18n.so.67:_ZNK6icu_6714SearchIterator14getMatchedTextERNS_13UnicodeStringE
libicui18n.so.67:_ZNK6icu_6714SearchIterator15getMatchedStartEv
libicui18n.so.67:_ZNK6icu_6714SearchIterator16getBreakIteratorEv
libicui18n.so.67:_ZNK6icu_6714SearchIterator16getMatchedLengthEv
libicui18n.so.67:_ZNK6icu_6714SearchIterator7getTextEv
libicui18n.so.67:_ZNK6icu_6714SearchIteratoreqERKS0_
libicui18n.so.67:_ZNK6icu_6714SimpleTimeZone12getRawOffsetEv
libicui18n.so.67:_ZNK6icu_6714SimpleTimeZone12hasSameRulesERKNS_8TimeZoneE
libicui18n.so.67:_ZNK6icu_6714SimpleTimeZone13getDSTSavingsEv
libicui18n.so.67:_ZNK6icu_6714SimpleTimeZone14inDaylightTimeEdR10UErrorCode
libicui18n.so.67:_ZNK6icu_6714SimpleTimeZone15useDaylightTimeEv
libicui18n.so.67:_ZNK6icu_6714SimpleTimeZone16getTimeZoneRulesERPKNS_19InitialTimeZoneRuleEPPKNS_12TimeZoneRuleERiR10UErrorCode
libicui18n.so.67:_ZNK6icu_6714SimpleTimeZone17getDynamicClassIDEv
libicui18n.so.67:_ZNK6icu_6714SimpleTimeZone17getNextTransitionEdaRNS_18TimeZoneTransitionE
libicui18n.so.67:_ZNK6icu_6714SimpleTimeZone18getOffsetFromLocalEdiiRiS1_R10UErrorCode
libicui18n.so.67:_ZNK6icu_6714SimpleTimeZone20checkTransitionRulesER10UErrorCode
libicui18n.so.67:_ZNK6icu_6714SimpleTimeZone20countTransitionRulesER10UErrorCode
libicui18n.so.67:_ZNK6icu_6714SimpleTimeZone21getPreviousTransitionEdaRNS_18TimeZoneTransitionE
libicui18n.so.67:_ZNK6icu_6714SimpleTimeZone5cloneEv
libicui18n.so.67:_ZNK6icu_6714SimpleTimeZone9getOffsetEhiiihiR10UErrorCode
libicui18n.so.67:_ZNK6icu_6714SimpleTimeZone9getOffsetEhiiihiiR10UErrorCode
libicui18n.so.67:_ZNK6icu_6714SimpleTimeZone9getOffsetEhiiihiiiR10UErrorCode
libicui18n.so.67:_ZNK6icu_6714SimpleTimeZoneeqERKNS_8TimeZoneE
libicui18n.so.67:_ZNK6icu_6714SingleUnitImpl5buildER10UErrorCode
libicui18n.so.67:_ZNK6icu_6714SkeletonFields12getFieldCharEi
libicui18n.so.67:_ZNK6icu_6714SkeletonFields12getFirstCharEv
libicui18n.so.67:_ZNK6icu_6714SkeletonFields12isFieldEmptyEi
libicui18n.so.67:_ZNK6icu_6714SkeletonFields13appendFieldToEiRNS_13UnicodeStringE
libicui18n.so.67:_ZNK6icu_6714SkeletonFields14getFieldLengthEi
libicui18n.so.67:_ZNK6icu_6714SkeletonFields8appendToERNS_13UnicodeStringE
libicui18n.so.67:_ZNK6icu_6714StringReplacer10toReplacerEv
libicui18n.so.67:_ZNK6icu_6714StringReplacer17getDynamicClassIDEv
libicui18n.so.67:_ZNK6icu_6714StringReplacer17toReplacerPatternERNS_13UnicodeStringEa
libicui18n.so.67:_ZNK6icu_6714StringReplacer19addReplacementSetToERNS_10UnicodeSetE
libicui18n.so.67:_ZNK6icu_6714StringReplacer5cloneEv
libicui18n.so.67:_ZNK6icu_6714TaiwanCalendar14handleGetLimitE19UCalendarDateFieldsNS_8Calendar10ELimitTypeE
libicui18n.so.67:_ZNK6icu_6714TaiwanCalendar17getDynamicClassIDEv
libicui18n.so.67:_ZNK6icu_6714TaiwanCalendar18haveDefaultCenturyEv
libicui18n.so.67:_ZNK6icu_6714TaiwanCalendar19defaultCenturyStartEv
libicui18n.so.67:_ZNK6icu_6714TaiwanCalendar23defaultCenturyStartYearEv
libicui18n.so.67:_ZNK6icu_6714TaiwanCalendar5cloneEv
libicui18n.so.67:_ZNK6icu_6714TaiwanCalendar7getTypeEv
libicui18n.so.67:_ZNK6icu_6714TimeUnitAmount11getTimeUnitEv
libicui18n.so.67:_ZNK6icu_6714TimeUnitAmount16getTimeUnitFieldEv
libicui18n.so.67:_ZNK6icu_6714TimeUnitAmount17getDynamicClassIDEv
libicui18n.so.67:_ZNK6icu_6714TimeUnitAmount5cloneEv
libicui18n.so.67:_ZNK6icu_6714TimeUnitAmounteqERKNS_7UObjectE
libicui18n.so.67:_ZNK6icu_6714TimeUnitFormat11parseObjectERKNS_13UnicodeStringERNS_11FormattableERNS_13ParsePositionE
libicui18n.so.67:_ZNK6icu_6714TimeUnitFormat17getDynamicClassIDEv
libicui18n.so.67:_ZNK6icu_6714TimeUnitFormat5cloneEv
libicui18n.so.67:_ZNK6icu_6714TimeZoneFormat11parseObjectERKNS_13UnicodeStringERNS_11FormattableERNS_13ParsePositionE
libicui18n.so.67:_ZNK6icu_6714TimeZoneFormat11parseZoneIDERKNS_13UnicodeStringERNS_13ParsePositionERS1_
libicui18n.so.67:_ZNK6icu_6714TimeZoneFormat13formatGenericERKNS_8TimeZoneEidRNS_13UnicodeStringE
libicui18n.so.67:_ZNK6icu_6714TimeZoneFormat13getGMTPatternERNS_13UnicodeStringE
libicui18n.so.67:_ZNK6icu_6714TimeZoneFormat13getTimeZoneIDEPKNS_13TimeZoneNames19MatchInfoCollectionEiRNS_13UnicodeStringE
libicui18n.so.67:_ZNK6icu_6714TimeZoneFormat14formatSpecificERKNS_8TimeZoneE17UTimeZoneNameTypeS4_dRNS_13UnicodeStringEP23UTimeZoneFormatTimeType
libicui18n.so.67:_ZNK6icu_6714TimeZoneFormat16getGMTZeroFormatERNS_13UnicodeStringE
libicui18n.so.67:_ZNK6icu_6714TimeZoneFormat16getTimeZoneNamesEv
libicui18n.so.67:_ZNK6icu_6714TimeZoneFormat16parseShortZoneIDERKNS_13UnicodeStringERNS_13ParsePositionERS1_
libicui18n.so.67:_ZNK6icu_6714TimeZoneFormat17getDynamicClassIDEv
libicui18n.so.67:_ZNK6icu_6714TimeZoneFormat17parseOffsetFieldsERKNS_13UnicodeStringEiaRi
libicui18n.so.67:_ZNK6icu_6714TimeZoneFormat18appendOffsetDigitsERNS_13UnicodeStringEih
libicui18n.so.67:_ZNK6icu_6714TimeZoneFormat18getGMTOffsetDigitsERNS_13UnicodeStringE
libicui18n.so.67:_ZNK6icu_6714TimeZoneFormat18parseOffsetISO8601ERKNS_13UnicodeStringERNS_13ParsePositionE
libicui18n.so.67:_ZNK6icu_6714TimeZoneFormat18parseOffsetISO8601ERKNS_13UnicodeStringERNS_13ParsePositionEaPa
libicui18n.so.67:_ZNK6icu_6714TimeZoneFormat19formatOffsetISO8601EiaaaaRNS_13UnicodeStringER10UErrorCode
libicui18n.so.67:_ZNK6icu_6714TimeZoneFormat19getGMTOffsetPatternE35UTimeZoneFormatGMTOffsetPatternTypeRNS_13UnicodeStringE
libicui18n.so.67:_ZNK6icu_6714TimeZoneFormat20getTZDBTimeZoneNamesER10UErrorCode
libicui18n.so.67:_ZNK6icu_6714TimeZoneFormat21parseExemplarLocationERKNS_13UnicodeStringERNS_13ParsePositionERS1_
libicui18n.so.67:_ZNK6icu_6714TimeZoneFormat22formatExemplarLocationERKNS_8TimeZoneERNS_13UnicodeStringE
libicui18n.so.67:_ZNK6icu_6714TimeZoneFormat22getDefaultParseOptionsEv
libicui18n.so.67:_ZNK6icu_6714TimeZoneFormat23createTimeZoneForOffsetEi
libicui18n.so.67:_ZNK6icu_6714TimeZoneFormat23getTimeZoneGenericNamesER10UErrorCode
libicui18n.so.67:_ZNK6icu_6714TimeZoneFormat23parseOffsetLocalizedGMTERKNS_13UnicodeStringERNS_13ParsePositionE
libicui18n.so.67:_ZNK6icu_6714TimeZoneFormat23parseOffsetLocalizedGMTERKNS_13UnicodeStringERNS_13ParsePositionEaPa
libicui18n.so.67:_ZNK6icu_6714TimeZoneFormat24formatOffsetISO8601BasicEiaaaRNS_13UnicodeStringER10UErrorCode
libicui18n.so.67:_ZNK6icu_6714TimeZoneFormat24formatOffsetLocalizedGMTEiRNS_13UnicodeStringER10UErrorCode
libicui18n.so.67:_ZNK6icu_6714TimeZoneFormat24formatOffsetLocalizedGMTEiaRNS_13UnicodeStringER10UErrorCode
libicui18n.so.67:_ZNK6icu_6714TimeZoneFormat24parseDefaultOffsetFieldsERKNS_13UnicodeStringEiDsRi
libicui18n.so.67:_ZNK6icu_6714TimeZoneFormat25parseAbuttingOffsetFieldsERKNS_13UnicodeStringEiRi
libicui18n.so.67:_ZNK6icu_6714TimeZoneFormat25parseSingleLocalizedDigitERKNS_13UnicodeStringEiRi
libicui18n.so.67:_ZNK6icu_6714TimeZoneFormat27formatOffsetISO8601ExtendedEiaaaRNS_13UnicodeStringER10UErrorCode
libicui18n.so.67:_ZNK6icu_6714TimeZoneFormat28parseOffsetFieldsWithPatternERKNS_13UnicodeStringEiPNS_7UVectorEaRiS6_S6_
libicui18n.so.67:_ZNK6icu_6714TimeZoneFormat28parseOffsetShortLocalizedGMTERKNS_13UnicodeStringERNS_13ParsePositionE
libicui18n.so.67:_ZNK6icu_6714TimeZoneFormat29formatOffsetShortLocalizedGMTEiRNS_13UnicodeStringER10UErrorCode
libicui18n.so.67:_ZNK6icu_6714TimeZoneFormat30parseOffsetDefaultLocalizedGMTERKNS_13UnicodeStringEiRi
libicui18n.so.67:_ZNK6icu_6714TimeZoneFormat30parseOffsetLocalizedGMTPatternERKNS_13UnicodeStringEiaRi
libicui18n.so.67:_ZNK6icu_6714TimeZoneFormat35parseOffsetFieldWithLocalizedDigitsERKNS_13UnicodeStringEihhttRi
libicui18n.so.67:_ZNK6icu_6714TimeZoneFormat5cloneEv
libicui18n.so.67:_ZNK6icu_6714TimeZoneFormat5parseE20UTimeZoneFormatStyleRKNS_13UnicodeStringERNS_13ParsePositionEP23UTimeZoneFormatTimeType
libicui18n.so.67:_ZNK6icu_6714TimeZoneFormat5parseE20UTimeZoneFormatStyleRKNS_13UnicodeStringERNS_13ParsePositionEiP23UTimeZoneFormatTimeType
libicui18n.so.67:_ZNK6icu_6714TimeZoneFormat6formatE20UTimeZoneFormatStyleRKNS_8TimeZoneEdRNS_13UnicodeStringEP23UTimeZoneFormatTimeType
libicui18n.so.67:_ZNK6icu_6714TimeZoneFormat6formatERKNS_11FormattableERNS_13UnicodeStringERNS_13FieldPositionER10UErrorCode
libicui18n.so.67:_ZNK6icu_6714TimeZoneFormateqERKNS_6FormatE
libicui18n.so.67:_ZNK6icu_6714Transliterator10getElementEiR10UErrorCode
libicui18n.so.67:_ZNK6icu_6714Transliterator12getSourceSetERNS_10UnicodeSetE
libicui18n.so.67:_ZNK6icu_6714Transliterator12getTargetSetERNS_10UnicodeSetE
libicui18n.so.67:_ZNK6icu_6714Transliterator13countElementsEv
libicui18n.so.67:_ZNK6icu_6714Transliterator13createInverseER10UErrorCode
libicui18n.so.67:_ZNK6icu_6714Transliterator13transliterateERNS_11ReplaceableE
libicui18n.so.67:_ZNK6icu_6714Transliterator13transliterateERNS_11ReplaceableER14UTransPositionR10UErrorCode
libicui18n.so.67:_ZNK6icu_6714Transliterator13transliterateERNS_11ReplaceableER14UTransPositionRKNS_13UnicodeStringER10UErrorCode
libicui18n.so.67:_ZNK6icu_6714Transliterator13transliterateERNS_11ReplaceableER14UTransPositioniR10UErrorCode
libicui18n.so.67:_ZNK6icu_6714Transliterator13transliterateERNS_11ReplaceableEii
libicui18n.so.67:_ZNK6icu_6714Transliterator14_transliterateERNS_11ReplaceableER14UTransPositionPKNS_13UnicodeStringER10UErrorCode
libicui18n.so.67:_ZNK6icu_6714Transliterator18handleGetSourceSetERNS_10UnicodeSetE
libicui18n.so.67:_ZNK6icu_6714Transliterator21filteredTransliterateERNS_11ReplaceableER14UTransPositiona
libicui18n.so.67:_ZNK6icu_6714Transliterator21filteredTransliterateERNS_11ReplaceableER14UTransPositionaa
libicui18n.so.67:_ZNK6icu_6714Transliterator21finishTransliterationERNS_11ReplaceableER14UTransPosition
libicui18n.so.67:_ZNK6icu_6714Transliterator5cloneEv
libicui18n.so.67:_ZNK6icu_6714Transliterator5getIDEv
libicui18n.so.67:_ZNK6icu_6714Transliterator7toRulesERNS_13UnicodeStringEa
libicui18n.so.67:_ZNK6icu_6714Transliterator9getFilterEv
libicui18n.so.67:_ZNK6icu_6715AlphabeticIndex10initLabelsERNS_7UVectorER10UErrorCode
libicui18n.so.67:_ZNK6icu_6715AlphabeticIndex11getCollatorEv
libicui18n.so.67:_ZNK6icu_6715AlphabeticIndex13getRecordDataEv
libicui18n.so.67:_ZNK6icu_6715AlphabeticIndex13getRecordNameEv
libicui18n.so.67:_ZNK6icu_6715AlphabeticIndex14ImmutableIndex14getBucketCountEv
libicui18n.so.67:_ZNK6icu_6715AlphabeticIndex14ImmutableIndex14getBucketIndexERKNS_13UnicodeStringER10UErrorCode
libicui18n.so.67:_ZNK6icu_6715AlphabeticIndex14ImmutableIndex9getBucketEi
libicui18n.so.67:_ZNK6icu_6715AlphabeticIndex14getBucketIndexEv
libicui18n.so.67:_ZNK6icu_6715AlphabeticIndex14getBucketLabelEv
libicui18n.so.67:_ZNK6icu_6715AlphabeticIndex14getInflowLabelEv
libicui18n.so.67:_ZNK6icu_6715AlphabeticIndex16createBucketListER10UErrorCode
libicui18n.so.67:_ZNK6icu_6715AlphabeticIndex16getMaxLabelCountEv
libicui18n.so.67:_ZNK6icu_6715AlphabeticIndex16getOverflowLabelEv
libicui18n.so.67:_ZNK6icu_6715AlphabeticIndex17getUnderflowLabelEv
libicui18n.so.67:_ZNK6icu_6715AlphabeticIndex18getBucketLabelTypeEv
libicui18n.so.67:_ZNK6icu_6715AlphabeticIndex20getBucketRecordCountEv
libicui18n.so.67:_ZNK6icu_6715AlphabeticIndexeqERKS0_
libicui18n.so.67:_ZNK6icu_6715AlphabeticIndexneERKS0_
libicui18n.so.67:_ZNK6icu_6715CharsetDetector16getStripTagsFlagEv
libicui18n.so.67:_ZNK6icu_6715CharsetDetector19setDeclaredEncodingEPKci
libicui18n.so.67:_ZNK6icu_6715CharsetDetector21getDetectableCharsetsER10UErrorCode
libicui18n.so.67:_ZNK6icu_6715ChineseCalendar11newMoonNearEda
libicui18n.so.67:_ZNK6icu_6715ChineseCalendar12daysToMillisEd
libicui18n.so.67:_ZNK6icu_6715ChineseCalendar12millisToDaysEd
libicui18n.so.67:_ZNK6icu_6715ChineseCalendar14handleGetLimitE19UCalendarDateFieldsNS_8Calendar10ELimitTypeE
libicui18n.so.67:_ZNK6icu_6715ChineseCalendar14inDaylightTimeER10UErrorCode
libicui18n.so.67:_ZNK6icu_6715ChineseCalendar14majorSolarTermEi
libicui18n.so.67:_ZNK6icu_6715ChineseCalendar14winterSolsticeEi
libicui18n.so.67:_ZNK6icu_6715ChineseCalendar17getDynamicClassIDEv
libicui18n.so.67:_ZNK6icu_6715ChineseCalendar18haveDefaultCenturyEv
libicui18n.so.67:_ZNK6icu_6715ChineseCalendar18isLeapMonthBetweenEii
libicui18n.so.67:_ZNK6icu_6715ChineseCalendar19defaultCenturyStartEv
libicui18n.so.67:_ZNK6icu_6715ChineseCalendar19hasNoMajorSolarTermEi
libicui18n.so.67:_ZNK6icu_6715ChineseCalendar20handleGetMonthLengthEii
libicui18n.so.67:_ZNK6icu_6715ChineseCalendar20synodicMonthsBetweenEii
libicui18n.so.67:_ZNK6icu_6715ChineseCalendar23defaultCenturyStartYearEv
libicui18n.so.67:_ZNK6icu_6715ChineseCalendar23getFieldResolutionTableEv
libicui18n.so.67:_ZNK6icu_6715ChineseCalendar23handleComputeMonthStartEiia
libicui18n.so.67:_ZNK6icu_6715ChineseCalendar26getChineseCalZoneAstroCalcEv
libicui18n.so.67:_ZNK6icu_6715ChineseCalendar30internalGetDefaultCenturyStartEv
libicui18n.so.67:_ZNK6icu_6715ChineseCalendar34internalGetDefaultCenturyStartYearEv
libicui18n.so.67:_ZNK6icu_6715ChineseCalendar5cloneEv
libicui18n.so.67:_ZNK6icu_6715ChineseCalendar7getTypeEv
libicui18n.so.67:_ZNK6icu_6715ChineseCalendar7newYearEi
libicui18n.so.67:_ZNK6icu_6715CollationLoader22makeCacheEntryFromRootERKNS_6LocaleER10UErrorCode
libicui18n.so.67:_ZNK6icu_6715CollatorFactory7visibleEv
libicui18n.so.67:_ZNK6icu_6715DateTimeMatcher11getDistanceERKS0_iRNS_12DistanceInfoE
libicui18n.so.67:_ZNK6icu_6715DateTimeMatcher12getFieldMaskEv
libicui18n.so.67:_ZNK6icu_6715DateTimeMatcher6equalsEPKS0_
libicui18n.so.67:_ZNK6icu_6715IslamicCalendar10monthStartEii
libicui18n.so.67:_ZNK6icu_6715IslamicCalendar14handleGetLimitE19UCalendarDateFieldsNS_8Calendar10ELimitTypeE
libicui18n.so.67:_ZNK6icu_6715IslamicCalendar14inDaylightTimeER10UErrorCode
libicui18n.so.67:_ZNK6icu_6715IslamicCalendar14trueMonthStartEi
libicui18n.so.67:_ZNK6icu_6715IslamicCalendar17getDynamicClassIDEv
libicui18n.so.67:_ZNK6icu_6715IslamicCalendar18haveDefaultCenturyEv
libicui18n.so.67:_ZNK6icu_6715IslamicCalendar19defaultCenturyStartEv
libicui18n.so.67:_ZNK6icu_6715IslamicCalendar19handleGetYearLengthEi
libicui18n.so.67:_ZNK6icu_6715IslamicCalendar20handleGetMonthLengthEii
libicui18n.so.67:_ZNK6icu_6715IslamicCalendar23defaultCenturyStartYearEv
libicui18n.so.67:_ZNK6icu_6715IslamicCalendar23handleComputeMonthStartEiia
libicui18n.so.67:_ZNK6icu_6715IslamicCalendar5cloneEv
libicui18n.so.67:_ZNK6icu_6715IslamicCalendar7getTypeEv
libicui18n.so.67:_ZNK6icu_6715IslamicCalendar9yearStartEi
libicui18n.so.67:_ZNK6icu_6715MaybeStackArrayIcLi40EE11getCapacityEv
libicui18n.so.67:_ZNK6icu_6715MaybeStackArrayIcLi40EE13getArrayLimitEv
libicui18n.so.67:_ZNK6icu_6715MaybeStackArrayIcLi40EE8getAliasEv
libicui18n.so.67:_ZNK6icu_6715MaybeStackArrayIcLi40EEixEl
libicui18n.so.67:_ZNK6icu_6715NumberingSystem13isAlgorithmicEv
libicui18n.so.67:_ZNK6icu_6715NumberingSystem14getDescriptionEv
libicui18n.so.67:_ZNK6icu_6715NumberingSystem17getDynamicClassIDEv
libicui18n.so.67:_ZNK6icu_6715NumberingSystem7getNameEv
libicui18n.so.67:_ZNK6icu_6715NumberingSystem8getRadixEv
libicui18n.so.67:_ZNK6icu_6715PersianCalendar10monthStartEii
libicui18n.so.67:_ZNK6icu_6715PersianCalendar14handleGetLimitE19UCalendarDateFieldsNS_8Calendar10ELimitTypeE
libicui18n.so.67:_ZNK6icu_6715PersianCalendar14inDaylightTimeER10UErrorCode
libicui18n.so.67:_ZNK6icu_6715PersianCalendar17getDynamicClassIDEv
libicui18n.so.67:_ZNK6icu_6715PersianCalendar18haveDefaultCenturyEv
libicui18n.so.67:_ZNK6icu_6715PersianCalendar19defaultCenturyStartEv
libicui18n.so.67:_ZNK6icu_6715PersianCalendar19handleGetYearLengthEi
libicui18n.so.67:_ZNK6icu_6715PersianCalendar20handleGetMonthLengthEii
libicui18n.so.67:_ZNK6icu_6715PersianCalendar23defaultCenturyStartYearEv
libicui18n.so.67:_ZNK6icu_6715PersianCalendar23handleComputeMonthStartEiia
libicui18n.so.67:_ZNK6icu_6715PersianCalendar5cloneEv
libicui18n.so.67:_ZNK6icu_6715PersianCalendar7getTypeEv
libicui18n.so.67:_ZNK6icu_6715ReplaceableGlue11getChar32AtEi
libicui18n.so.67:_ZNK6icu_6715ReplaceableGlue14extractBetweenEiiRNS_13UnicodeStringE
libicui18n.so.67:_ZNK6icu_6715ReplaceableGlue17getDynamicClassIDEv
libicui18n.so.67:_ZNK6icu_6715ReplaceableGlue9getCharAtEi
libicui18n.so.67:_ZNK6icu_6715ReplaceableGlue9getLengthEv
libicui18n.so.67:_ZNK6icu_6716BuddhistCalendar14handleGetLimitE19UCalendarDateFieldsNS_8Calendar10ELimitTypeE
libicui18n.so.67:_ZNK6icu_6716BuddhistCalendar17getDynamicClassIDEv
libicui18n.so.67:_ZNK6icu_6716BuddhistCalendar18haveDefaultCenturyEv
libicui18n.so.67:_ZNK6icu_6716BuddhistCalendar19defaultCenturyStartEv
libicui18n.so.67:_ZNK6icu_6716BuddhistCalendar23defaultCenturyStartYearEv
libicui18n.so.67:_ZNK6icu_6716BuddhistCalendar23handleComputeMonthStartEiia
libicui18n.so.67:_ZNK6icu_6716BuddhistCalendar5cloneEv
libicui18n.so.67:_ZNK6icu_6716BuddhistCalendar7getTypeEv
libicui18n.so.67:_ZNK6icu_6716CharsetRecog_euc8nextCharEPNS_12IteratedCharEPNS_9InputTextE
libicui18n.so.67:_ZNK6icu_6716CollationBuilder12ignorePrefixERKNS_13UnicodeStringER10UErrorCode
libicui18n.so.67:_ZNK6icu_6716CollationBuilder12ignoreStringERKNS_13UnicodeStringER10UErrorCode
libicui18n.so.67:_ZNK6icu_6716CollationBuilder14findCommonNodeEii
libicui18n.so.67:_ZNK6icu_6716CollationBuilder24mergeCompositeIntoStringERKNS_13UnicodeStringEiiS3_RS1_S4_R10UErrorCode
libicui18n.so.67:_ZNK6icu_6716CollationBuilder5isFCDERKNS_13UnicodeStringER10UErrorCode
libicui18n.so.67:_ZNK6icu_6716CollationWeights13lengthenRangeERNS0_11WeightRangeE
libicui18n.so.67:_ZNK6icu_6716CollationWeights17incWeightByOffsetEjii
libicui18n.so.67:_ZNK6icu_6716CollationWeights9incWeightEji
libicui18n.so.67:_ZNK6icu_6716DateIntervalInfo15getBestSkeletonERKNS_13UnicodeStringERa
libicui18n.so.67:_ZNK6icu_6716DateIntervalInfo15getDefaultOrderEv
libicui18n.so.67:_ZNK6icu_6716DateIntervalInfo17getDynamicClassIDEv
libicui18n.so.67:_ZNK6icu_6716DateIntervalInfo18getIntervalPatternERKNS_13UnicodeStringE19UCalendarDateFieldsRS1_R10UErrorCode
libicui18n.so.67:_ZNK6icu_6716DateIntervalInfo26getFallbackIntervalPatternERNS_13UnicodeStringE
libicui18n.so.67:_ZNK6icu_6716DateIntervalInfo5cloneEv
libicui18n.so.67:_ZNK6icu_6716DateIntervalInfoeqERKS0_
libicui18n.so.67:_ZNK6icu_6716EthiopicCalendar14handleGetLimitE19UCalendarDateFieldsNS_8Calendar10ELimitTypeE
libicui18n.so.67:_ZNK6icu_6716EthiopicCalendar14isAmeteAlemEraEv
libicui18n.so.67:_ZNK6icu_6716EthiopicCalendar16getJDEpochOffsetEv
libicui18n.so.67:_ZNK6icu_6716EthiopicCalendar17getDynamicClassIDEv
libicui18n.so.67:_ZNK6icu_6716EthiopicCalendar19defaultCenturyStartEv
libicui18n.so.67:_ZNK6icu_6716EthiopicCalendar23defaultCenturyStartYearEv
libicui18n.so.67:_ZNK6icu_6716EthiopicCalendar5cloneEv
libicui18n.so.67:_ZNK6icu_6716EthiopicCalendar7getTypeEv
libicui18n.so.67:_ZNK6icu_6716FunctionReplacer10toReplacerEv
libicui18n.so.67:_ZNK6icu_6716FunctionReplacer17getDynamicClassIDEv
libicui18n.so.67:_ZNK6icu_6716FunctionReplacer17toReplacerPatternERNS_13UnicodeStringEa
libicui18n.so.67:_ZNK6icu_6716FunctionReplacer19addReplacementSetToERNS_10UnicodeSetE
libicui18n.so.67:_ZNK6icu_6716FunctionReplacer5cloneEv
libicui18n.so.67:_ZNK6icu_6716JapaneseCalendar14handleGetLimitE19UCalendarDateFieldsNS_8Calendar10ELimitTypeE
libicui18n.so.67:_ZNK6icu_6716JapaneseCalendar14internalGetEraEv
libicui18n.so.67:_ZNK6icu_6716JapaneseCalendar16getActualMaximumE19UCalendarDateFieldsR10UErrorCode
libicui18n.so.67:_ZNK6icu_6716JapaneseCalendar17getDynamicClassIDEv
libicui18n.so.67:_ZNK6icu_6716JapaneseCalendar18haveDefaultCenturyEv
libicui18n.so.67:_ZNK6icu_6716JapaneseCalendar19defaultCenturyStartEv
libicui18n.so.67:_ZNK6icu_6716JapaneseCalendar23defaultCenturyStartYearEv
libicui18n.so.67:_ZNK6icu_6716JapaneseCalendar5cloneEv
libicui18n.so.67:_ZNK6icu_6716JapaneseCalendar7getTypeEv
libicui18n.so.67:_ZNK6icu_6716LocalizationInfo14indexForLocaleEPKDs
libicui18n.so.67:_ZNK6icu_6716LocalizationInfo15indexForRuleSetEPKDs
libicui18n.so.67:_ZNK6icu_6716LocalizationInfoeqEPKS0_
libicui18n.so.67:_ZNK6icu_6716SimpleDateFormat11countDigitsERKNS_13UnicodeStringEii
libicui18n.so.67:_ZNK6icu_6716SimpleDateFormat11matchStringERKNS_13UnicodeStringEi19UCalendarDateFieldsPS2_iS5_RNS_8CalendarE
libicui18n.so.67:_ZNK6icu_6716SimpleDateFormat14checkIntSuffixERKNS_13UnicodeStringEiia
libicui18n.so.67:_ZNK6icu_6716SimpleDateFormat15getSmpFmtLocaleEv
libicui18n.so.67:_ZNK6icu_6716SimpleDateFormat15skipUWhiteSpaceERKNS_13UnicodeStringEi
libicui18n.so.67:_ZNK6icu_6716SimpleDateFormat17getDynamicClassIDEv
libicui18n.so.67:_ZNK6icu_6716SimpleDateFormat17getTimeZoneFormatEv
libicui18n.so.67:_ZNK6icu_6716SimpleDateFormat17zeroPaddingNumberEPKNS_12NumberFormatERNS_13UnicodeStringEiii
libicui18n.so.67:_ZNK6icu_6716SimpleDateFormat18compareSimpleAffixERKNS_13UnicodeStringES3_i
libicui18n.so.67:_ZNK6icu_6716SimpleDateFormat18isFieldUnitIgnoredE19UCalendarDateFields
libicui18n.so.67:_ZNK6icu_6716SimpleDateFormat18matchQuarterStringERKNS_13UnicodeStringEi19UCalendarDateFieldsPS2_iRNS_8CalendarE
libicui18n.so.67:_ZNK6icu_6716SimpleDateFormat18toLocalizedPatternERNS_13UnicodeStringER10UErrorCode
libicui18n.so.67:_ZNK6icu_6716SimpleDateFormat20getDateFormatSymbolsEv
libicui18n.so.67:_ZNK6icu_6716SimpleDateFormat21matchDayPeriodStringsERKNS_13UnicodeStringEiPS2_iRi
libicui18n.so.67:_ZNK6icu_6716SimpleDateFormat21skipPatternWhiteSpaceERKNS_13UnicodeStringEi
libicui18n.so.67:_ZNK6icu_6716SimpleDateFormat22getNumberFormatByIndexE16UDateFormatField
libicui18n.so.67:_ZNK6icu_6716SimpleDateFormat23getNumberFormatForFieldEDs
libicui18n.so.67:_ZNK6icu_6716SimpleDateFormat5cloneEv
libicui18n.so.67:_ZNK6icu_6716SimpleDateFormat5parseERKNS_13UnicodeStringERNS_8CalendarERNS_13ParsePositionE
libicui18n.so.67:_ZNK6icu_6716SimpleDateFormat6formatERNS_8CalendarERNS_13UnicodeStringEPNS_21FieldPositionIteratorER10UErrorCode
libicui18n.so.67:_ZNK6icu_6716SimpleDateFormat6formatERNS_8CalendarERNS_13UnicodeStringERNS_13FieldPositionE
libicui18n.so.67:_ZNK6icu_6716SimpleDateFormat7_formatERNS_8CalendarERNS_13UnicodeStringERNS_20FieldPositionHandlerER10UErrorCode
libicui18n.so.67:_ZNK6icu_6716SimpleDateFormat8parseIntERKNS_13UnicodeStringERNS_11FormattableERNS_13ParsePositionEaPKNS_12NumberFormatE
libicui18n.so.67:_ZNK6icu_6716SimpleDateFormat8parseIntERKNS_13UnicodeStringERNS_11FormattableEiRNS_13ParsePositionEaPKNS_12NumberFormatE
libicui18n.so.67:_ZNK6icu_6716SimpleDateFormat8subParseERKNS_13UnicodeStringERiDsiaaPaS4_RNS_8CalendarEiPNS_13MessageFormatEP23UTimeZoneFormatTimeTypePi
libicui18n.so.67:_ZNK6icu_6716SimpleDateFormat8tzFormatER10UErrorCode
libicui18n.so.67:_ZNK6icu_6716SimpleDateFormat9subFormatERNS_13UnicodeStringEDsi15UDisplayContextiDsRNS_20FieldPositionHandlerERNS_8CalendarER10UErrorCode
libicui18n.so.67:_ZNK6icu_6716SimpleDateFormat9toPatternERNS_13UnicodeStringE
libicui18n.so.67:_ZNK6icu_6716SimpleDateFormateqERKNS_6FormatE
libicui18n.so.67:_ZNK6icu_6717AnyTransliterator17getDynamicClassIDEv
libicui18n.so.67:_ZNK6icu_6717AnyTransliterator17getTransliteratorE11UScriptCode
libicui18n.so.67:_ZNK6icu_6717AnyTransliterator19handleTransliterateERNS_11ReplaceableER14UTransPositiona
libicui18n.so.67:_ZNK6icu_6717AnyTransliterator5cloneEv
libicui18n.so.67:_ZNK6icu_6717CharsetRecog_202210match_2022EPKhiPA5_S1_i
libicui18n.so.67:_ZNK6icu_6717CharsetRecog_UTF85matchEPNS_9InputTextEPNS_12CharsetMatchE
libicui18n.so.67:_ZNK6icu_6717CharsetRecog_UTF87getNameEv
libicui18n.so.67:_ZNK6icu_6717CharsetRecog_big511getLanguageEv
libicui18n.so.67:_ZNK6icu_6717CharsetRecog_big55matchEPNS_9InputTextEPNS_12CharsetMatchE
libicui18n.so.67:_ZNK6icu_6717CharsetRecog_big57getNameEv
libicui18n.so.67:_ZNK6icu_6717CharsetRecog_big58nextCharEPNS_12IteratedCharEPNS_9InputTextE
libicui18n.so.67:_ZNK6icu_6717CharsetRecog_mbcs10match_mbcsEPNS_9InputTextEPKti
libicui18n.so.67:_ZNK6icu_6717CharsetRecog_sbcs10match_sbcsEPNS_9InputTextEPKiPKh
libicui18n.so.67:_ZNK6icu_6717CharsetRecog_sjis11getLanguageEv
libicui18n.so.67:_ZNK6icu_6717CharsetRecog_sjis5matchEPNS_9InputTextEPNS_12CharsetMatchE
libicui18n.so.67:_ZNK6icu_6717CharsetRecog_sjis7getNameEv
libicui18n.so.67:_ZNK6icu_6717CharsetRecog_sjis8nextCharEPNS_12IteratedCharEPNS_9InputTextE
libicui18n.so.67:_ZNK6icu_6717CharsetRecognizer11getLanguageEv
libicui18n.so.67:_ZNK6icu_6717CollationIterator11getDataCE32Ei
libicui18n.so.67:_ZNK6icu_6717CollationIterator25forbidSurrogateCodePointsEv
libicui18n.so.67:_ZNK6icu_6717CollationIteratoreqERKS0_
libicui18n.so.67:_ZNK6icu_6717CollationSettings8hashCodeEv
libicui18n.so.67:_ZNK6icu_6717CollationSettings9reorderExEj
libicui18n.so.67:_ZNK6icu_6717CollationSettingseqERKS0_
libicui18n.so.67:_ZNK6icu_6717DateFormatSymbols11getEraNamesERi
libicui18n.so.67:_ZNK6icu_6717DateFormatSymbols11getQuartersERiNS0_13DtContextTypeENS0_11DtWidthTypeE
libicui18n.so.67:_ZNK6icu_6717DateFormatSymbols11getWeekdaysERi
libicui18n.so.67:_ZNK6icu_6717DateFormatSymbols11getWeekdaysERiNS0_13DtContextTypeENS0_11DtWidthTypeE
libicui18n.so.67:_ZNK6icu_6717DateFormatSymbols12getYearNamesERiNS0_13DtContextTypeENS0_11DtWidthTypeE
libicui18n.so.67:_ZNK6icu_6717DateFormatSymbols13getNarrowErasERi
libicui18n.so.67:_ZNK6icu_6717DateFormatSymbols14getAmPmStringsERi
libicui18n.so.67:_ZNK6icu_6717DateFormatSymbols14getShortMonthsERi
libicui18n.so.67:_ZNK6icu_6717DateFormatSymbols14getZodiacNamesERiNS0_13DtContextTypeENS0_11DtWidthTypeE
libicui18n.so.67:_ZNK6icu_6717DateFormatSymbols14getZoneStringsERiS1_
libicui18n.so.67:_ZNK6icu_6717DateFormatSymbols16getShortWeekdaysERi
libicui18n.so.67:_ZNK6icu_6717DateFormatSymbols17getDynamicClassIDEv
libicui18n.so.67:_ZNK6icu_6717DateFormatSymbols20getLeapMonthPatternsERi
libicui18n.so.67:_ZNK6icu_6717DateFormatSymbols20getLocalPatternCharsERNS_13UnicodeStringE
libicui18n.so.67:_ZNK6icu_6717DateFormatSymbols22getTimeSeparatorStringERNS_13UnicodeStringE
libicui18n.so.67:_ZNK6icu_6717DateFormatSymbols7getErasERi
libicui18n.so.67:_ZNK6icu_6717DateFormatSymbols9getLocaleE18ULocDataLocaleTypeR10UErrorCode
libicui18n.so.67:_ZNK6icu_6717DateFormatSymbols9getMonthsERi
libicui18n.so.67:_ZNK6icu_6717DateFormatSymbols9getMonthsERiNS0_13DtContextTypeENS0_11DtWidthTypeE
libicui18n.so.67:_ZNK6icu_6717DateFormatSymbolseqERKS0_
libicui18n.so.67:_ZNK6icu_6717GregorianCalendar10isLeapYearEi
libicui18n.so.67:_ZNK6icu_6717GregorianCalendar10yearLengthEi
libicui18n.so.67:_ZNK6icu_6717GregorianCalendar10yearLengthEv
libicui18n.so.67:_ZNK6icu_6717GregorianCalendar11boundsCheckEi19UCalendarDateFields
libicui18n.so.67:_ZNK6icu_6717GregorianCalendar11monthLengthEi
libicui18n.so.67:_ZNK6icu_6717GregorianCalendar11monthLengthEii
libicui18n.so.67:_ZNK6icu_6717GregorianCalendar14handleGetLimitE19UCalendarDateFieldsNS_8Calendar10ELimitTypeE
libicui18n.so.67:_ZNK6icu_6717GregorianCalendar14inDaylightTimeER10UErrorCode
libicui18n.so.67:_ZNK6icu_6717GregorianCalendar14internalGetEraEv
libicui18n.so.67:_ZNK6icu_6717GregorianCalendar14isEquivalentToERKNS_8CalendarE
libicui18n.so.67:_ZNK6icu_6717GregorianCalendar14validateFieldsEv
libicui18n.so.67:_ZNK6icu_6717GregorianCalendar16getActualMaximumE19UCalendarDateFieldsR10UErrorCode
libicui18n.so.67:_ZNK6icu_6717GregorianCalendar16getActualMinimumE19UCalendarDateFieldsR10UErrorCode
libicui18n.so.67:_ZNK6icu_6717GregorianCalendar16getActualMinimumENS_8Calendar11EDateFieldsE
libicui18n.so.67:_ZNK6icu_6717GregorianCalendar16getActualMinimumENS_8Calendar11EDateFieldsER10UErrorCode
libicui18n.so.67:_ZNK6icu_6717GregorianCalendar17getDynamicClassIDEv
libicui18n.so.67:_ZNK6icu_6717GregorianCalendar18getGregorianChangeEv
libicui18n.so.67:_ZNK6icu_6717GregorianCalendar18haveDefaultCenturyEv
libicui18n.so.67:_ZNK6icu_6717GregorianCalendar19defaultCenturyStartEv
libicui18n.so.67:_ZNK6icu_6717GregorianCalendar19handleGetYearLengthEi
libicui18n.so.67:_ZNK6icu_6717GregorianCalendar20handleGetMonthLengthEii
libicui18n.so.67:_ZNK6icu_6717GregorianCalendar23defaultCenturyStartYearEv
libicui18n.so.67:_ZNK6icu_6717GregorianCalendar23handleComputeMonthStartEiia
libicui18n.so.67:_ZNK6icu_6717GregorianCalendar5cloneEv
libicui18n.so.67:_ZNK6icu_6717GregorianCalendar7getTypeEv
libicui18n.so.67:_ZNK6icu_6717QuantityFormatter12getByVariantEPKc
libicui18n.so.67:_ZNK6icu_6717QuantityFormatter6formatERKNS_11FormattableERKNS_12NumberFormatERKNS_11PluralRulesERNS_13UnicodeStringERNS_13FieldPositionER10UErrorCode
libicui18n.so.67:_ZNK6icu_6717QuantityFormatter7isValidEv
libicui18n.so.67:_ZNK6icu_6717RuleBasedCollator10getSortKeyEPKDsiPhi
libicui18n.so.67:_ZNK6icu_6717RuleBasedCollator10getSortKeyERKNS_13UnicodeStringEPhi
libicui18n.so.67:_ZNK6icu_6717RuleBasedCollator10getVersionEPh
libicui18n.so.67:_ZNK6icu_6717RuleBasedCollator11cloneBinaryEPhiR10UErrorCode
libicui18n.so.67:_ZNK6icu_6717RuleBasedCollator11compareUTF8ERKNS_11StringPieceES3_R10UErrorCode
libicui18n.so.67:_ZNK6icu_6717RuleBasedCollator12getAttributeE13UColAttributeR10UErrorCode
libicui18n.so.67:_ZNK6icu_6717RuleBasedCollator12writeSortKeyEPKDsiRNS_15SortKeyByteSinkER10UErrorCode
libicui18n.so.67:_ZNK6icu_6717RuleBasedCollator13cloneRuleDataERiR10UErrorCode
libicui18n.so.67:_ZNK6icu_6717RuleBasedCollator14getMaxVariableEv
libicui18n.so.67:_ZNK6icu_6717RuleBasedCollator14getTailoredSetER10UErrorCode
libicui18n.so.67:_ZNK6icu_6717RuleBasedCollator14getVariableTopER10UErrorCode
libicui18n.so.67:_ZNK6icu_6717RuleBasedCollator14internalGetCEsERKNS_13UnicodeStringERNS_9UVector64ER10UErrorCode
libicui18n.so.67:_ZNK6icu_6717RuleBasedCollator15getCollationKeyEPKDsiRNS_12CollationKeyER10UErrorCode
libicui18n.so.67:_ZNK6icu_6717RuleBasedCollator15getCollationKeyERKNS_13UnicodeStringERNS_12CollationKeyER10UErrorCode
libicui18n.so.67:_ZNK6icu_6717RuleBasedCollator15getMaxExpansionEi
libicui18n.so.67:_ZNK6icu_6717RuleBasedCollator15getReorderCodesEPiiR10UErrorCode
libicui18n.so.67:_ZNK6icu_6717RuleBasedCollator17getDynamicClassIDEv
libicui18n.so.67:_ZNK6icu_6717RuleBasedCollator17initMaxExpansionsER10UErrorCode
libicui18n.so.67:_ZNK6icu_6717RuleBasedCollator18getDefaultSettingsEv
libicui18n.so.67:_ZNK6icu_6717RuleBasedCollator19internalCompareUTF8EPKciS2_iR10UErrorCode
libicui18n.so.67:_ZNK6icu_6717RuleBasedCollator19internalGetLocaleIDE18ULocDataLocaleTypeR10UErrorCode
libicui18n.so.67:_ZNK6icu_6717RuleBasedCollator19setFastLatinOptionsERNS_17CollationSettingsE
libicui18n.so.67:_ZNK6icu_6717RuleBasedCollator19writeIdenticalLevelEPKDsS2_RNS_15SortKeyByteSinkER10UErrorCode
libicui18n.so.67:_ZNK6icu_6717RuleBasedCollator23internalAddContractionsEiRNS_10UnicodeSetER10UErrorCode
libicui18n.so.67:_ZNK6icu_6717RuleBasedCollator23internalNextSortKeyPartEP13UCharIteratorPjPhiR10UErrorCode
libicui18n.so.67:_ZNK6icu_6717RuleBasedCollator30createCollationElementIteratorERKNS_13UnicodeStringE
libicui18n.so.67:_ZNK6icu_6717RuleBasedCollator30createCollationElementIteratorERKNS_17CharacterIteratorE
libicui18n.so.67:_ZNK6icu_6717RuleBasedCollator32internalGetShortDefinitionStringEPKcPciR10UErrorCode
libicui18n.so.67:_ZNK6icu_6717RuleBasedCollator36internalGetContractionsAndExpansionsEPNS_10UnicodeSetES2_aR10UErrorCode
libicui18n.so.67:_ZNK6icu_6717RuleBasedCollator5cloneEv
libicui18n.so.67:_ZNK6icu_6717RuleBasedCollator7compareEPKDsiS2_iR10UErrorCode
libicui18n.so.67:_ZNK6icu_6717RuleBasedCollator7compareER13UCharIteratorS2_R10UErrorCode
libicui18n.so.67:_ZNK6icu_6717RuleBasedCollator7compareERKNS_13UnicodeStringES3_R10UErrorCode
libicui18n.so.67:_ZNK6icu_6717RuleBasedCollator7compareERKNS_13UnicodeStringES3_iR10UErrorCode
libicui18n.so.67:_ZNK6icu_6717RuleBasedCollator8getRulesE14UColRuleOptionRNS_13UnicodeStringE
libicui18n.so.67:_ZNK6icu_6717RuleBasedCollator8getRulesEv
libicui18n.so.67:_ZNK6icu_6717RuleBasedCollator8hashCodeEv
libicui18n.so.67:_ZNK6icu_6717RuleBasedCollator8isUnsafeEi
libicui18n.so.67:_ZNK6icu_6717RuleBasedCollator9doCompareEPKDsiS2_iR10UErrorCode
libicui18n.so.67:_ZNK6icu_6717RuleBasedCollator9doCompareEPKhiS2_iR10UErrorCode
libicui18n.so.67:_ZNK6icu_6717RuleBasedCollator9getLocaleE18ULocDataLocaleTypeR10UErrorCode
libicui18n.so.67:_ZNK6icu_6717RuleBasedCollatoreqERKNS_8CollatorE
libicui18n.so.67:_ZNK6icu_6717RuleBasedTimeZone12getRawOffsetEv
libicui18n.so.67:_ZNK6icu_6717RuleBasedTimeZone12hasSameRulesERKNS_8TimeZoneE
libicui18n.so.67:_ZNK6icu_6717RuleBasedTimeZone13completeConstER10UErrorCode
libicui18n.so.67:_ZNK6icu_6717RuleBasedTimeZone13getLocalDeltaEiiiiii
libicui18n.so.67:_ZNK6icu_6717RuleBasedTimeZone14inDaylightTimeEdR10UErrorCode
libicui18n.so.67:_ZNK6icu_6717RuleBasedTimeZone15findRuleInFinalEdaii
libicui18n.so.67:_ZNK6icu_6717RuleBasedTimeZone15useDaylightTimeEv
libicui18n.so.67:_ZNK6icu_6717RuleBasedTimeZone16getTimeZoneRulesERPKNS_19InitialTimeZoneRuleEPPKNS_12TimeZoneRuleERiR10UErrorCode
libicui18n.so.67:_ZNK6icu_6717RuleBasedTimeZone17getDynamicClassIDEv
libicui18n.so.67:_ZNK6icu_6717RuleBasedTimeZone17getNextTransitionEdaRNS_18TimeZoneTransitionE
libicui18n.so.67:_ZNK6icu_6717RuleBasedTimeZone17getOffsetInternalEdaiiRiS1_R10UErrorCode
libicui18n.so.67:_ZNK6icu_6717RuleBasedTimeZone17getTransitionTimeEPNS_10TransitionEaii
libicui18n.so.67:_ZNK6icu_6717RuleBasedTimeZone18getOffsetFromLocalEdiiRiS1_R10UErrorCode
libicui18n.so.67:_ZNK6icu_6717RuleBasedTimeZone20countTransitionRulesER10UErrorCode
libicui18n.so.67:_ZNK6icu_6717RuleBasedTimeZone21getPreviousTransitionEdaRNS_18TimeZoneTransitionE
libicui18n.so.67:_ZNK6icu_6717RuleBasedTimeZone5cloneEv
libicui18n.so.67:_ZNK6icu_6717RuleBasedTimeZone8findNextEdaRdRPNS_12TimeZoneRuleES4_
libicui18n.so.67:_ZNK6icu_6717RuleBasedTimeZone8findPrevEdaRdRPNS_12TimeZoneRuleES4_
libicui18n.so.67:_ZNK6icu_6717RuleBasedTimeZone9getOffsetEdaRiS1_R10UErrorCode
libicui18n.so.67:_ZNK6icu_6717RuleBasedTimeZone9getOffsetEhiiihiR10UErrorCode
libicui18n.so.67:_ZNK6icu_6717RuleBasedTimeZone9getOffsetEhiiihiiR10UErrorCode
libicui18n.so.67:_ZNK6icu_6717RuleBasedTimeZoneeqERKNS_8TimeZoneE
libicui18n.so.67:_ZNK6icu_6717RuleBasedTimeZoneneERKNS_8TimeZoneE
libicui18n.so.67:_ZNK6icu_6717TZDBTimeZoneNames13getMetaZoneIDERKNS_13UnicodeStringEdRS1_
libicui18n.so.67:_ZNK6icu_6717TZDBTimeZoneNames18getReferenceZoneIDERKNS_13UnicodeStringEPKcRS1_
libicui18n.so.67:_ZNK6icu_6717TZDBTimeZoneNames22getMetaZoneDisplayNameERKNS_13UnicodeStringE17UTimeZoneNameTypeRS1_
libicui18n.so.67:_ZNK6icu_6717TZDBTimeZoneNames22getTimeZoneDisplayNameERKNS_13UnicodeStringE17UTimeZoneNameTypeRS1_
libicui18n.so.67:_ZNK6icu_6717TZDBTimeZoneNames23getAvailableMetaZoneIDsER10UErrorCode
libicui18n.so.67:_ZNK6icu_6717TZDBTimeZoneNames23getAvailableMetaZoneIDsERKNS_13UnicodeStringER10UErrorCode
libicui18n.so.67:_ZNK6icu_6717TZDBTimeZoneNames4findERKNS_13UnicodeStringEijR10UErrorCode
libicui18n.so.67:_ZNK6icu_6717TZDBTimeZoneNames5cloneEv
libicui18n.so.67:_ZNK6icu_6717TZDBTimeZoneNameseqERKNS_13TimeZoneNamesE
libicui18n.so.67:_ZNK6icu_6717TimeZoneNamesImpl13getMetaZoneIDERKNS_13UnicodeStringEdRS1_
libicui18n.so.67:_ZNK6icu_6717TimeZoneNamesImpl15getDisplayNamesERKNS_13UnicodeStringEPK17UTimeZoneNameTypeidPS1_R10UErrorCode
libicui18n.so.67:_ZNK6icu_6717TimeZoneNamesImpl18getReferenceZoneIDERKNS_13UnicodeStringEPKcRS1_
libicui18n.so.67:_ZNK6icu_6717TimeZoneNamesImpl22getMetaZoneDisplayNameERKNS_13UnicodeStringE17UTimeZoneNameTypeRS1_
libicui18n.so.67:_ZNK6icu_6717TimeZoneNamesImpl22getTimeZoneDisplayNameERKNS_13UnicodeStringE17UTimeZoneNameTypeRS1_
libicui18n.so.67:_ZNK6icu_6717TimeZoneNamesImpl23getAvailableMetaZoneIDsER10UErrorCode
libicui18n.so.67:_ZNK6icu_6717TimeZoneNamesImpl23getAvailableMetaZoneIDsERKNS_13UnicodeStringER10UErrorCode
libicui18n.so.67:_ZNK6icu_6717TimeZoneNamesImpl23getExemplarLocationNameERKNS_13UnicodeStringERS1_
libicui18n.so.67:_ZNK6icu_6717TimeZoneNamesImpl4findERKNS_13UnicodeStringEijR10UErrorCode
libicui18n.so.67:_ZNK6icu_6717TimeZoneNamesImpl5cloneEv
libicui18n.so.67:_ZNK6icu_6717TimeZoneNamesImpl6doFindERNS_18ZNameSearchHandlerERKNS_13UnicodeStringEiR10UErrorCode
libicui18n.so.67:_ZNK6icu_6717TimeZoneNamesImpleqERKNS_13TimeZoneNamesE
libicui18n.so.67:_ZNK6icu_6717double_conversion23StringToDoubleConverter13StringToFloatEPKciPi
libicui18n.so.67:_ZNK6icu_6717double_conversion23StringToDoubleConverter13StringToFloatEPKtiPi
libicui18n.so.67:_ZNK6icu_6717double_conversion23StringToDoubleConverter14StringToDoubleEPKciPi
libicui18n.so.67:_ZNK6icu_6717double_conversion23StringToDoubleConverter14StringToDoubleEPKtiPi
libicui18n.so.67:_ZNK6icu_6717double_conversion6Bignum11BigitOrZeroEi
libicui18n.so.67:_ZNK6icu_6717double_conversion6Bignum11ToHexStringEPci
libicui18n.so.67:_ZNK6icu_6717double_conversion6Bignum8RawBigitEi
libicui18n.so.67:_ZNK6icu_6718AnnualTimeZoneRule10getEndYearEv
libicui18n.so.67:_ZNK6icu_6718AnnualTimeZoneRule12getNextStartEdiiaRd
libicui18n.so.67:_ZNK6icu_6718AnnualTimeZoneRule12getStartYearEv
libicui18n.so.67:_ZNK6icu_6718AnnualTimeZoneRule13getFinalStartEiiRd
libicui18n.so.67:_ZNK6icu_6718AnnualTimeZoneRule13getFirstStartEiiRd
libicui18n.so.67:_ZNK6icu_6718AnnualTimeZoneRule14getStartInYearEiiiRd
libicui18n.so.67:_ZNK6icu_6718AnnualTimeZoneRule14isEquivalentToERKNS_12TimeZoneRuleE
libicui18n.so.67:_ZNK6icu_6718AnnualTimeZoneRule16getPreviousStartEdiiaRd
libicui18n.so.67:_ZNK6icu_6718AnnualTimeZoneRule17getDynamicClassIDEv
libicui18n.so.67:_ZNK6icu_6718AnnualTimeZoneRule5cloneEv
libicui18n.so.67:_ZNK6icu_6718AnnualTimeZoneRule7getRuleEv
libicui18n.so.67:_ZNK6icu_6718AnnualTimeZoneRuleeqERKNS_12TimeZoneRuleE
libicui18n.so.67:_ZNK6icu_6718AnnualTimeZoneRuleneERKNS_12TimeZoneRuleE
libicui18n.so.67:_ZNK6icu_6718CalendarAstronomer10Equatorial8toStringEv
libicui18n.so.67:_ZNK6icu_6718CalendarAstronomer7Horizon8toStringEv
libicui18n.so.67:_ZNK6icu_6718CalendarAstronomer8Ecliptic8toStringEv
libicui18n.so.67:_ZNK6icu_6718CollationTailoring13getUCAVersionEv
libicui18n.so.67:_ZNK6icu_6718CurrencyPluralInfo14getPluralRulesEv
libicui18n.so.67:_ZNK6icu_6718CurrencyPluralInfo17getDynamicClassIDEv
libicui18n.so.67:_ZNK6icu_6718CurrencyPluralInfo24getCurrencyPluralPatternERKNS_13UnicodeStringERS1_
libicui18n.so.67:_ZNK6icu_6718CurrencyPluralInfo5cloneEv
libicui18n.so.67:_ZNK6icu_6718CurrencyPluralInfo9getLocaleEv
libicui18n.so.67:_ZNK6icu_6718CurrencyPluralInfoeqERKS0_
libicui18n.so.67:_ZNK6icu_6718DateIntervalFormat10formatImplERNS_8CalendarES2_RNS_13UnicodeStringERaRNS_20FieldPositionHandlerER10UErrorCode
libicui18n.so.67:_ZNK6icu_6718DateIntervalFormat11getTimeZoneEv
libicui18n.so.67:_ZNK6icu_6718DateIntervalFormat11parseObjectERKNS_13UnicodeStringERNS_11FormattableERNS_13ParsePositionE
libicui18n.so.67:_ZNK6icu_6718DateIntervalFormat13formatToValueERKNS_12DateIntervalER10UErrorCode
libicui18n.so.67:_ZNK6icu_6718DateIntervalFormat13formatToValueERNS_8CalendarES2_R10UErrorCode
libicui18n.so.67:_ZNK6icu_6718DateIntervalFormat13getDateFormatEv
libicui18n.so.67:_ZNK6icu_6718DateIntervalFormat14fallbackFormatERNS_8CalendarES2_aRNS_13UnicodeStringERaRNS_20FieldPositionHandlerER10UErrorCode
libicui18n.so.67:_ZNK6icu_6718DateIntervalFormat17getDynamicClassIDEv
libicui18n.so.67:_ZNK6icu_6718DateIntervalFormat18formatIntervalImplERKNS_12DateIntervalERNS_13UnicodeStringERaRNS_20FieldPositionHandlerER10UErrorCode
libicui18n.so.67:_ZNK6icu_6718DateIntervalFormat19fallbackFormatRangeERNS_8CalendarES2_RNS_13UnicodeStringERaRNS_20FieldPositionHandlerER10UErrorCode
libicui18n.so.67:_ZNK6icu_6718DateIntervalFormat19getDateIntervalInfoEv
libicui18n.so.67:_ZNK6icu_6718DateIntervalFormat5cloneEv
libicui18n.so.67:_ZNK6icu_6718DateIntervalFormat6formatEPKNS_12DateIntervalERNS_13UnicodeStringERNS_13FieldPositionER10UErrorCode
libicui18n.so.67:_ZNK6icu_6718DateIntervalFormat6formatERKNS_11FormattableERNS_13UnicodeStringERNS_13FieldPositionER10UErrorCode
libicui18n.so.67:_ZNK6icu_6718DateIntervalFormat6formatERNS_8CalendarES2_RNS_13UnicodeStringERNS_13FieldPositionER10UErrorCode
libicui18n.so.67:_ZNK6icu_6718DateIntervalFormateqERKNS_6FormatE
libicui18n.so.67:_ZNK6icu_6718ICUCollatorFactory6createERKNS_13ICUServiceKeyEPKNS_10ICUServiceER10UErrorCode
libicui18n.so.67:_ZNK6icu_6718NullTransliterator17getDynamicClassIDEv
libicui18n.so.67:_ZNK6icu_6718NullTransliterator19handleTransliterateERNS_11ReplaceableER14UTransPositiona
libicui18n.so.67:_ZNK6icu_6718NullTransliterator5cloneEv
libicui18n.so.67:_ZNK6icu_6718PatternMapIterator11getSkeletonEv
libicui18n.so.67:_ZNK6icu_6718PatternMapIterator7hasNextEv
libicui18n.so.67:_ZNK6icu_6718RelativeDateFormat13toPatternDateERNS_13UnicodeStringER10UErrorCode
libicui18n.so.67:_ZNK6icu_6718RelativeDateFormat13toPatternTimeERNS_13UnicodeStringER10UErrorCode
libicui18n.so.67:_ZNK6icu_6718RelativeDateFormat15getStringForDayEiRiR10UErrorCode
libicui18n.so.67:_ZNK6icu_6718RelativeDateFormat17getDynamicClassIDEv
libicui18n.so.67:_ZNK6icu_6718RelativeDateFormat20getDateFormatSymbolsEv
libicui18n.so.67:_ZNK6icu_6718RelativeDateFormat5cloneEv
libicui18n.so.67:_ZNK6icu_6718RelativeDateFormat5parseERKNS_13UnicodeStringER10UErrorCode
libicui18n.so.67:_ZNK6icu_6718RelativeDateFormat5parseERKNS_13UnicodeStringERNS_13ParsePositionE
libicui18n.so.67:_ZNK6icu_6718RelativeDateFormat5parseERKNS_13UnicodeStringERNS_8CalendarERNS_13ParsePositionE
libicui18n.so.67:_ZNK6icu_6718RelativeDateFormat6formatERKNS_11FormattableERNS_13UnicodeStringERNS_13FieldPositionER10UErrorCode
libicui18n.so.67:_ZNK6icu_6718RelativeDateFormat6formatERNS_8CalendarERNS_13UnicodeStringERNS_13FieldPositionE
libicui18n.so.67:_ZNK6icu_6718RelativeDateFormat9toPatternERNS_13UnicodeStringER10UErrorCode
libicui18n.so.67:_ZNK6icu_6718RelativeDateFormateqERKNS_6FormatE
libicui18n.so.67:_ZNK6icu_6718TimeZoneTransition17getDynamicClassIDEv
libicui18n.so.67:_ZNK6icu_6718TimeZoneTransition5cloneEv
libicui18n.so.67:_ZNK6icu_6718TimeZoneTransition5getToEv
libicui18n.so.67:_ZNK6icu_6718TimeZoneTransition7getFromEv
libicui18n.so.67:_ZNK6icu_6718TimeZoneTransition7getTimeEv
libicui18n.so.67:_ZNK6icu_6718TimeZoneTransitioneqERKS0_
libicui18n.so.67:_ZNK6icu_6718TimeZoneTransitionneERKS0_
libicui18n.so.67:_ZNK6icu_6718TransliteratorSpec11hasFallbackEv
libicui18n.so.67:_ZNK6icu_6718TransliteratorSpec3getEv
libicui18n.so.67:_ZNK6icu_6718TransliteratorSpec8isLocaleEv
libicui18n.so.67:_ZNK6icu_6718TransliteratorSpec9getBundleEv
libicui18n.so.67:_ZNK6icu_6719BreakTransliterator12getInsertionEv
libicui18n.so.67:_ZNK6icu_6719BreakTransliterator17getDynamicClassIDEv
libicui18n.so.67:_ZNK6icu_6719BreakTransliterator19handleTransliterateERNS_11ReplaceableER14UTransPositiona
libicui18n.so.67:_ZNK6icu_6719BreakTransliterator5cloneEv
libicui18n.so.67:_ZNK6icu_6719CharsetRecog_2022CN5matchEPNS_9InputTextEPNS_12CharsetMatchE
libicui18n.so.67:_ZNK6icu_6719CharsetRecog_2022CN7getNameEv
libicui18n.so.67:_ZNK6icu_6719CharsetRecog_2022JP5matchEPNS_9InputTextEPNS_12CharsetMatchE
libicui18n.so.67:_ZNK6icu_6719CharsetRecog_2022JP7getNameEv
libicui18n.so.67:_ZNK6icu_6719CharsetRecog_2022KR5matchEPNS_9InputTextEPNS_12CharsetMatchE
libicui18n.so.67:_ZNK6icu_6719CharsetRecog_2022KR7getNameEv
libicui18n.so.67:_ZNK6icu_6719CharsetRecog_8859_15matchEPNS_9InputTextEPNS_12CharsetMatchE
libicui18n.so.67:_ZNK6icu_6719CharsetRecog_8859_17getNameEv
libicui18n.so.67:_ZNK6icu_6719CharsetRecog_8859_25matchEPNS_9InputTextEPNS_12CharsetMatchE
libicui18n.so.67:_ZNK6icu_6719CharsetRecog_8859_27getNameEv
libicui18n.so.67:_ZNK6icu_6719CharsetRecog_8859_57getNameEv
libicui18n.so.67:_ZNK6icu_6719CharsetRecog_8859_67getNameEv
libicui18n.so.67:_ZNK6icu_6719CharsetRecog_8859_77getNameEv
libicui18n.so.67:_ZNK6icu_6719CharsetRecog_8859_87getNameEv
libicui18n.so.67:_ZNK6icu_6719CharsetRecog_8859_97getNameEv
libicui18n.so.67:_ZNK6icu_6719CharsetRecog_KOI8_R11getLanguageEv
libicui18n.so.67:_ZNK6icu_6719CharsetRecog_KOI8_R5matchEPNS_9InputTextEPNS_12CharsetMatchE
libicui18n.so.67:_ZNK6icu_6719CharsetRecog_KOI8_R7getNameEv
libicui18n.so.67:_ZNK6icu_6719CharsetRecog_UTF_325matchEPNS_9InputTextEPNS_12CharsetMatchE
libicui18n.so.67:_ZNK6icu_6719CharsetRecog_euc_jp11getLanguageEv
libicui18n.so.67:_ZNK6icu_6719CharsetRecog_euc_jp5matchEPNS_9InputTextEPNS_12CharsetMatchE
libicui18n.so.67:_ZNK6icu_6719CharsetRecog_euc_jp7getNameEv
libicui18n.so.67:_ZNK6icu_6719CharsetRecog_euc_kr11getLanguageEv
libicui18n.so.67:_ZNK6icu_6719CharsetRecog_euc_kr5matchEPNS_9InputTextEPNS_12CharsetMatchE
libicui18n.so.67:_ZNK6icu_6719CharsetRecog_euc_kr7getNameEv
libicui18n.so.67:_ZNK6icu_6719CollationRuleParser11skipCommentEi
libicui18n.so.67:_ZNK6icu_6719CollationRuleParser14skipWhiteSpaceEi
libicui18n.so.67:_ZNK6icu_6719CollationRuleParser9readWordsEiRNS_13UnicodeStringE
libicui18n.so.67:_ZNK6icu_6719InitialTimeZoneRule12getNextStartEdiiaRd
libicui18n.so.67:_ZNK6icu_6719InitialTimeZoneRule13getFinalStartEiiRd
libicui18n.so.67:_ZNK6icu_6719InitialTimeZoneRule13getFirstStartEiiRd
libicui18n.so.67:_ZNK6icu_6719InitialTimeZoneRule14isEquivalentToERKNS_12TimeZoneRuleE
libicui18n.so.67:_ZNK6icu_6719InitialTimeZoneRule16getPreviousStartEdiiaRd
libicui18n.so.67:_ZNK6icu_6719InitialTimeZoneRule17getDynamicClassIDEv
libicui18n.so.67:_ZNK6icu_6719InitialTimeZoneRule5cloneEv
libicui18n.so.67:_ZNK6icu_6719InitialTimeZoneRuleeqERKNS_12TimeZoneRuleE
libicui18n.so.67:_ZNK6icu_6719InitialTimeZoneRuleneERKNS_12TimeZoneRuleE
libicui18n.so.67:_ZNK6icu_6719ModulusSubstitution14doSubstitutionEdRNS_13UnicodeStringEiiR10UErrorCode
libicui18n.so.67:_ZNK6icu_6719ModulusSubstitution14doSubstitutionElRNS_13UnicodeStringEiiR10UErrorCode
libicui18n.so.67:_ZNK6icu_6719ModulusSubstitution17getDynamicClassIDEv
libicui18n.so.67:_ZNK6icu_6719ModulusSubstitution7doParseERKNS_13UnicodeStringERNS_13ParsePositionEddajRNS_11FormattableE
libicui18n.so.67:_ZNK6icu_6719ModulusSubstitution8toStringERNS_13UnicodeStringE
libicui18n.so.67:_ZNK6icu_6719ModulusSubstitutioneqERKNS_14NFSubstitutionE
libicui18n.so.67:_ZNK6icu_6719TransliterationRule13getIndexValueEv
libicui18n.so.67:_ZNK6icu_6719TransliterationRule14addSourceSetToERNS_10UnicodeSetE
libicui18n.so.67:_ZNK6icu_6719TransliterationRule14addTargetSetToERNS_10UnicodeSetE
libicui18n.so.67:_ZNK6icu_6719TransliterationRule15matchAndReplaceERNS_11ReplaceableER14UTransPositiona
libicui18n.so.67:_ZNK6icu_6719TransliterationRule16getContextLengthEv
libicui18n.so.67:_ZNK6icu_6719TransliterationRule17matchesIndexValueEh
libicui18n.so.67:_ZNK6icu_6719TransliterationRule5masksERKS0_
libicui18n.so.67:_ZNK6icu_6719TransliterationRule6toRuleERNS_13UnicodeStringEa
libicui18n.so.67:_ZNK6icu_6719TransliteratorAlias11isRuleBasedEv
libicui18n.so.67:_ZNK6icu_6719TransliteratorAlias5parseERNS_20TransliteratorParserER11UParseErrorR10UErrorCode
libicui18n.so.67:_ZNK6icu_6720CollationDataBuilder10isAssignedEi
libicui18n.so.67:_ZNK6icu_6720CollationDataBuilder11getSingleCEEiR10UErrorCode
libicui18n.so.67:_ZNK6icu_6720CollationDataBuilder21getCE32FromOffsetCE32Eaij
libicui18n.so.67:_ZNK6icu_6720CollationDataBuilder22isCompressibleLeadByteEj
libicui18n.so.67:_ZNK6icu_6720CollationDataBuilder24getLongPrimaryIfSingleCEEi
libicui18n.so.67:_ZNK6icu_6720CompactDecimalFormat13parseCurrencyERKNS_13UnicodeStringERNS_13ParsePositionE
libicui18n.so.67:_ZNK6icu_6720CompactDecimalFormat17getDynamicClassIDEv
libicui18n.so.67:_ZNK6icu_6720CompactDecimalFormat5cloneEv
libicui18n.so.67:_ZNK6icu_6720CompactDecimalFormat5parseERKNS_13UnicodeStringERNS_11FormattableER10UErrorCode
libicui18n.so.67:_ZNK6icu_6720CompactDecimalFormat5parseERKNS_13UnicodeStringERNS_11FormattableERNS_13ParsePositionE
libicui18n.so.67:_ZNK6icu_6720DecimalFormatSymbols17getDynamicClassIDEv
libicui18n.so.67:_ZNK6icu_6720DecimalFormatSymbols28getPatternForCurrencySpacingE16UCurrencySpacingaR10UErrorCode
libicui18n.so.67:_ZNK6icu_6720DecimalFormatSymbols9getLocaleE18ULocDataLocaleTypeR10UErrorCode
libicui18n.so.67:_ZNK6icu_6720DecimalFormatSymbolseqERKS0_
libicui18n.so.67:_ZNK6icu_6720EscapeTransliterator17getDynamicClassIDEv
libicui18n.so.67:_ZNK6icu_6720EscapeTransliterator19handleTransliterateERNS_11ReplaceableER14UTransPositiona
libicui18n.so.67:_ZNK6icu_6720EscapeTransliterator5cloneEv
libicui18n.so.67:_ZNK6icu_6720RemoveTransliterator17getDynamicClassIDEv
libicui18n.so.67:_ZNK6icu_6720RemoveTransliterator19handleTransliterateERNS_11ReplaceableER14UTransPositiona
libicui18n.so.67:_ZNK6icu_6720RemoveTransliterator5cloneEv
libicui18n.so.67:_ZNK6icu_6720TimeZoneGenericNames13findBestMatchERKNS_13UnicodeStringEijRS1_R23UTimeZoneFormatTimeTypeR10UErrorCode
libicui18n.so.67:_ZNK6icu_6720TimeZoneGenericNames14getDisplayNameERKNS_8TimeZoneE24UTimeZoneGenericNameTypedRNS_13UnicodeStringE
libicui18n.so.67:_ZNK6icu_6720TimeZoneGenericNames22getGenericLocationNameERKNS_13UnicodeStringERS1_
libicui18n.so.67:_ZNK6icu_6720TimeZoneGenericNames5cloneEv
libicui18n.so.67:_ZNK6icu_6720TimeZoneGenericNameseqERKS0_
libicui18n.so.67:_ZNK6icu_6720TransliteratorParser18checkVariableRangeEi
libicui18n.so.67:_ZNK6icu_6721CaseMapTransliterator19handleTransliterateERNS_11ReplaceableER14UTransPositiona
libicui18n.so.67:_ZNK6icu_6721CharsetRecog_gb_1803011getLanguageEv
libicui18n.so.67:_ZNK6icu_6721CharsetRecog_gb_180305matchEPNS_9InputTextEPNS_12CharsetMatchE
libicui18n.so.67:_ZNK6icu_6721CharsetRecog_gb_180307getNameEv
libicui18n.so.67:_ZNK6icu_6721CharsetRecog_gb_180308nextCharEPNS_12IteratedCharEPNS_9InputTextE
libicui18n.so.67:_ZNK6icu_6721CollationRootElements11findPrimaryEj
libicui18n.so.67:_ZNK6icu_6721CollationRootElements15getPrimaryAfterEjia
libicui18n.so.67:_ZNK6icu_6721CollationRootElements16getPrimaryBeforeEja
libicui18n.so.67:_ZNK6icu_6721CollationRootElements16getTertiaryAfterEijj
libicui18n.so.67:_ZNK6icu_6721CollationRootElements17getSecondaryAfterEij
libicui18n.so.67:_ZNK6icu_6721CollationRootElements17getTertiaryBeforeEjjj
libicui18n.so.67:_ZNK6icu_6721CollationRootElements18getSecondaryBeforeEjj
libicui18n.so.67:_ZNK6icu_6721CollationRootElements23lastCEWithPrimaryBeforeEj
libicui18n.so.67:_ZNK6icu_6721CollationRootElements24getFirstSecTerForPrimaryEi
libicui18n.so.67:_ZNK6icu_6721CollationRootElements25firstCEWithPrimaryAtLeastEj
libicui18n.so.67:_ZNK6icu_6721CollationRootElements5findPEj
libicui18n.so.67:_ZNK6icu_6721DTSkeletonEnumeration17getDynamicClassIDEv
libicui18n.so.67:_ZNK6icu_6721DTSkeletonEnumeration5countER10UErrorCode
libicui18n.so.67:_ZNK6icu_6721FieldPositionIteratoreqERKS0_
libicui18n.so.67:_ZNK6icu_6721FormatNameEnumeration17getDynamicClassIDEv
libicui18n.so.67:_ZNK6icu_6721FormatNameEnumeration5countER10UErrorCode
libicui18n.so.67:_ZNK6icu_6721FormattedDateInterval12nextPositionERNS_24ConstrainedFieldPositionER10UErrorCode
libicui18n.so.67:_ZNK6icu_6721FormattedDateInterval12toTempStringER10UErrorCode
libicui18n.so.67:_ZNK6icu_6721FormattedDateInterval8appendToERNS_10AppendableER10UErrorCode
libicui18n.so.67:_ZNK6icu_6721FormattedDateInterval8toStringER10UErrorCode
libicui18n.so.67:_ZNK6icu_6721NumeratorSubstitution14doSubstitutionEdRNS_13UnicodeStringEiiR10UErrorCode
libicui18n.so.67:_ZNK6icu_6721NumeratorSubstitution17getDynamicClassIDEv
libicui18n.so.67:_ZNK6icu_6721NumeratorSubstitution7doParseERKNS_13UnicodeStringERNS_13ParsePositionEddajRNS_11FormattableE
libicui18n.so.67:_ZNK6icu_6721NumeratorSubstitutioneqERKNS_14NFSubstitutionE
libicui18n.so.67:_ZNK6icu_6721NumsysNameEnumeration17getDynamicClassIDEv
libicui18n.so.67:_ZNK6icu_6721NumsysNameEnumeration5countER10UErrorCode
libicui18n.so.67:_ZNK6icu_6721RegionNameEnumeration17getDynamicClassIDEv
libicui18n.so.67:_ZNK6icu_6721RegionNameEnumeration5countER10UErrorCode
libicui18n.so.67:_ZNK6icu_6721RuleBasedNumberFormat11findRuleSetERKNS_13UnicodeStringER10UErrorCode
libicui18n.so.67:_ZNK6icu_6721RuleBasedNumberFormat11getCollatorEv
libicui18n.so.67:_ZNK6icu_6721RuleBasedNumberFormat14getRuleSetNameEi
libicui18n.so.67:_ZNK6icu_6721RuleBasedNumberFormat15getRoundingModeEv
libicui18n.so.67:_ZNK6icu_6721RuleBasedNumberFormat17getDefaultNaNRuleEv
libicui18n.so.67:_ZNK6icu_6721RuleBasedNumberFormat17getDynamicClassIDEv
libicui18n.so.67:_ZNK6icu_6721RuleBasedNumberFormat18createPluralFormatE11UPluralTypeRKNS_13UnicodeStringER10UErrorCode
libicui18n.so.67:_ZNK6icu_6721RuleBasedNumberFormat21getDefaultRuleSetNameEv
libicui18n.so.67:_ZNK6icu_6721RuleBasedNumberFormat22getDefaultInfinityRuleEv
libicui18n.so.67:_ZNK6icu_6721RuleBasedNumberFormat23getDecimalFormatSymbolsEv
libicui18n.so.67:_ZNK6icu_6721RuleBasedNumberFormat23getNumberOfRuleSetNamesEv
libicui18n.so.67:_ZNK6icu_6721RuleBasedNumberFormat27getRuleSetDisplayNameLocaleEiR10UErrorCode
libicui18n.so.67:_ZNK6icu_6721RuleBasedNumberFormat30adjustForCapitalizationContextEiRNS_13UnicodeStringER10UErrorCode
libicui18n.so.67:_ZNK6icu_6721RuleBasedNumberFormat36getNumberOfRuleSetDisplayNameLocalesEv
libicui18n.so.67:_ZNK6icu_6721RuleBasedNumberFormat5cloneEv
libicui18n.so.67:_ZNK6icu_6721RuleBasedNumberFormat5parseERKNS_13UnicodeStringERNS_11FormattableERNS_13ParsePositionE
libicui18n.so.67:_ZNK6icu_6721RuleBasedNumberFormat6formatERKNS_6number4impl15DecimalQuantityERNS_13UnicodeStringERNS_13FieldPositionER10UErrorCode
libicui18n.so.67:_ZNK6icu_6721RuleBasedNumberFormat6formatEdRKNS_13UnicodeStringERS1_RNS_13FieldPositionER10UErrorCode
libicui18n.so.67:_ZNK6icu_6721RuleBasedNumberFormat6formatEdRNS_13UnicodeStringERNS_13FieldPositionE
libicui18n.so.67:_ZNK6icu_6721RuleBasedNumberFormat6formatEdRNS_9NFRuleSetERNS_13UnicodeStringER10UErrorCode
libicui18n.so.67:_ZNK6icu_6721RuleBasedNumberFormat6formatEiRKNS_13UnicodeStringERS1_RNS_13FieldPositionER10UErrorCode
libicui18n.so.67:_ZNK6icu_6721RuleBasedNumberFormat6formatEiRNS_13UnicodeStringERNS_13FieldPositionE
libicui18n.so.67:_ZNK6icu_6721RuleBasedNumberFormat6formatElPNS_9NFRuleSetERNS_13UnicodeStringER10UErrorCode
libicui18n.so.67:_ZNK6icu_6721RuleBasedNumberFormat6formatElRKNS_13UnicodeStringERS1_RNS_13FieldPositionER10UErrorCode
libicui18n.so.67:_ZNK6icu_6721RuleBasedNumberFormat6formatElRNS_13UnicodeStringERNS_13FieldPositionE
libicui18n.so.67:_ZNK6icu_6721RuleBasedNumberFormat8getRulesEv
libicui18n.so.67:_ZNK6icu_6721RuleBasedNumberFormateqERKNS_6FormatE
libicui18n.so.67:_ZNK6icu_6721SameValueSubstitution17getDynamicClassIDEv
libicui18n.so.67:_ZNK6icu_6721TimeArrayTimeZoneRule11getTimeTypeEv
libicui18n.so.67:_ZNK6icu_6721TimeArrayTimeZoneRule12getNextStartEdiiaRd
libicui18n.so.67:_ZNK6icu_6721TimeArrayTimeZoneRule13getFinalStartEiiRd
libicui18n.so.67:_ZNK6icu_6721TimeArrayTimeZoneRule13getFirstStartEiiRd
libicui18n.so.67:_ZNK6icu_6721TimeArrayTimeZoneRule14getStartTimeAtEiRd
libicui18n.so.67:_ZNK6icu_6721TimeArrayTimeZoneRule14isEquivalentToERKNS_12TimeZoneRuleE
libicui18n.so.67:_ZNK6icu_6721TimeArrayTimeZoneRule15countStartTimesEv
libicui18n.so.67:_ZNK6icu_6721TimeArrayTimeZoneRule16getPreviousStartEdiiaRd
libicui18n.so.67:_ZNK6icu_6721TimeArrayTimeZoneRule17getDynamicClassIDEv
libicui18n.so.67:_ZNK6icu_6721TimeArrayTimeZoneRule5cloneEv
libicui18n.so.67:_ZNK6icu_6721TimeArrayTimeZoneRule6getUTCEdii
libicui18n.so.67:_ZNK6icu_6721TimeArrayTimeZoneRuleeqERKNS_12TimeZoneRuleE
libicui18n.so.67:_ZNK6icu_6721TimeArrayTimeZoneRuleneERKNS_12TimeZoneRuleE
libicui18n.so.67:_ZNK6icu_6721TimeZoneNamesDelegate13getMetaZoneIDERKNS_13UnicodeStringEdRS1_
libicui18n.so.67:_ZNK6icu_6721TimeZoneNamesDelegate15getDisplayNamesERKNS_13UnicodeStringEPK17UTimeZoneNameTypeidPS1_R10UErrorCode
libicui18n.so.67:_ZNK6icu_6721TimeZoneNamesDelegate18getReferenceZoneIDERKNS_13UnicodeStringEPKcRS1_
libicui18n.so.67:_ZNK6icu_6721TimeZoneNamesDelegate22getMetaZoneDisplayNameERKNS_13UnicodeStringE17UTimeZoneNameTypeRS1_
libicui18n.so.67:_ZNK6icu_6721TimeZoneNamesDelegate22getTimeZoneDisplayNameERKNS_13UnicodeStringE17UTimeZoneNameTypeRS1_
libicui18n.so.67:_ZNK6icu_6721TimeZoneNamesDelegate23getAvailableMetaZoneIDsER10UErrorCode
libicui18n.so.67:_ZNK6icu_6721TimeZoneNamesDelegate23getAvailableMetaZoneIDsERKNS_13UnicodeStringER10UErrorCode
libicui18n.so.67:_ZNK6icu_6721TimeZoneNamesDelegate23getExemplarLocationNameERKNS_13UnicodeStringERS1_
libicui18n.so.67:_ZNK6icu_6721TimeZoneNamesDelegate4findERKNS_13UnicodeStringEijR10UErrorCode
libicui18n.so.67:_ZNK6icu_6721TimeZoneNamesDelegate5cloneEv
libicui18n.so.67:_ZNK6icu_6721TimeZoneNamesDelegateeqERKNS_13TimeZoneNamesE
libicui18n.so.67:_ZNK6icu_6721UTF8CollationIterator25forbidSurrogateCodePointsEv
libicui18n.so.67:_ZNK6icu_6721UTF8CollationIterator9getOffsetEv
libicui18n.so.67:_ZNK6icu_6722CharsetRecog_8859_5_ru11getLanguageEv
libicui18n.so.67:_ZNK6icu_6722CharsetRecog_8859_5_ru5matchEPNS_9InputTextEPNS_12CharsetMatchE
libicui18n.so.67:_ZNK6icu_6722CharsetRecog_8859_6_ar11getLanguageEv
libicui18n.so.67:_ZNK6icu_6722CharsetRecog_8859_6_ar5matchEPNS_9InputTextEPNS_12CharsetMatchE
libicui18n.so.67:_ZNK6icu_6722CharsetRecog_8859_7_el11getLanguageEv
libicui18n.so.67:_ZNK6icu_6722CharsetRecog_8859_7_el5matchEPNS_9InputTextEPNS_12CharsetMatchE
libicui18n.so.67:_ZNK6icu_6722CharsetRecog_8859_8_he11getLanguageEv
libicui18n.so.67:_ZNK6icu_6722CharsetRecog_8859_8_he5matchEPNS_9InputTextEPNS_12CharsetMatchE
libicui18n.so.67:_ZNK6icu_6722CharsetRecog_8859_9_tr11getLanguageEv
libicui18n.so.67:_ZNK6icu_6722CharsetRecog_8859_9_tr5matchEPNS_9InputTextEPNS_12CharsetMatchE
libicui18n.so.67:_ZNK6icu_6722CharsetRecog_IBM420_ar10match_sbcsEPNS_9InputTextEPKiPKh
libicui18n.so.67:_ZNK6icu_6722CharsetRecog_IBM420_ar11getLanguageEv
libicui18n.so.67:_ZNK6icu_6722CharsetRecog_IBM424_he11getLanguageEv
libicui18n.so.67:_ZNK6icu_6722CharsetRecog_UTF_16_BE5matchEPNS_9InputTextEPNS_12CharsetMatchE
libicui18n.so.67:_ZNK6icu_6722CharsetRecog_UTF_16_BE7getNameEv
libicui18n.so.67:_ZNK6icu_6722CharsetRecog_UTF_16_LE5matchEPNS_9InputTextEPNS_12CharsetMatchE
libicui18n.so.67:_ZNK6icu_6722CharsetRecog_UTF_16_LE7getNameEv
libicui18n.so.67:_ZNK6icu_6722CharsetRecog_UTF_32_BE7getCharEPKhi
libicui18n.so.67:_ZNK6icu_6722CharsetRecog_UTF_32_BE7getNameEv
libicui18n.so.67:_ZNK6icu_6722CharsetRecog_UTF_32_LE7getCharEPKhi
libicui18n.so.67:_ZNK6icu_6722CharsetRecog_UTF_32_LE7getNameEv
libicui18n.so.67:_ZNK6icu_6722CompoundTransliterator12getTargetSetERNS_10UnicodeSetE
libicui18n.so.67:_ZNK6icu_6722CompoundTransliterator17getDynamicClassIDEv
libicui18n.so.67:_ZNK6icu_6722CompoundTransliterator17getTransliteratorEi
libicui18n.so.67:_ZNK6icu_6722CompoundTransliterator18handleGetSourceSetERNS_10UnicodeSetE
libicui18n.so.67:_ZNK6icu_6722CompoundTransliterator19handleTransliterateERNS_11ReplaceableER14UTransPositiona
libicui18n.so.67:_ZNK6icu_6722CompoundTransliterator5cloneEv
libicui18n.so.67:_ZNK6icu_6722CompoundTransliterator7toRulesERNS_13UnicodeStringEa
libicui18n.so.67:_ZNK6icu_6722CompoundTransliterator8getCountEv
libicui18n.so.67:_ZNK6icu_6722DTRedundantEnumeration15isCanonicalItemERKNS_13UnicodeStringE
libicui18n.so.67:_ZNK6icu_6722DTRedundantEnumeration17getDynamicClassIDEv
libicui18n.so.67:_ZNK6icu_6722DTRedundantEnumeration5countER10UErrorCode
libicui18n.so.67:_ZNK6icu_6722FormattedStringBuilder11codePointAtEi
libicui18n.so.67:_ZNK6icu_6722FormattedStringBuilder13containsFieldENS0_5FieldE
libicui18n.so.67:_ZNK6icu_6722FormattedStringBuilder13contentEqualsERKS0_
libicui18n.so.67:_ZNK6icu_6722FormattedStringBuilder13toDebugStringEv
libicui18n.so.67:_ZNK6icu_6722FormattedStringBuilder14codePointCountEv
libicui18n.so.67:_ZNK6icu_6722FormattedStringBuilder15codePointBeforeEi
libicui18n.so.67:_ZNK6icu_6722FormattedStringBuilder15toUnicodeStringEv
libicui18n.so.67:_ZNK6icu_6722FormattedStringBuilder16getLastCodePointEv
libicui18n.so.67:_ZNK6icu_6722FormattedStringBuilder17getFirstCodePointEv
libicui18n.so.67:_ZNK6icu_6722FormattedStringBuilder19toTempUnicodeStringEv
libicui18n.so.67:_ZNK6icu_6722FormattedStringBuilder5charsEv
libicui18n.so.67:_ZNK6icu_6722FormattedStringBuilder6lengthEv
libicui18n.so.67:_ZNK6icu_6722MetaZoneIDsEnumeration17getDynamicClassIDEv
libicui18n.so.67:_ZNK6icu_6722MetaZoneIDsEnumeration5countER10UErrorCode
libicui18n.so.67:_ZNK6icu_6722MultiplierSubstitution17getDynamicClassIDEv
libicui18n.so.67:_ZNK6icu_6722MultiplierSubstitutioneqERKNS_14NFSubstitutionE
libicui18n.so.67:_ZNK6icu_6722StringLocalizationInfo13getLocaleNameEi
libicui18n.so.67:_ZNK6icu_6722StringLocalizationInfo14getDisplayNameEii
libicui18n.so.67:_ZNK6icu_6722StringLocalizationInfo14getRuleSetNameEi
libicui18n.so.67:_ZNK6icu_6722TransliterationRuleSet18getSourceTargetSetERNS_10UnicodeSetEa
libicui18n.so.67:_ZNK6icu_6722TransliterationRuleSet23getMaximumContextLengthEv
libicui18n.so.67:_ZNK6icu_6722TransliterationRuleSet7toRulesERNS_13UnicodeStringEa
libicui18n.so.67:_ZNK6icu_6722TransliteratorRegistry11Enumeration17getDynamicClassIDEv
libicui18n.so.67:_ZNK6icu_6722TransliteratorRegistry11Enumeration5countER10UErrorCode
libicui18n.so.67:_ZNK6icu_6722TransliteratorRegistry14getAvailableIDEi
libicui18n.so.67:_ZNK6icu_6722TransliteratorRegistry15getAvailableIDsEv
libicui18n.so.67:_ZNK6icu_6722TransliteratorRegistry17countAvailableIDsEv
libicui18n.so.67:_ZNK6icu_6722TransliteratorRegistry18findInDynamicStoreERKNS_18TransliteratorSpecES3_RKNS_13UnicodeStringE
libicui18n.so.67:_ZNK6icu_6722TransliteratorRegistry18getAvailableSourceEiRNS_13UnicodeStringE
libicui18n.so.67:_ZNK6icu_6722TransliteratorRegistry18getAvailableTargetEiRKNS_13UnicodeStringERS1_
libicui18n.so.67:_ZNK6icu_6722TransliteratorRegistry19getAvailableVariantEiRKNS_13UnicodeStringES3_RS1_
libicui18n.so.67:_ZNK6icu_6722TransliteratorRegistry21countAvailableSourcesEv
libicui18n.so.67:_ZNK6icu_6722TransliteratorRegistry21countAvailableTargetsERKNS_13UnicodeStringE
libicui18n.so.67:_ZNK6icu_6722TransliteratorRegistry22countAvailableVariantsERKNS_13UnicodeStringES3_
libicui18n.so.67:_ZNK6icu_6722UIterCollationIterator9getOffsetEv
libicui18n.so.67:_ZNK6icu_6722UTF16CollationIterator9getOffsetEv
libicui18n.so.67:_ZNK6icu_6722UTF16CollationIteratoreqERKNS_17CollationIteratorE
libicui18n.so.67:_ZNK6icu_6722UnescapeTransliterator17getDynamicClassIDEv
libicui18n.so.67:_ZNK6icu_6722UnescapeTransliterator19handleTransliterateERNS_11ReplaceableER14UTransPositiona
libicui18n.so.67:_ZNK6icu_6722UnescapeTransliterator5cloneEv
libicui18n.so.67:_ZNK6icu_6723LowercaseTransliterator17getDynamicClassIDEv
libicui18n.so.67:_ZNK6icu_6723LowercaseTransliterator5cloneEv
libicui18n.so.67:_ZNK6icu_6723RuleBasedTransliterator12getTargetSetERNS_10UnicodeSetE
libicui18n.so.67:_ZNK6icu_6723RuleBasedTransliterator17getDynamicClassIDEv
libicui18n.so.67:_ZNK6icu_6723RuleBasedTransliterator18handleGetSourceSetERNS_10UnicodeSetE
libicui18n.so.67:_ZNK6icu_6723RuleBasedTransliterator19handleTransliterateERNS_11ReplaceableER14UTransPositiona
libicui18n.so.67:_ZNK6icu_6723RuleBasedTransliterator5cloneEv
libicui18n.so.67:_ZNK6icu_6723RuleBasedTransliterator7toRulesERNS_13UnicodeStringEa
libicui18n.so.67:_ZNK6icu_6723TitlecaseTransliterator17getDynamicClassIDEv
libicui18n.so.67:_ZNK6icu_6723TitlecaseTransliterator19handleTransliterateERNS_11ReplaceableER14UTransPositiona
libicui18n.so.67:_ZNK6icu_6723TitlecaseTransliterator5cloneEv
libicui18n.so.67:_ZNK6icu_6723TransliterationRuleData13lookupMatcherEi
libicui18n.so.67:_ZNK6icu_6723TransliterationRuleData14lookupReplacerEi
libicui18n.so.67:_ZNK6icu_6723TransliterationRuleData6lookupEi
libicui18n.so.67:_ZNK6icu_6723UppercaseTransliterator17getDynamicClassIDEv
libicui18n.so.67:_ZNK6icu_6723UppercaseTransliterator5cloneEv
libicui18n.so.67:_ZNK6icu_6724CharsetRecog_8859_8_I_he11getLanguageEv
libicui18n.so.67:_ZNK6icu_6724CharsetRecog_8859_8_I_he5matchEPNS_9InputTextEPNS_12CharsetMatchE
libicui18n.so.67:_ZNK6icu_6724CharsetRecog_8859_8_I_he7getNameEv
libicui18n.so.67:_ZNK6icu_6724CollationElementIterator13strengthOrderEi
libicui18n.so.67:_ZNK6icu_6724CollationElementIterator15getMaxExpansionEi
libicui18n.so.67:_ZNK6icu_6724CollationElementIterator17getDynamicClassIDEv
libicui18n.so.67:_ZNK6icu_6724CollationElementIterator9getOffsetEv
libicui18n.so.67:_ZNK6icu_6724CollationElementIteratoreqERKS0_
libicui18n.so.67:_ZNK6icu_6724CollationElementIteratorneERKS0_
libicui18n.so.67:_ZNK6icu_6724ConstrainedFieldPosition12matchesFieldEii
libicui18n.so.67:_ZNK6icu_6724DateTimePatternGenerator10getDecimalEv
libicui18n.so.67:_ZNK6icu_6724DateTimePatternGenerator12getSkeletonsER10UErrorCode
libicui18n.so.67:_ZNK6icu_6724DateTimePatternGenerator15getTopBitNumberEi
libicui18n.so.67:_ZNK6icu_6724DateTimePatternGenerator15isCanonicalItemERKNS_13UnicodeStringE
libicui18n.so.67:_ZNK6icu_6724DateTimePatternGenerator16getBaseSkeletonsER10UErrorCode
libicui18n.so.67:_ZNK6icu_6724DateTimePatternGenerator17getAppendItemNameE21UDateTimePatternField
libicui18n.so.67:_ZNK6icu_6724DateTimePatternGenerator17getDateTimeFormatEv
libicui18n.so.67:_ZNK6icu_6724DateTimePatternGenerator17getDynamicClassIDEv
libicui18n.so.67:_ZNK6icu_6724DateTimePatternGenerator19getAppendItemFormatE21UDateTimePatternField
libicui18n.so.67:_ZNK6icu_6724DateTimePatternGenerator19getDefaultHourCycleER10UErrorCode
libicui18n.so.67:_ZNK6icu_6724DateTimePatternGenerator19getFieldDisplayNameE21UDateTimePatternField23UDateTimePGDisplayWidth
libicui18n.so.67:_ZNK6icu_6724DateTimePatternGenerator20isAvailableFormatSetERKNS_13UnicodeStringE
libicui18n.so.67:_ZNK6icu_6724DateTimePatternGenerator21getAppendFormatNumberEPKc
libicui18n.so.67:_ZNK6icu_6724DateTimePatternGenerator21getPatternForSkeletonERKNS_13UnicodeStringE
libicui18n.so.67:_ZNK6icu_6724DateTimePatternGenerator23getFieldAndWidthIndicesEPKcP23UDateTimePGDisplayWidth
libicui18n.so.67:_ZNK6icu_6724DateTimePatternGenerator5cloneEv
libicui18n.so.67:_ZNK6icu_6724DateTimePatternGeneratoreqERKS0_
libicui18n.so.67:_ZNK6icu_6724DateTimePatternGeneratorneERKS0_
libicui18n.so.67:_ZNK6icu_6724FCDUTF8CollationIterator11nextHasLcccEv
libicui18n.so.67:_ZNK6icu_6724FCDUTF8CollationIterator15previousHasTcccEv
libicui18n.so.67:_ZNK6icu_6724FCDUTF8CollationIterator9getOffsetEv
libicui18n.so.67:_ZNK6icu_6724FieldPositionOnlyHandler11isRecordingEv
libicui18n.so.67:_ZNK6icu_6724IntegralPartSubstitution17getDynamicClassIDEv
libicui18n.so.67:_ZNK6icu_6724PluralKeywordEnumeration17getDynamicClassIDEv
libicui18n.so.67:_ZNK6icu_6724PluralKeywordEnumeration5countER10UErrorCode
libicui18n.so.67:_ZNK6icu_6725AbsoluteValueSubstitution17getDynamicClassIDEv
libicui18n.so.67:_ZNK6icu_6725CharsetRecog_windows_125111getLanguageEv
libicui18n.so.67:_ZNK6icu_6725CharsetRecog_windows_12515matchEPNS_9InputTextEPNS_12CharsetMatchE
libicui18n.so.67:_ZNK6icu_6725CharsetRecog_windows_12517getNameEv
libicui18n.so.67:_ZNK6icu_6725CharsetRecog_windows_125611getLanguageEv
libicui18n.so.67:_ZNK6icu_6725CharsetRecog_windows_12565matchEPNS_9InputTextEPNS_12CharsetMatchE
libicui18n.so.67:_ZNK6icu_6725CharsetRecog_windows_12567getNameEv
libicui18n.so.67:_ZNK6icu_6725CollationFastLatinBuilder11inSameGroupEjj
libicui18n.so.67:_ZNK6icu_6725CollationFastLatinBuilder12encodeTwoCEsEll
libicui18n.so.67:_ZNK6icu_6725CollationFastLatinBuilder9getMiniCEEl
libicui18n.so.67:_ZNK6icu_6725FCDUIterCollationIterator9getOffsetEv
libicui18n.so.67:_ZNK6icu_6725FCDUTF16CollationIterator9getOffsetEv
libicui18n.so.67:_ZNK6icu_6725FCDUTF16CollationIteratoreqERKNS_17CollationIteratorE
libicui18n.so.67:_ZNK6icu_6725FormattedRelativeDateTime12nextPositionERNS_24ConstrainedFieldPositionER10UErrorCode
libicui18n.so.67:_ZNK6icu_6725FormattedRelativeDateTime12toTempStringER10UErrorCode
libicui18n.so.67:_ZNK6icu_6725FormattedRelativeDateTime8appendToERNS_10AppendableER10UErrorCode
libicui18n.so.67:_ZNK6icu_6725FormattedRelativeDateTime8toStringER10UErrorCode
libicui18n.so.67:_ZNK6icu_6725NameUnicodeTransliterator17getDynamicClassIDEv
libicui18n.so.67:_ZNK6icu_6725NameUnicodeTransliterator19handleTransliterateERNS_11ReplaceableER14UTransPositiona
libicui18n.so.67:_ZNK6icu_6725NameUnicodeTransliterator5cloneEv
libicui18n.so.67:_ZNK6icu_6725RelativeDateTimeCacheData21getAbsoluteUnitStringEi17UDateAbsoluteUnit14UDateDirection
libicui18n.so.67:_ZNK6icu_6725RelativeDateTimeCacheData24getRelativeUnitFormatterEi17UDateRelativeUnitii
libicui18n.so.67:_ZNK6icu_6725RelativeDateTimeCacheData32getRelativeDateTimeUnitFormatterEi21URelativeDateTimeUnitii
libicui18n.so.67:_ZNK6icu_6725RelativeDateTimeFormatter10formatImplEd14UDateDirection17UDateRelativeUnitRNS_29FormattedRelativeDateTimeDataER10UErrorCode
libicui18n.so.67:_ZNK6icu_6725RelativeDateTimeFormatter13formatNumericEd21URelativeDateTimeUnitRNS_13UnicodeStringER10UErrorCode
libicui18n.so.67:_ZNK6icu_6725RelativeDateTimeFormatter13formatToValueE14UDateDirection17UDateAbsoluteUnitR10UErrorCode
libicui18n.so.67:_ZNK6icu_6725RelativeDateTimeFormatter13formatToValueEd14UDateDirection17UDateRelativeUnitR10UErrorCode
libicui18n.so.67:_ZNK6icu_6725RelativeDateTimeFormatter13formatToValueEd21URelativeDateTimeUnitR10UErrorCode
libicui18n.so.67:_ZNK6icu_6725RelativeDateTimeFormatter14getFormatStyleEv
libicui18n.so.67:_ZNK6icu_6725RelativeDateTimeFormatter15getNumberFormatEv
libicui18n.so.67:_ZNK6icu_6725RelativeDateTimeFormatter16adjustForContextERNS_13UnicodeStringE
libicui18n.so.67:_ZNK6icu_6725RelativeDateTimeFormatter17formatNumericImplEd21URelativeDateTimeUnitRNS_29FormattedRelativeDateTimeDataER10UErrorCode
libicui18n.so.67:_ZNK6icu_6725RelativeDateTimeFormatter18combineDateAndTimeERKNS_13UnicodeStringES3_RS1_R10UErrorCode
libicui18n.so.67:_ZNK6icu_6725RelativeDateTimeFormatter18formatAbsoluteImplE14UDateDirection17UDateAbsoluteUnitRNS_29FormattedRelativeDateTimeDataER10UErrorCode
libicui18n.so.67:_ZNK6icu_6725RelativeDateTimeFormatter18formatRelativeImplEd21URelativeDateTimeUnitRNS_29FormattedRelativeDateTimeDataER10UErrorCode
libicui18n.so.67:_ZNK6icu_6725RelativeDateTimeFormatter20formatNumericToValueEd21URelativeDateTimeUnitR10UErrorCode
libicui18n.so.67:_ZNK6icu_6725RelativeDateTimeFormatter23checkNoAdjustForContextER10UErrorCode
libicui18n.so.67:_ZNK6icu_6725RelativeDateTimeFormatter24getCapitalizationContextEv
libicui18n.so.67:_ZNK6icu_6725RelativeDateTimeFormatter6formatE14UDateDirection17UDateAbsoluteUnitRNS_13UnicodeStringER10UErrorCode
libicui18n.so.67:_ZNK6icu_6725RelativeDateTimeFormatter6formatEd14UDateDirection17UDateRelativeUnitRNS_13UnicodeStringER10UErrorCode
libicui18n.so.67:_ZNK6icu_6725RelativeDateTimeFormatter6formatEd21URelativeDateTimeUnitRNS_13UnicodeStringER10UErrorCode
libicui18n.so.67:_ZNK6icu_6725ScientificNumberFormatter11MarkupStyle5cloneEv
libicui18n.so.67:_ZNK6icu_6725ScientificNumberFormatter11MarkupStyle6formatERKNS_13UnicodeStringERNS_21FieldPositionIteratorES4_RS2_R10UErrorCode
libicui18n.so.67:_ZNK6icu_6725ScientificNumberFormatter16SuperscriptStyle5cloneEv
libicui18n.so.67:_ZNK6icu_6725ScientificNumberFormatter16SuperscriptStyle6formatERKNS_13UnicodeStringERNS_21FieldPositionIteratorES4_RS2_R10UErrorCode
libicui18n.so.67:_ZNK6icu_6725ScientificNumberFormatter6formatERKNS_11FormattableERNS_13UnicodeStringER10UErrorCode
libicui18n.so.67:_ZNK6icu_6725SimpleNumberFormatFactory15getSupportedIDsERiR10UErrorCode
libicui18n.so.67:_ZNK6icu_6725SimpleNumberFormatFactory7visibleEv
libicui18n.so.67:_ZNK6icu_6725UnicodeNameTransliterator17getDynamicClassIDEv
libicui18n.so.67:_ZNK6icu_6725UnicodeNameTransliterator19handleTransliterateERNS_11ReplaceableER14UTransPositiona
libicui18n.so.67:_ZNK6icu_6725UnicodeNameTransliterator5cloneEv
libicui18n.so.67:_ZNK6icu_6726CharsetRecog_IBM420_ar_ltr5matchEPNS_9InputTextEPNS_12CharsetMatchE
libicui18n.so.67:_ZNK6icu_6726CharsetRecog_IBM420_ar_ltr7getNameEv
libicui18n.so.67:_ZNK6icu_6726CharsetRecog_IBM420_ar_rtl5matchEPNS_9InputTextEPNS_12CharsetMatchE
libicui18n.so.67:_ZNK6icu_6726CharsetRecog_IBM420_ar_rtl7getNameEv
libicui18n.so.67:_ZNK6icu_6726CharsetRecog_IBM424_he_ltr5matchEPNS_9InputTextEPNS_12CharsetMatchE
libicui18n.so.67:_ZNK6icu_6726CharsetRecog_IBM424_he_ltr7getNameEv
libicui18n.so.67:_ZNK6icu_6726CharsetRecog_IBM424_he_rtl5matchEPNS_9InputTextEPNS_12CharsetMatchE
libicui18n.so.67:_ZNK6icu_6726CharsetRecog_IBM424_he_rtl7getNameEv
libicui18n.so.67:_ZNK6icu_6726FractionalPartSubstitution14doSubstitutionEdRNS_13UnicodeStringEiiR10UErrorCode
libicui18n.so.67:_ZNK6icu_6726FractionalPartSubstitution17getDynamicClassIDEv
libicui18n.so.67:_ZNK6icu_6726FractionalPartSubstitution7doParseERKNS_13UnicodeStringERNS_13ParsePositionEddajRNS_11FormattableE
libicui18n.so.67:_ZNK6icu_6726FractionalPartSubstitutioneqERKNS_14NFSubstitutionE
libicui18n.so.67:_ZNK6icu_6727NormalizationTransliterator17getDynamicClassIDEv
libicui18n.so.67:_ZNK6icu_6727NormalizationTransliterator19handleTransliterateERNS_11ReplaceableER14UTransPositiona
libicui18n.so.67:_ZNK6icu_6727NormalizationTransliterator5cloneEv
libicui18n.so.67:_ZNK6icu_6728DataBuilderCollationIterator11getDataCE32Ei
libicui18n.so.67:_ZNK6icu_6728DataBuilderCollationIterator9getOffsetEv
libicui18n.so.67:_ZNK6icu_6728FieldPositionIteratorHandler11isRecordingEv
libicui18n.so.67:_ZNK6icu_6728TimeZoneGenericNameMatchInfo13getTimeZoneIDEiRNS_13UnicodeStringE
libicui18n.so.67:_ZNK6icu_6728TimeZoneGenericNameMatchInfo14getMatchLengthEi
libicui18n.so.67:_ZNK6icu_6728TimeZoneGenericNameMatchInfo18getGenericNameTypeEi
libicui18n.so.67:_ZNK6icu_6728TimeZoneGenericNameMatchInfo4sizeEv
libicui18n.so.67:_ZNK6icu_6730CollationLocaleListEnumeration17getDynamicClassIDEv
libicui18n.so.67:_ZNK6icu_6731FormattedValueStringBuilderImpl12nextPositionERNS_24ConstrainedFieldPositionER10UErrorCode
libicui18n.so.67:_ZNK6icu_6731FormattedValueStringBuilderImpl12toTempStringER10UErrorCode
libicui18n.so.67:_ZNK6icu_6731FormattedValueStringBuilderImpl16nextPositionImplERNS_24ConstrainedFieldPositionENS_22FormattedStringBuilder5FieldER10UErrorCode
libicui18n.so.67:_ZNK6icu_6731FormattedValueStringBuilderImpl17nextFieldPositionERNS_13FieldPositionER10UErrorCode
libicui18n.so.67:_ZNK6icu_6731FormattedValueStringBuilderImpl20getAllFieldPositionsERNS_28FieldPositionIteratorHandlerER10UErrorCode
libicui18n.so.67:_ZNK6icu_6731FormattedValueStringBuilderImpl8appendToERNS_10AppendableER10UErrorCode
libicui18n.so.67:_ZNK6icu_6731FormattedValueStringBuilderImpl8toStringER10UErrorCode
libicui18n.so.67:_ZNK6icu_6731FormattedValueStringBuilderImpl8trimBackEi
libicui18n.so.67:_ZNK6icu_6731FormattedValueStringBuilderImpl9trimFrontEi
libicui18n.so.67:_ZNK6icu_6733PluralAvailableLocalesEnumeration5countER10UErrorCode
libicui18n.so.67:_ZNK6icu_6739FormattedValueFieldPositionIteratorImpl12nextPositionERNS_24ConstrainedFieldPositionER10UErrorCode
libicui18n.so.67:_ZNK6icu_6739FormattedValueFieldPositionIteratorImpl12toTempStringER10UErrorCode
libicui18n.so.67:_ZNK6icu_6739FormattedValueFieldPositionIteratorImpl8appendToERNS_10AppendableER10UErrorCode
libicui18n.so.67:_ZNK6icu_6739FormattedValueFieldPositionIteratorImpl8toStringER10UErrorCode
libicui18n.so.67:_ZNK6icu_676Format11getLocaleIDE18ULocDataLocaleTypeR10UErrorCode
libicui18n.so.67:_ZNK6icu_676Format11parseObjectERKNS_13UnicodeStringERNS_11FormattableER10UErrorCode
libicui18n.so.67:_ZNK6icu_676Format6formatERKNS_11FormattableERNS_13UnicodeStringEPNS_21FieldPositionIteratorER10UErrorCode
libicui18n.so.67:_ZNK6icu_676Format6formatERKNS_11FormattableERNS_13UnicodeStringER10UErrorCode
libicui18n.so.67:_ZNK6icu_676Format9getLocaleE18ULocDataLocaleTypeR10UErrorCode
libicui18n.so.67:_ZNK6icu_676FormateqERKS0_
libicui18n.so.67:_ZNK6icu_676NFRule10getDivisorEv
libicui18n.so.67:_ZNK6icu_676NFRule11stripPrefixERNS_13UnicodeStringERKS1_RNS_13ParsePositionE
libicui18n.so.67:_ZNK6icu_676NFRule12allIgnorableERKNS_13UnicodeStringER10UErrorCode
libicui18n.so.67:_ZNK6icu_676NFRule12prefixLengthERKNS_13UnicodeStringES3_R10UErrorCode
libicui18n.so.67:_ZNK6icu_676NFRule14shouldRollBackEl
libicui18n.so.67:_ZNK6icu_676NFRule15_appendRuleTextERNS_13UnicodeStringE
libicui18n.so.67:_ZNK6icu_676NFRule15findTextLenientERKNS_13UnicodeStringES3_iPi
libicui18n.so.67:_ZNK6icu_676NFRule16expectedExponentEv
libicui18n.so.67:_ZNK6icu_676NFRule16matchToDelimiterERKNS_13UnicodeStringEidS3_RNS_13ParsePositionEPKNS_14NFSubstitutionEjd
libicui18n.so.67:_ZNK6icu_676NFRule20indexOfAnyRulePrefixEv
libicui18n.so.67:_ZNK6icu_676NFRule7doParseERKNS_13UnicodeStringERNS_13ParsePositionEadjRNS_11FormattableE
libicui18n.so.67:_ZNK6icu_676NFRule8doFormatEdRNS_13UnicodeStringEiiR10UErrorCode
libicui18n.so.67:_ZNK6icu_676NFRule8doFormatElRNS_13UnicodeStringEiiR10UErrorCode
libicui18n.so.67:_ZNK6icu_676NFRule8findTextERKNS_13UnicodeStringES3_iPi
libicui18n.so.67:_ZNK6icu_676NFRuleeqERKS0_
libicui18n.so.67:_ZNK6icu_676NoUnit17getDynamicClassIDEv
libicui18n.so.67:_ZNK6icu_676NoUnit5cloneEv
libicui18n.so.67:_ZNK6icu_676Region13getRegionCodeEv
libicui18n.so.67:_ZNK6icu_676Region14getNumericCodeEv
libicui18n.so.67:_ZNK6icu_676Region18getPreferredValuesER10UErrorCode
libicui18n.so.67:_ZNK6icu_676Region19getContainedRegionsE11URegionTypeR10UErrorCode
libicui18n.so.67:_ZNK6icu_676Region19getContainedRegionsER10UErrorCode
libicui18n.so.67:_ZNK6icu_676Region19getContainingRegionE11URegionType
libicui18n.so.67:_ZNK6icu_676Region19getContainingRegionEv
libicui18n.so.67:_ZNK6icu_676Region7getTypeEv
libicui18n.so.67:_ZNK6icu_676Region8containsERKS0_
libicui18n.so.67:_ZNK6icu_676RegioneqERKS0_
libicui18n.so.67:_ZNK6icu_676RegionneERKS0_
libicui18n.so.67:_ZNK6icu_676number12IntegerWidth5applyERNS0_4impl15DecimalQuantityER10UErrorCode
libicui18n.so.67:_ZNK6icu_676number12IntegerWidtheqERKS1_
libicui18n.so.67:_ZNK6icu_676number15FormattedNumber12nextPositionERNS_24ConstrainedFieldPositionER10UErrorCode
libicui18n.so.67:_ZNK6icu_676number15FormattedNumber12toTempStringER10UErrorCode
libicui18n.so.67:_ZNK6icu_676number15FormattedNumber15toDecimalNumberERNS_8ByteSinkER10UErrorCode
libicui18n.so.67:_ZNK6icu_676number15FormattedNumber18getDecimalQuantityERNS0_4impl15DecimalQuantityER10UErrorCode
libicui18n.so.67:_ZNK6icu_676number15FormattedNumber24getAllFieldPositionsImplERNS_28FieldPositionIteratorHandlerER10UErrorCode
libicui18n.so.67:_ZNK6icu_676number15FormattedNumber8appendToERNS_10AppendableER10UErrorCode
libicui18n.so.67:_ZNK6icu_676number15FormattedNumber8toStringER10UErrorCode
libicui18n.so.67:_ZNK6icu_676number17CurrencyPrecision12withCurrencyERKNS_12CurrencyUnitE
libicui18n.so.67:_ZNK6icu_676number17FractionPrecision13withMaxDigitsEi
libicui18n.so.67:_ZNK6icu_676number17FractionPrecision13withMinDigitsEi
libicui18n.so.67:_ZNK6icu_676number18IncrementPrecision15withMinFractionEi
libicui18n.so.67:_ZNK6icu_676number18ScientificNotation21withMinExponentDigitsEi
libicui18n.so.67:_ZNK6icu_676number18ScientificNotation23withExponentSignDisplayE18UNumberSignDisplay
libicui18n.so.67:_ZNK6icu_676number20FormattedNumberRange12nextPositionERNS_24ConstrainedFieldPositionER10UErrorCode
libicui18n.so.67:_ZNK6icu_676number20FormattedNumberRange12toTempStringER10UErrorCode
libicui18n.so.67:_ZNK6icu_676number20FormattedNumberRange15getFirstDecimalER10UErrorCode
libicui18n.so.67:_ZNK6icu_676number20FormattedNumberRange16getSecondDecimalER10UErrorCode
libicui18n.so.67:_ZNK6icu_676number20FormattedNumberRange17getIdentityResultER10UErrorCode
libicui18n.so.67:_ZNK6icu_676number20FormattedNumberRange8appendToERNS_10AppendableER10UErrorCode
libicui18n.so.67:_ZNK6icu_676number20FormattedNumberRange8toStringER10UErrorCode
libicui18n.so.67:_ZNK6icu_676number23NumberFormatterSettingsINS0_24LocalizedNumberFormatterEE10toSkeletonER10UErrorCode
libicui18n.so.67:_ZNK6icu_676number23NumberFormatterSettingsINS0_24LocalizedNumberFormatterEE11copyErrorToER10UErrorCode
libicui18n.so.67:_ZNK6icu_676number23NumberFormatterSettingsINS0_26UnlocalizedNumberFormatterEE10toSkeletonER10UErrorCode
libicui18n.so.67:_ZNK6icu_676number23NumberFormatterSettingsINS0_26UnlocalizedNumberFormatterEE11copyErrorToER10UErrorCode
libicui18n.so.67:_ZNK6icu_676number24LocalizedNumberFormatter10formatImplEPNS0_4impl20UFormattedNumberDataER10UErrorCode
libicui18n.so.67:_ZNK6icu_676number24LocalizedNumberFormatter11getCompiledEv
libicui18n.so.67:_ZNK6icu_676number24LocalizedNumberFormatter12formatDoubleEdR10UErrorCode
libicui18n.so.67:_ZNK6icu_676number24LocalizedNumberFormatter12getAffixImplEbbRNS_13UnicodeStringER10UErrorCode
libicui18n.so.67:_ZNK6icu_676number24LocalizedNumberFormatter12getCallCountEv
libicui18n.so.67:_ZNK6icu_676number24LocalizedNumberFormatter13formatDecimalENS_11StringPieceER10UErrorCode
libicui18n.so.67:_ZNK6icu_676number24LocalizedNumberFormatter15computeCompiledER10UErrorCode
libicui18n.so.67:_ZNK6icu_676number24LocalizedNumberFormatter21formatDecimalQuantityERKNS0_4impl15DecimalQuantityER10UErrorCode
libicui18n.so.67:_ZNK6icu_676number24LocalizedNumberFormatter8toFormatER10UErrorCode
libicui18n.so.67:_ZNK6icu_676number24LocalizedNumberFormatter9formatIntElR10UErrorCode
libicui18n.so.67:_ZNK6icu_676number28NumberRangeFormatterSettingsINS0_29LocalizedNumberRangeFormatterEE11copyErrorToER10UErrorCode
libicui18n.so.67:_ZNK6icu_676number28NumberRangeFormatterSettingsINS0_31UnlocalizedNumberRangeFormatterEE11copyErrorToER10UErrorCode
libicui18n.so.67:_ZNK6icu_676number29LocalizedNumberRangeFormatter10formatImplERNS0_4impl25UFormattedNumberRangeDataEbR10UErrorCode
libicui18n.so.67:_ZNK6icu_676number29LocalizedNumberRangeFormatter12getFormatterER10UErrorCode
libicui18n.so.67:_ZNK6icu_676number29LocalizedNumberRangeFormatter22formatFormattableRangeERKNS_11FormattableES4_R10UErrorCode
libicui18n.so.67:_ZNK6icu_676number4impl11CompactData10getPatternEiNS_14StandardPlural4FormE
libicui18n.so.67:_ZNK6icu_676number4impl11CompactData13getMultiplierEi
libicui18n.so.67:_ZNK6icu_676number4impl11CompactData17getUniquePatternsERNS_7UVectorER10UErrorCode
libicui18n.so.67:_ZNK6icu_676number4impl12RoundingImpl19isSignificantDigitsEv
libicui18n.so.67:_ZNK6icu_676number4impl12RoundingImpl5applyERNS1_15DecimalQuantityER10UErrorCode
libicui18n.so.67:_ZNK6icu_676number4impl14CompactHandler15processQuantityERNS1_15DecimalQuantityERNS1_10MicroPropsER10UErrorCode
libicui18n.so.67:_ZNK6icu_676number4impl14SimpleModifier13containsFieldENS_22FormattedStringBuilder5FieldE
libicui18n.so.67:_ZNK6icu_676number4impl14SimpleModifier13getParametersERNS1_8Modifier10ParametersE
libicui18n.so.67:_ZNK6icu_676number4impl14SimpleModifier15getPrefixLengthEv
libicui18n.so.67:_ZNK6icu_676number4impl14SimpleModifier17getCodePointCountEv
libicui18n.so.67:_ZNK6icu_676number4impl14SimpleModifier20formatAsPrefixSuffixERNS_22FormattedStringBuilderEiiR10UErrorCode
libicui18n.so.67:_ZNK6icu_676number4impl14SimpleModifier22semanticallyEquivalentERKNS1_8ModifierE
libicui18n.so.67:_ZNK6icu_676number4impl14SimpleModifier5applyERNS_22FormattedStringBuilderEiiR10UErrorCode
libicui18n.so.67:_ZNK6icu_676number4impl14SimpleModifier8isStrongEv
libicui18n.so.67:_ZNK6icu_676number4impl14SymbolsWrapper17isNumberingSystemEv
libicui18n.so.67:_ZNK6icu_676number4impl14SymbolsWrapper18getNumberingSystemEv
libicui18n.so.67:_ZNK6icu_676number4impl14SymbolsWrapper22isDecimalFormatSymbolsEv
libicui18n.so.67:_ZNK6icu_676number4impl14SymbolsWrapper23getDecimalFormatSymbolsEv
libicui18n.so.67:_ZNK6icu_676number4impl15CurrencySymbols10getIsoCodeEv
libicui18n.so.67:_ZNK6icu_676number4impl15CurrencySymbols10loadSymbolE14UCurrNameStyleR10UErrorCode
libicui18n.so.67:_ZNK6icu_676number4impl15CurrencySymbols13getPluralNameENS_14StandardPlural4FormER10UErrorCode
libicui18n.so.67:_ZNK6icu_676number4impl15CurrencySymbols17getCurrencySymbolER10UErrorCode
libicui18n.so.67:_ZNK6icu_676number4impl15CurrencySymbols21getIntlCurrencySymbolER10UErrorCode
libicui18n.so.67:_ZNK6icu_676number4impl15CurrencySymbols23getNarrowCurrencySymbolER10UErrorCode
libicui18n.so.67:_ZNK6icu_676number4impl15DecimalQuantity10fitsInLongEb
libicui18n.so.67:_ZNK6icu_676number4impl15DecimalQuantity10isInfiniteEv
libicui18n.so.67:_ZNK6icu_676number4impl15DecimalQuantity10isNegativeEv
libicui18n.so.67:_ZNK6icu_676number4impl15DecimalQuantity11checkHealthEv
libicui18n.so.67:_ZNK6icu_676number4impl15DecimalQuantity11getDigitPosEi
libicui18n.so.67:_ZNK6icu_676number4impl15DecimalQuantity11getExponentEv
libicui18n.so.67:_ZNK6icu_676number4impl15DecimalQuantity12getMagnitudeEv
libicui18n.so.67:_ZNK6icu_676number4impl15DecimalQuantity13fractionCountEv
libicui18n.so.67:_ZNK6icu_676number4impl15DecimalQuantity13toPlainStringEv
libicui18n.so.67:_ZNK6icu_676number4impl15DecimalQuantity14toFractionLongEb
libicui18n.so.67:_ZNK6icu_676number4impl15DecimalQuantity15hasIntegerValueEv
libicui18n.so.67:_ZNK6icu_676number4impl15DecimalQuantity16getPluralOperandENS_13PluralOperandE
libicui18n.so.67:_ZNK6icu_676number4impl15DecimalQuantity18toScientificStringEv
libicui18n.so.67:_ZNK6icu_676number4impl15DecimalQuantity22getPositionFingerprintEv
libicui18n.so.67:_ZNK6icu_676number4impl15DecimalQuantity24getLowerDisplayMagnitudeEv
libicui18n.so.67:_ZNK6icu_676number4impl15DecimalQuantity24getUpperDisplayMagnitudeEv
libicui18n.so.67:_ZNK6icu_676number4impl15DecimalQuantity33fractionCountWithoutTrailingZerosEv
libicui18n.so.67:_ZNK6icu_676number4impl15DecimalQuantity5isNaNEv
libicui18n.so.67:_ZNK6icu_676number4impl15DecimalQuantity6signumEv
libicui18n.so.67:_ZNK6icu_676number4impl15DecimalQuantity6toLongEb
libicui18n.so.67:_ZNK6icu_676number4impl15DecimalQuantity8getDigitEi
libicui18n.so.67:_ZNK6icu_676number4impl15DecimalQuantity8toDecNumERNS1_6DecNumER10UErrorCode
libicui18n.so.67:_ZNK6icu_676number4impl15DecimalQuantity8toDoubleEv
libicui18n.so.67:_ZNK6icu_676number4impl15DecimalQuantity8toStringEv
libicui18n.so.67:_ZNK6icu_676number4impl15DecimalQuantity9isZeroishEv
libicui18n.so.67:_ZNK6icu_676number4impl15DecimalQuantityeqERKS2_
libicui18n.so.67:_ZNK6icu_676number4impl15LongNameHandler11getModifierENS1_6SignumENS_14StandardPlural4FormE
libicui18n.so.67:_ZNK6icu_676number4impl15LongNameHandler15processQuantityERNS1_15DecimalQuantityERNS1_10MicroPropsER10UErrorCode
libicui18n.so.67:_ZNK6icu_676number4impl17ParsedPatternInfo12getEndpointsEi
libicui18n.so.67:_ZNK6icu_676number4impl17ParsedPatternInfo15hasCurrencySignEv
libicui18n.so.67:_ZNK6icu_676number4impl17ParsedPatternInfo18containsSymbolTypeENS1_16AffixPatternTypeER10UErrorCode
libicui18n.so.67:_ZNK6icu_676number4impl17ParsedPatternInfo19positiveHasPlusSignEv
libicui18n.so.67:_ZNK6icu_676number4impl17ParsedPatternInfo20negativeHasMinusSignEv
libicui18n.so.67:_ZNK6icu_676number4impl17ParsedPatternInfo21hasNegativeSubpatternEv
libicui18n.so.67:_ZNK6icu_676number4impl17ParsedPatternInfo6charAtEii
libicui18n.so.67:_ZNK6icu_676number4impl17ParsedPatternInfo6lengthEi
libicui18n.so.67:_ZNK6icu_676number4impl17ParsedPatternInfo7hasBodyEv
libicui18n.so.67:_ZNK6icu_676number4impl17ParsedPatternInfo9getStringEi
libicui18n.so.67:_ZNK6icu_676number4impl17ScientificHandler13getMultiplierEi
libicui18n.so.67:_ZNK6icu_676number4impl17ScientificHandler15processQuantityERNS1_15DecimalQuantityERNS1_10MicroPropsER10UErrorCode
libicui18n.so.67:_ZNK6icu_676number4impl18ScientificModifier13containsFieldENS_22FormattedStringBuilder5FieldE
libicui18n.so.67:_ZNK6icu_676number4impl18ScientificModifier13getParametersERNS1_8Modifier10ParametersE
libicui18n.so.67:_ZNK6icu_676number4impl18ScientificModifier15getPrefixLengthEv
libicui18n.so.67:_ZNK6icu_676number4impl18ScientificModifier17getCodePointCountEv
libicui18n.so.67:_ZNK6icu_676number4impl18ScientificModifier22semanticallyEquivalentERKNS1_8ModifierE
libicui18n.so.67:_ZNK6icu_676number4impl18ScientificModifier5applyERNS_22FormattedStringBuilderEiiR10UErrorCode
libicui18n.so.67:_ZNK6icu_676number4impl18ScientificModifier8isStrongEv
libicui18n.so.67:_ZNK6icu_676number4impl19NumberFormatterImpl10preProcessERNS1_15DecimalQuantityERNS1_10MicroPropsER10UErrorCode
libicui18n.so.67:_ZNK6icu_676number4impl19NumberFormatterImpl15getPrefixSuffixENS1_6SignumENS_14StandardPlural4FormERNS_22FormattedStringBuilderER10UErrorCode
libicui18n.so.67:_ZNK6icu_676number4impl19NumberFormatterImpl6formatERNS1_15DecimalQuantityERNS_22FormattedStringBuilderER10UErrorCode
libicui18n.so.67:_ZNK6icu_676number4impl20StandardPluralRanges7resolveENS_14StandardPlural4FormES4_
libicui18n.so.67:_ZNK6icu_676number4impl21ConstantAffixModifier13containsFieldENS_22FormattedStringBuilder5FieldE
libicui18n.so.67:_ZNK6icu_676number4impl21ConstantAffixModifier13getParametersERNS1_8Modifier10ParametersE
libicui18n.so.67:_ZNK6icu_676number4impl21ConstantAffixModifier15getPrefixLengthEv
libicui18n.so.67:_ZNK6icu_676number4impl21ConstantAffixModifier17getCodePointCountEv
libicui18n.so.67:_ZNK6icu_676number4impl21ConstantAffixModifier22semanticallyEquivalentERKNS1_8ModifierE
libicui18n.so.67:_ZNK6icu_676number4impl21ConstantAffixModifier5applyERNS_22FormattedStringBuilderEiiR10UErrorCode
libicui18n.so.67:_ZNK6icu_676number4impl21ConstantAffixModifier8isStrongEv
libicui18n.so.67:_ZNK6icu_676number4impl22MutablePatternModifier12needsPluralsEv
libicui18n.so.67:_ZNK6icu_676number4impl22MutablePatternModifier13containsFieldENS_22FormattedStringBuilder5FieldE
libicui18n.so.67:_ZNK6icu_676number4impl22MutablePatternModifier13getParametersERNS1_8Modifier10ParametersE
libicui18n.so.67:_ZNK6icu_676number4impl22MutablePatternModifier15getPrefixLengthEv
libicui18n.so.67:_ZNK6icu_676number4impl22MutablePatternModifier15processQuantityERNS1_15DecimalQuantityERNS1_10MicroPropsER10UErrorCode
libicui18n.so.67:_ZNK6icu_676number4impl22MutablePatternModifier15toUnicodeStringEv
libicui18n.so.67:_ZNK6icu_676number4impl22MutablePatternModifier17getCodePointCountEv
libicui18n.so.67:_ZNK6icu_676number4impl22MutablePatternModifier22semanticallyEquivalentERKNS1_8ModifierE
libicui18n.so.67:_ZNK6icu_676number4impl22MutablePatternModifier5applyERNS_22FormattedStringBuilderEiiR10UErrorCode
libicui18n.so.67:_ZNK6icu_676number4impl22MutablePatternModifier8isStrongEv
libicui18n.so.67:_ZNK6icu_676number4impl22MutablePatternModifier9getSymbolENS1_16AffixPatternTypeE
libicui18n.so.67:_ZNK6icu_676number4impl23DecimalFormatProperties29equalsDefaultExceptFastFormatEv
libicui18n.so.67:_ZNK6icu_676number4impl23DecimalFormatProperties7_equalsERKS2_b
libicui18n.so.67:_ZNK6icu_676number4impl23MultiplierFormatHandler15processQuantityERNS1_15DecimalQuantityERNS1_10MicroPropsER10UErrorCode
libicui18n.so.67:_ZNK6icu_676number4impl24ImmutablePatternModifier11getModifierENS1_6SignumENS_14StandardPlural4FormE
libicui18n.so.67:_ZNK6icu_676number4impl24ImmutablePatternModifier13applyToMicrosERNS1_10MicroPropsERKNS1_15DecimalQuantityER10UErrorCode
libicui18n.so.67:_ZNK6icu_676number4impl24ImmutablePatternModifier15processQuantityERNS1_15DecimalQuantityERNS1_10MicroPropsER10UErrorCode
libicui18n.so.67:_ZNK6icu_676number4impl24NumberRangeFormatterImpl11formatRangeERNS1_25UFormattedNumberRangeDataERNS1_10MicroPropsES6_R10UErrorCode
libicui18n.so.67:_ZNK6icu_676number4impl24NumberRangeFormatterImpl17formatSingleValueERNS1_25UFormattedNumberRangeDataERNS1_10MicroPropsES6_R10UErrorCode
libicui18n.so.67:_ZNK6icu_676number4impl24NumberRangeFormatterImpl19formatApproximatelyERNS1_25UFormattedNumberRangeDataERNS1_10MicroPropsES6_R10UErrorCode
libicui18n.so.67:_ZNK6icu_676number4impl24NumberRangeFormatterImpl22resolveModifierPluralsERKNS1_8ModifierES5_
libicui18n.so.67:_ZNK6icu_676number4impl24NumberRangeFormatterImpl6formatERNS1_25UFormattedNumberRangeDataEbR10UErrorCode
libicui18n.so.67:_ZNK6icu_676number4impl26ConstantMultiFieldModifier13containsFieldENS_22FormattedStringBuilder5FieldE
libicui18n.so.67:_ZNK6icu_676number4impl26ConstantMultiFieldModifier13getParametersERNS1_8Modifier10ParametersE
libicui18n.so.67:_ZNK6icu_676number4impl26ConstantMultiFieldModifier15getPrefixLengthEv
libicui18n.so.67:_ZNK6icu_676number4impl26ConstantMultiFieldModifier17getCodePointCountEv
libicui18n.so.67:_ZNK6icu_676number4impl26ConstantMultiFieldModifier22semanticallyEquivalentERKNS1_8ModifierE
libicui18n.so.67:_ZNK6icu_676number4impl26ConstantMultiFieldModifier5applyERNS_22FormattedStringBuilderEiiR10UErrorCode
libicui18n.so.67:_ZNK6icu_676number4impl26ConstantMultiFieldModifier8isStrongEv
libicui18n.so.67:_ZNK6icu_676number4impl30CurrencySpacingEnabledModifier5applyERNS_22FormattedStringBuilderEiiR10UErrorCode
libicui18n.so.67:_ZNK6icu_676number4impl30PropertiesAffixPatternProvider15hasCurrencySignEv
libicui18n.so.67:_ZNK6icu_676number4impl30PropertiesAffixPatternProvider17getStringInternalEi
libicui18n.so.67:_ZNK6icu_676number4impl30PropertiesAffixPatternProvider18containsSymbolTypeENS1_16AffixPatternTypeER10UErrorCode
libicui18n.so.67:_ZNK6icu_676number4impl30PropertiesAffixPatternProvider19positiveHasPlusSignEv
libicui18n.so.67:_ZNK6icu_676number4impl30PropertiesAffixPatternProvider20negativeHasMinusSignEv
libicui18n.so.67:_ZNK6icu_676number4impl30PropertiesAffixPatternProvider21hasNegativeSubpatternEv
libicui18n.so.67:_ZNK6icu_676number4impl30PropertiesAffixPatternProvider6charAtEii
libicui18n.so.67:_ZNK6icu_676number4impl30PropertiesAffixPatternProvider6lengthEi
libicui18n.so.67:_ZNK6icu_676number4impl30PropertiesAffixPatternProvider7hasBodyEv
libicui18n.so.67:_ZNK6icu_676number4impl30PropertiesAffixPatternProvider9getStringEi
libicui18n.so.67:_ZNK6icu_676number4impl31CurrencyPluralInfoAffixProvider15hasCurrencySignEv
libicui18n.so.67:_ZNK6icu_676number4impl31CurrencyPluralInfoAffixProvider18containsSymbolTypeENS1_16AffixPatternTypeER10UErrorCode
libicui18n.so.67:_ZNK6icu_676number4impl31CurrencyPluralInfoAffixProvider19positiveHasPlusSignEv
libicui18n.so.67:_ZNK6icu_676number4impl31CurrencyPluralInfoAffixProvider20negativeHasMinusSignEv
libicui18n.so.67:_ZNK6icu_676number4impl31CurrencyPluralInfoAffixProvider21hasNegativeSubpatternEv
libicui18n.so.67:_ZNK6icu_676number4impl31CurrencyPluralInfoAffixProvider6charAtEii
libicui18n.so.67:_ZNK6icu_676number4impl31CurrencyPluralInfoAffixProvider6lengthEi
libicui18n.so.67:_ZNK6icu_676number4impl31CurrencyPluralInfoAffixProvider7hasBodyEv
libicui18n.so.67:_ZNK6icu_676number4impl31CurrencyPluralInfoAffixProvider9getStringEi
libicui18n.so.67:_ZNK6icu_676number4impl32LocalizedNumberFormatterAsFormat11parseObjectERKNS_13UnicodeStringERNS_11FormattableERNS_13ParsePositionE
libicui18n.so.67:_ZNK6icu_676number4impl32LocalizedNumberFormatterAsFormat17getDynamicClassIDEv
libicui18n.so.67:_ZNK6icu_676number4impl32LocalizedNumberFormatterAsFormat18getNumberFormatterEv
libicui18n.so.67:_ZNK6icu_676number4impl32LocalizedNumberFormatterAsFormat5cloneEv
libicui18n.so.67:_ZNK6icu_676number4impl32LocalizedNumberFormatterAsFormat6formatERKNS_11FormattableERNS_13UnicodeStringEPNS_21FieldPositionIteratorER10UErrorCode
libicui18n.so.67:_ZNK6icu_676number4impl32LocalizedNumberFormatterAsFormat6formatERKNS_11FormattableERNS_13UnicodeStringERNS_13FieldPositionER10UErrorCode
libicui18n.so.67:_ZNK6icu_676number4impl32LocalizedNumberFormatterAsFormateqERKNS_6FormatE
libicui18n.so.67:_ZNK6icu_676number4impl6DecNum10isNegativeEv
libicui18n.so.67:_ZNK6icu_676number4impl6DecNum6isZeroEv
libicui18n.so.67:_ZNK6icu_676number4impl6DecNum8toStringERNS_8ByteSinkER10UErrorCode
libicui18n.so.67:_ZNK6icu_676number4impl6Padder11padAndApplyERKNS1_8ModifierES5_RNS_22FormattedStringBuilderEiiR10UErrorCode
libicui18n.so.67:_ZNK6icu_676number4impl7Grouper10getPrimaryEv
libicui18n.so.67:_ZNK6icu_676number4impl7Grouper12getSecondaryEv
libicui18n.so.67:_ZNK6icu_676number4impl7Grouper15groupAtPositionEiRKNS1_15DecimalQuantityE
libicui18n.so.67:_ZNK6icu_676number5Scale17applyReciprocalToERNS0_4impl15DecimalQuantityE
libicui18n.so.67:_ZNK6icu_676number5Scale7applyToERNS0_4impl15DecimalQuantityE
libicui18n.so.67:_ZNK6icu_676number9Precision12withCurrencyERKNS_12CurrencyUnitER10UErrorCode
libicui18n.so.67:_ZNK6icu_677Measure17getDynamicClassIDEv
libicui18n.so.67:_ZNK6icu_677Measure5cloneEv
libicui18n.so.67:_ZNK6icu_677MeasureeqERKNS_7UObjectE
libicui18n.so.67:_ZNK6icu_678CFactory14getDisplayNameERKNS_13UnicodeStringERKNS_6LocaleERS1_
libicui18n.so.67:_ZNK6icu_678CFactory6createERKNS_13ICUServiceKeyEPKNS_10ICUServiceER10UErrorCode
libicui18n.so.67:_ZNK6icu_678Calendar10getMaximumE19UCalendarDateFields
libicui18n.so.67:_ZNK6icu_678Calendar10getMaximumENS0_11EDateFieldsE
libicui18n.so.67:_ZNK6icu_678Calendar10getMinimumE19UCalendarDateFields
libicui18n.so.67:_ZNK6icu_678Calendar10getMinimumENS0_11EDateFieldsE
libicui18n.so.67:_ZNK6icu_678Calendar10newerFieldE19UCalendarDateFieldsS1_
libicui18n.so.67:_ZNK6icu_678Calendar11getLocaleIDE18ULocDataLocaleTypeR10UErrorCode
libicui18n.so.67:_ZNK6icu_678Calendar11getTimeZoneEv
libicui18n.so.67:_ZNK6icu_678Calendar11newestStampE19UCalendarDateFieldsS1_i
libicui18n.so.67:_ZNK6icu_678Calendar14getRelatedYearER10UErrorCode
libicui18n.so.67:_ZNK6icu_678Calendar14isEquivalentToERKS0_
libicui18n.so.67:_ZNK6icu_678Calendar15getActualHelperE19UCalendarDateFieldsiiR10UErrorCode
libicui18n.so.67:_ZNK6icu_678Calendar15getLeastMaximumE19UCalendarDateFields
libicui18n.so.67:_ZNK6icu_678Calendar15getLeastMaximumENS0_11EDateFieldsE
libicui18n.so.67:_ZNK6icu_678Calendar15getTimeInMillisER10UErrorCode
libicui18n.so.67:_ZNK6icu_678Calendar16getActualMaximumE19UCalendarDateFieldsR10UErrorCode
libicui18n.so.67:_ZNK6icu_678Calendar16getActualMinimumE19UCalendarDateFieldsR10UErrorCode
libicui18n.so.67:_ZNK6icu_678Calendar16getActualMinimumENS0_11EDateFieldsER10UErrorCode
libicui18n.so.67:_ZNK6icu_678Calendar16getBasicTimeZoneEv
libicui18n.so.67:_ZNK6icu_678Calendar16getDayOfWeekTypeE19UCalendarDaysOfWeekR10UErrorCode
libicui18n.so.67:_ZNK6icu_678Calendar17getFirstDayOfWeekER10UErrorCode
libicui18n.so.67:_ZNK6icu_678Calendar17getFirstDayOfWeekEv
libicui18n.so.67:_ZNK6icu_678Calendar18getGreatestMinimumE19UCalendarDateFields
libicui18n.so.67:_ZNK6icu_678Calendar18getGreatestMinimumENS0_11EDateFieldsE
libicui18n.so.67:_ZNK6icu_678Calendar19handleGetYearLengthEi
libicui18n.so.67:_ZNK6icu_678Calendar20getWeekendTransitionE19UCalendarDaysOfWeekR10UErrorCode
libicui18n.so.67:_ZNK6icu_678Calendar20handleGetMonthLengthEii
libicui18n.so.67:_ZNK6icu_678Calendar23getFieldResolutionTableEv
libicui18n.so.67:_ZNK6icu_678Calendar24getSkippedWallTimeOptionEv
libicui18n.so.67:_ZNK6icu_678Calendar25getMinimalDaysInFirstWeekEv
libicui18n.so.67:_ZNK6icu_678Calendar25getRepeatedWallTimeOptionEv
libicui18n.so.67:_ZNK6icu_678Calendar34getImmediatePreviousZoneTransitionEdPdR10UErrorCode
libicui18n.so.67:_ZNK6icu_678Calendar3getE19UCalendarDateFieldsR10UErrorCode
libicui18n.so.67:_ZNK6icu_678Calendar5afterERKS0_R10UErrorCode
libicui18n.so.67:_ZNK6icu_678Calendar5isSetE19UCalendarDateFields
libicui18n.so.67:_ZNK6icu_678Calendar6beforeERKS0_R10UErrorCode
libicui18n.so.67:_ZNK6icu_678Calendar6equalsERKS0_R10UErrorCode
libicui18n.so.67:_ZNK6icu_678Calendar8getLimitE19UCalendarDateFieldsNS0_10ELimitTypeE
libicui18n.so.67:_ZNK6icu_678Calendar9getLocaleE18ULocDataLocaleTypeR10UErrorCode
libicui18n.so.67:_ZNK6icu_678Calendar9isLenientEv
libicui18n.so.67:_ZNK6icu_678Calendar9isWeekendEdR10UErrorCode
libicui18n.so.67:_ZNK6icu_678Calendar9isWeekendEv
libicui18n.so.67:_ZNK6icu_678CalendareqERKS0_
libicui18n.so.67:_ZNK6icu_678Collator11compareUTF8ERKNS_11StringPieceES3_R10UErrorCode
libicui18n.so.67:_ZNK6icu_678Collator11getStrengthEv
libicui18n.so.67:_ZNK6icu_678Collator14getMaxVariableEv
libicui18n.so.67:_ZNK6icu_678Collator14getTailoredSetER10UErrorCode
libicui18n.so.67:_ZNK6icu_678Collator14greaterOrEqualERKNS_13UnicodeStringES3_
libicui18n.so.67:_ZNK6icu_678Collator15getReorderCodesEPiiR10UErrorCode
libicui18n.so.67:_ZNK6icu_678Collator19internalCompareUTF8EPKciS2_iR10UErrorCode
libicui18n.so.67:_ZNK6icu_678Collator23internalNextSortKeyPartEP13UCharIteratorPjPhiR10UErrorCode
libicui18n.so.67:_ZNK6icu_678Collator32internalGetShortDefinitionStringEPKcPciR10UErrorCode
libicui18n.so.67:_ZNK6icu_678Collator6equalsERKNS_13UnicodeStringES3_
libicui18n.so.67:_ZNK6icu_678Collator7compareEPKDsiS2_i
libicui18n.so.67:_ZNK6icu_678Collator7compareER13UCharIteratorS2_R10UErrorCode
libicui18n.so.67:_ZNK6icu_678Collator7compareERKNS_13UnicodeStringES3_
libicui18n.so.67:_ZNK6icu_678Collator7compareERKNS_13UnicodeStringES3_i
libicui18n.so.67:_ZNK6icu_678Collator7greaterERKNS_13UnicodeStringES3_
libicui18n.so.67:_ZNK6icu_678Collator9safeCloneEv
libicui18n.so.67:_ZNK6icu_678CollatoreqERKS0_
libicui18n.so.67:_ZNK6icu_678CollatorneERKS0_
libicui18n.so.67:_ZNK6icu_678EraRules11getEraIndexEiiiR10UErrorCode
libicui18n.so.67:_ZNK6icu_678EraRules12getStartDateEiRA3_iR10UErrorCode
libicui18n.so.67:_ZNK6icu_678EraRules12getStartYearEiR10UErrorCode
libicui18n.so.67:_ZNK6icu_678TZGNCore13findBestMatchERKNS_13UnicodeStringEijRS1_R23UTimeZoneFormatTimeTypeR10UErrorCode
libicui18n.so.67:_ZNK6icu_678TZGNCore14getDisplayNameERKNS_8TimeZoneE24UTimeZoneGenericNameTypedRNS_13UnicodeStringE
libicui18n.so.67:_ZNK6icu_678TZGNCore17findTimeZoneNamesERKNS_13UnicodeStringEijR10UErrorCode
libicui18n.so.67:_ZNK6icu_678TZGNCore22getGenericLocationNameERKNS_13UnicodeStringERS1_
libicui18n.so.67:_ZNK6icu_678TZGNCore22getPartialLocationNameERKNS_13UnicodeStringES3_aS3_RS1_
libicui18n.so.67:_ZNK6icu_678TZGNCore28formatGenericNonLocationNameERKNS_8TimeZoneE24UTimeZoneGenericNameTypedRNS_13UnicodeStringE
libicui18n.so.67:_ZNK6icu_678TZGNCore9findLocalERKNS_13UnicodeStringEijR10UErrorCode
libicui18n.so.67:_ZNK6icu_678TimeUnit16getTimeUnitFieldEv
libicui18n.so.67:_ZNK6icu_678TimeUnit17getDynamicClassIDEv
libicui18n.so.67:_ZNK6icu_678TimeUnit5cloneEv
libicui18n.so.67:_ZNK6icu_678TimeZone12hasSameRulesERKS0_
libicui18n.so.67:_ZNK6icu_678TimeZone13getDSTSavingsEv
libicui18n.so.67:_ZNK6icu_678TimeZone14getDisplayNameERKNS_6LocaleERNS_13UnicodeStringE
libicui18n.so.67:_ZNK6icu_678TimeZone14getDisplayNameERNS_13UnicodeStringE
libicui18n.so.67:_ZNK6icu_678TimeZone14getDisplayNameEaNS0_12EDisplayTypeERKNS_6LocaleERNS_13UnicodeStringE
libicui18n.so.67:_ZNK6icu_678TimeZone14getDisplayNameEaNS0_12EDisplayTypeERNS_13UnicodeStringE
libicui18n.so.67:_ZNK6icu_678TimeZone9getOffsetEdaRiS1_R10UErrorCode
libicui18n.so.67:_ZNK6icu_678TimeZoneeqERKS0_
libicui18n.so.67:_ZNK6icu_678numparse4impl10NanMatcher10isDisabledERKNS1_12ParsedNumberE
libicui18n.so.67:_ZNK6icu_678numparse4impl10NanMatcher6acceptERNS_13StringSegmentERNS1_12ParsedNumberE
libicui18n.so.67:_ZNK6icu_678numparse4impl12AffixMatcher11postProcessERNS1_12ParsedNumberE
libicui18n.so.67:_ZNK6icu_678numparse4impl12AffixMatcher5matchERNS_13StringSegmentERNS1_12ParsedNumberER10UErrorCode
libicui18n.so.67:_ZNK6icu_678numparse4impl12AffixMatcher8toStringEv
libicui18n.so.67:_ZNK6icu_678numparse4impl12AffixMatcher9compareToERKS2_
libicui18n.so.67:_ZNK6icu_678numparse4impl12AffixMatcher9smokeTestERKNS_13StringSegmentE
libicui18n.so.67:_ZNK6icu_678numparse4impl12ParsedNumber10seenNumberEv
libicui18n.so.67:_ZNK6icu_678numparse4impl12ParsedNumber19populateFormattableERNS_11FormattableEi
libicui18n.so.67:_ZNK6icu_678numparse4impl12ParsedNumber7successEv
libicui18n.so.67:_ZNK6icu_678numparse4impl12ParsedNumber9getDoubleER10UErrorCode
libicui18n.so.67:_ZNK6icu_678numparse4impl13SeriesMatcher11postProcessERNS1_12ParsedNumberE
libicui18n.so.67:_ZNK6icu_678numparse4impl13SeriesMatcher5matchERNS_13StringSegmentERNS1_12ParsedNumberER10UErrorCode
libicui18n.so.67:_ZNK6icu_678numparse4impl13SeriesMatcher9smokeTestERKNS_13StringSegmentE
libicui18n.so.67:_ZNK6icu_678numparse4impl13SymbolMatcher5matchERNS_13StringSegmentERNS1_12ParsedNumberER10UErrorCode
libicui18n.so.67:_ZNK6icu_678numparse4impl13SymbolMatcher6getSetEv
libicui18n.so.67:_ZNK6icu_678numparse4impl13SymbolMatcher8toStringEv
libicui18n.so.67:_ZNK6icu_678numparse4impl13SymbolMatcher9smokeTestERKNS_13StringSegmentE
libicui18n.so.67:_ZNK6icu_678numparse4impl14DecimalMatcher13validateGroupEiib
libicui18n.so.67:_ZNK6icu_678numparse4impl14DecimalMatcher5matchERNS_13StringSegmentERNS1_12ParsedNumberER10UErrorCode
libicui18n.so.67:_ZNK6icu_678numparse4impl14DecimalMatcher5matchERNS_13StringSegmentERNS1_12ParsedNumberEaR10UErrorCode
libicui18n.so.67:_ZNK6icu_678numparse4impl14DecimalMatcher8toStringEv
libicui18n.so.67:_ZNK6icu_678numparse4impl14DecimalMatcher9smokeTestERKNS_13StringSegmentE
libicui18n.so.67:_ZNK6icu_678numparse4impl14PaddingMatcher10isDisabledERKNS1_12ParsedNumberE
libicui18n.so.67:_ZNK6icu_678numparse4impl14PaddingMatcher10isFlexibleEv
libicui18n.so.67:_ZNK6icu_678numparse4impl14PaddingMatcher6acceptERNS_13StringSegmentERNS1_12ParsedNumberE
libicui18n.so.67:_ZNK6icu_678numparse4impl14PercentMatcher10isDisabledERKNS1_12ParsedNumberE
libicui18n.so.67:_ZNK6icu_678numparse4impl14PercentMatcher6acceptERNS_13StringSegmentERNS1_12ParsedNumberE
libicui18n.so.67:_ZNK6icu_678numparse4impl15InfinityMatcher10isDisabledERKNS1_12ParsedNumberE
libicui18n.so.67:_ZNK6icu_678numparse4impl15InfinityMatcher6acceptERNS_13StringSegmentERNS1_12ParsedNumberE
libicui18n.so.67:_ZNK6icu_678numparse4impl15PermilleMatcher10isDisabledERKNS1_12ParsedNumberE
libicui18n.so.67:_ZNK6icu_678numparse4impl15PermilleMatcher6acceptERNS_13StringSegmentERNS1_12ParsedNumberE
libicui18n.so.67:_ZNK6icu_678numparse4impl15PlusSignMatcher10isDisabledERKNS1_12ParsedNumberE
libicui18n.so.67:_ZNK6icu_678numparse4impl15PlusSignMatcher6acceptERNS_13StringSegmentERNS1_12ParsedNumberE
libicui18n.so.67:_ZNK6icu_678numparse4impl16CodePointMatcher5matchERNS_13StringSegmentERNS1_12ParsedNumberER10UErrorCode
libicui18n.so.67:_ZNK6icu_678numparse4impl16CodePointMatcher8toStringEv
libicui18n.so.67:_ZNK6icu_678numparse4impl16CodePointMatcher9smokeTestERKNS_13StringSegmentE
libicui18n.so.67:_ZNK6icu_678numparse4impl16MinusSignMatcher10isDisabledERKNS1_12ParsedNumberE
libicui18n.so.67:_ZNK6icu_678numparse4impl16MinusSignMatcher6acceptERNS_13StringSegmentERNS1_12ParsedNumberE
libicui18n.so.67:_ZNK6icu_678numparse4impl16NumberParserImpl11parseGreedyERNS_13StringSegmentERNS1_12ParsedNumberER10UErrorCode
libicui18n.so.67:_ZNK6icu_678numparse4impl16NumberParserImpl13getParseFlagsEv
libicui18n.so.67:_ZNK6icu_678numparse4impl16NumberParserImpl21parseLongestRecursiveERNS_13StringSegmentERNS1_12ParsedNumberEiR10UErrorCode
libicui18n.so.67:_ZNK6icu_678numparse4impl16NumberParserImpl5parseERKNS_13UnicodeStringEbRNS1_12ParsedNumberER10UErrorCode
libicui18n.so.67:_ZNK6icu_678numparse4impl16NumberParserImpl5parseERKNS_13UnicodeStringEibRNS1_12ParsedNumberER10UErrorCode
libicui18n.so.67:_ZNK6icu_678numparse4impl16NumberParserImpl8toStringEv
libicui18n.so.67:_ZNK6icu_678numparse4impl17IgnorablesMatcher10isDisabledERKNS1_12ParsedNumberE
libicui18n.so.67:_ZNK6icu_678numparse4impl17IgnorablesMatcher10isFlexibleEv
libicui18n.so.67:_ZNK6icu_678numparse4impl17IgnorablesMatcher6acceptERNS_13StringSegmentERNS1_12ParsedNumberE
libicui18n.so.67:_ZNK6icu_678numparse4impl17IgnorablesMatcher8toStringEv
libicui18n.so.67:_ZNK6icu_678numparse4impl17ScientificMatcher5matchERNS_13StringSegmentERNS1_12ParsedNumberER10UErrorCode
libicui18n.so.67:_ZNK6icu_678numparse4impl17ScientificMatcher8toStringEv
libicui18n.so.67:_ZNK6icu_678numparse4impl17ScientificMatcher9smokeTestERKNS_13StringSegmentE
libicui18n.so.67:_ZNK6icu_678numparse4impl18ArraySeriesMatcher3endEv
libicui18n.so.67:_ZNK6icu_678numparse4impl18ArraySeriesMatcher5beginEv
libicui18n.so.67:_ZNK6icu_678numparse4impl18ArraySeriesMatcher6lengthEv
libicui18n.so.67:_ZNK6icu_678numparse4impl18ArraySeriesMatcher8toStringEv
libicui18n.so.67:_ZNK6icu_678numparse4impl19AffixPatternMatcher10getPatternEv
libicui18n.so.67:_ZNK6icu_678numparse4impl19AffixPatternMatchereqERKS2_
libicui18n.so.67:_ZNK6icu_678numparse4impl21RequireAffixValidator11postProcessERNS1_12ParsedNumberE
libicui18n.so.67:_ZNK6icu_678numparse4impl21RequireAffixValidator8toStringEv
libicui18n.so.67:_ZNK6icu_678numparse4impl22MultiplierParseHandler11postProcessERNS1_12ParsedNumberE
libicui18n.so.67:_ZNK6icu_678numparse4impl22MultiplierParseHandler8toStringEv
libicui18n.so.67:_ZNK6icu_678numparse4impl22RequireNumberValidator11postProcessERNS1_12ParsedNumberE
libicui18n.so.67:_ZNK6icu_678numparse4impl22RequireNumberValidator8toStringEv
libicui18n.so.67:_ZNK6icu_678numparse4impl23CombinedCurrencyMatcher13matchCurrencyERNS_13StringSegmentERNS1_12ParsedNumberER10UErrorCode
libicui18n.so.67:_ZNK6icu_678numparse4impl23CombinedCurrencyMatcher5matchERNS_13StringSegmentERNS1_12ParsedNumberER10UErrorCode
libicui18n.so.67:_ZNK6icu_678numparse4impl23CombinedCurrencyMatcher8toStringEv
libicui18n.so.67:_ZNK6icu_678numparse4impl23CombinedCurrencyMatcher9smokeTestERKNS_13StringSegmentE
libicui18n.so.67:_ZNK6icu_678numparse4impl24RequireCurrencyValidator11postProcessERNS1_12ParsedNumberE
libicui18n.so.67:_ZNK6icu_678numparse4impl24RequireCurrencyValidator8toStringEv
libicui18n.so.67:_ZNK6icu_678numparse4impl32RequireDecimalSeparatorValidator11postProcessERNS1_12ParsedNumberE
libicui18n.so.67:_ZNK6icu_678numparse4impl32RequireDecimalSeparatorValidator8toStringEv
libicui18n.so.67:_ZNK6icu_679InputText5isSetEv
libicui18n.so.67:_ZNK6icu_679NFRuleSet11appendRulesERNS_13UnicodeStringE
libicui18n.so.67:_ZNK6icu_679NFRuleSet14findDoubleRuleEd
libicui18n.so.67:_ZNK6icu_679NFRuleSet14findNormalRuleEl
libicui18n.so.67:_ZNK6icu_679NFRuleSet23findFractionRuleSetRuleEd
libicui18n.so.67:_ZNK6icu_679NFRuleSet5parseERKNS_13UnicodeStringERNS_13ParsePositionEdjRNS_11FormattableE
libicui18n.so.67:_ZNK6icu_679NFRuleSet6formatEdRNS_13UnicodeStringEiiR10UErrorCode
libicui18n.so.67:_ZNK6icu_679NFRuleSet6formatElRNS_13UnicodeStringEiiR10UErrorCode
libicui18n.so.67:_ZNK6icu_679NFRuleSeteqERKS0_
libicui18n.so.67:_ZNK6icu_679PCEBuffer7isEmptyEv
libicui18n.so.67:_ZNK6icu_679ParseData13lookupMatcherEi
libicui18n.so.67:_ZNK6icu_679ParseData14parseReferenceERKNS_13UnicodeStringERNS_13ParsePositionEi
libicui18n.so.67:_ZNK6icu_679ParseData6lookupERKNS_13UnicodeStringE
libicui18n.so.67:_ZNK6icu_679RCEBuffer7isEmptyEv
libicui18n.so.67:_ZNK6icu_679RuleChain11getKeywordsEiPNS_13UnicodeStringERi
libicui18n.so.67:_ZNK6icu_679RuleChain6selectERKNS_13IFixedDecimalE
libicui18n.so.67:_ZNK6icu_679RuleChain9isKeywordERKNS_13UnicodeStringE
libicui18n.so.67:_ZNK6icu_679ScriptSet10intersectsERKS0_
libicui18n.so.67:_ZNK6icu_679ScriptSet10nextSetBitEi
libicui18n.so.67:_ZNK6icu_679ScriptSet12countMembersEv
libicui18n.so.67:_ZNK6icu_679ScriptSet14displayScriptsERNS_13UnicodeStringE
libicui18n.so.67:_ZNK6icu_679ScriptSet4testE11UScriptCodeR10UErrorCode
libicui18n.so.67:_ZNK6icu_679ScriptSet7isEmptyEv
libicui18n.so.67:_ZNK6icu_679ScriptSet8containsERKS0_
libicui18n.so.67:_ZNK6icu_679ScriptSet8hashCodeEv
libicui18n.so.67:_ZNK6icu_679ScriptSeteqERKS0_
libicui18n.so.67:_ZNK6icu_679SpoofData11codePointAtEi
libicui18n.so.67:_ZNK6icu_679SpoofData13appendValueToEiRNS_13UnicodeStringE
libicui18n.so.67:_ZNK6icu_679SpoofData16confusableLookupEiRNS_13UnicodeStringE
libicui18n.so.67:_ZNK6icu_679SpoofData19validateDataVersionER10UErrorCode
libicui18n.so.67:_ZNK6icu_679SpoofData4sizeEv
libicui18n.so.67:_ZNK6icu_679SpoofData6lengthEv
libicui18n.so.67:_ZNK6icu_679SpoofData9serializeEPviR10UErrorCode
libicui18n.so.67:_ZNK6icu_679SpoofImpl11getNumericsERKNS_13UnicodeStringERNS_10UnicodeSetER10UErrorCode
libicui18n.so.67:_ZNK6icu_679SpoofImpl17findHiddenOverlayERKNS_13UnicodeStringER10UErrorCode
libicui18n.so.67:_ZNK6icu_679SpoofImpl17getDynamicClassIDEv
libicui18n.so.67:_ZNK6icu_679SpoofImpl19getRestrictionLevelERKNS_13UnicodeStringER10UErrorCode
libicui18n.so.67:_ZNK6icu_679SpoofImpl20getResolvedScriptSetERKNS_13UnicodeStringERNS_9ScriptSetER10UErrorCode
libicui18n.so.67:_ZNK6icu_679SpoofImpl27getResolvedScriptSetWithoutERKNS_13UnicodeStringE11UScriptCodeRNS_9ScriptSetER10UErrorCode
libicui18n.so.67:_ZNK6icu_679SpoofImpl34isIllegalCombiningDotLeadCharacterEi
libicui18n.so.67:_ZNK6icu_679TZDBNames15getParseRegionsERi
libicui18n.so.67:_ZNK6icu_679TZDBNames7getNameE17UTimeZoneNameType
libicui18n.so.67:_ZNK6icu_679VTimeZone10beginRRULEERNS_9VTZWriterEiR10UErrorCode
libicui18n.so.67:_ZNK6icu_679VTimeZone11appendUNTILERNS_9VTZWriterERKNS_13UnicodeStringER10UErrorCode
libicui18n.so.67:_ZNK6icu_679VTimeZone11writeFooterERNS_9VTZWriterER10UErrorCode
libicui18n.so.67:_ZNK6icu_679VTimeZone11writeSimpleEdRNS_13UnicodeStringER10UErrorCode
libicui18n.so.67:_ZNK6icu_679VTimeZone11writeSimpleEdRNS_9VTZWriterER10UErrorCode
libicui18n.so.67:_ZNK6icu_679VTimeZone12endZonePropsERNS_9VTZWriterEaR10UErrorCode
libicui18n.so.67:_ZNK6icu_679VTimeZone12getRawOffsetEv
libicui18n.so.67:_ZNK6icu_679VTimeZone12hasSameRulesERKNS_8TimeZoneE
libicui18n.so.67:_ZNK6icu_679VTimeZone12writeHeadersERNS_9VTZWriterER10UErrorCode
libicui18n.so.67:_ZNK6icu_679VTimeZone14beginZonePropsERNS_9VTZWriterEaRKNS_13UnicodeStringEiidR10UErrorCode
libicui18n.so.67:_ZNK6icu_679VTimeZone14inDaylightTimeEdR10UErrorCode
libicui18n.so.67:_ZNK6icu_679VTimeZone14writeFinalRuleERNS_9VTZWriterEaPKNS_18AnnualTimeZoneRuleEiidR10UErrorCode
libicui18n.so.67:_ZNK6icu_679VTimeZone15getLastModifiedERd
libicui18n.so.67:_ZNK6icu_679VTimeZone15useDaylightTimeEv
libicui18n.so.67:_ZNK6icu_679VTimeZone16getTimeZoneRulesERPKNS_19InitialTimeZoneRuleEPPKNS_12TimeZoneRuleERiR10UErrorCode
libicui18n.so.67:_ZNK6icu_679VTimeZone17getDynamicClassIDEv
libicui18n.so.67:_ZNK6icu_679VTimeZone17getNextTransitionEdaRNS_18TimeZoneTransitionE
libicui18n.so.67:_ZNK6icu_679VTimeZone19writeZonePropsByDOMERNS_9VTZWriterEaRKNS_13UnicodeStringEiiiiddR10UErrorCode
libicui18n.so.67:_ZNK6icu_679VTimeZone19writeZonePropsByDOWERNS_9VTZWriterEaRKNS_13UnicodeStringEiiiiiddR10UErrorCode
libicui18n.so.67:_ZNK6icu_679VTimeZone20countTransitionRulesER10UErrorCode
libicui18n.so.67:_ZNK6icu_679VTimeZone20writeZonePropsByTimeERNS_9VTZWriterEaRKNS_13UnicodeStringEiidaR10UErrorCode
libicui18n.so.67:_ZNK6icu_679VTimeZone21getPreviousTransitionEdaRNS_18TimeZoneTransitionE
libicui18n.so.67:_ZNK6icu_679VTimeZone27writeZonePropsByDOW_GEQ_DOMERNS_9VTZWriterEaRKNS_13UnicodeStringEiiiiiddR10UErrorCode
libicui18n.so.67:_ZNK6icu_679VTimeZone27writeZonePropsByDOW_LEQ_DOMERNS_9VTZWriterEaRKNS_13UnicodeStringEiiiiiddR10UErrorCode
libicui18n.so.67:_ZNK6icu_679VTimeZone31writeZonePropsByDOW_GEQ_DOM_subERNS_9VTZWriterEiiiidiR10UErrorCode
libicui18n.so.67:_ZNK6icu_679VTimeZone5cloneEv
libicui18n.so.67:_ZNK6icu_679VTimeZone5writeERNS_13UnicodeStringER10UErrorCode
libicui18n.so.67:_ZNK6icu_679VTimeZone5writeERNS_9VTZWriterER10UErrorCode
libicui18n.so.67:_ZNK6icu_679VTimeZone5writeEdRNS_13UnicodeStringER10UErrorCode
libicui18n.so.67:_ZNK6icu_679VTimeZone5writeEdRNS_9VTZWriterER10UErrorCode
libicui18n.so.67:_ZNK6icu_679VTimeZone8getTZURLERNS_13UnicodeStringE
libicui18n.so.67:_ZNK6icu_679VTimeZone9getOffsetEdaRiS1_R10UErrorCode
libicui18n.so.67:_ZNK6icu_679VTimeZone9getOffsetEhiiihiR10UErrorCode
libicui18n.so.67:_ZNK6icu_679VTimeZone9getOffsetEhiiihiiR10UErrorCode
libicui18n.so.67:_ZNK6icu_679VTimeZone9writeZoneERNS_9VTZWriterERNS_13BasicTimeZoneEPNS_7UVectorER10UErrorCode
libicui18n.so.67:_ZNK6icu_679VTimeZoneeqERKNS_8TimeZoneE
libicui18n.so.67:_ZNK6icu_679VTimeZoneneERKNS_8TimeZoneE
libicui18n.so.67:_ZNKR6icu_676number23NumberFormatterSettingsINS0_24LocalizedNumberFormatterEE12adoptPerUnitEPNS_11MeasureUnitE
libicui18n.so.67:_ZNKR6icu_676number23NumberFormatterSettingsINS0_24LocalizedNumberFormatterEE12adoptSymbolsEPNS_15NumberingSystemE
libicui18n.so.67:_ZNKR6icu_676number23NumberFormatterSettingsINS0_24LocalizedNumberFormatterEE12integerWidthERKNS0_12IntegerWidthE
libicui18n.so.67:_ZNKR6icu_676number23NumberFormatterSettingsINS0_24LocalizedNumberFormatterEE12roundingModeE25UNumberFormatRoundingMode
libicui18n.so.67:_ZNKR6icu_676number23NumberFormatterSettingsINS0_24LocalizedNumberFormatterEE4signE18UNumberSignDisplay
libicui18n.so.67:_ZNKR6icu_676number23NumberFormatterSettingsINS0_24LocalizedNumberFormatterEE4unitERKNS_11MeasureUnitE
libicui18n.so.67:_ZNKR6icu_676number23NumberFormatterSettingsINS0_24LocalizedNumberFormatterEE5cloneEv
libicui18n.so.67:_ZNKR6icu_676number23NumberFormatterSettingsINS0_24LocalizedNumberFormatterEE5scaleERKNS0_5ScaleE
libicui18n.so.67:_ZNKR6icu_676number23NumberFormatterSettingsINS0_24LocalizedNumberFormatterEE6macrosEONS0_4impl10MacroPropsE
libicui18n.so.67:_ZNKR6icu_676number23NumberFormatterSettingsINS0_24LocalizedNumberFormatterEE6macrosERKNS0_4impl10MacroPropsE
libicui18n.so.67:_ZNKR6icu_676number23NumberFormatterSettingsINS0_24LocalizedNumberFormatterEE7decimalE30UNumberDecimalSeparatorDisplay
libicui18n.so.67:_ZNKR6icu_676number23NumberFormatterSettingsINS0_24LocalizedNumberFormatterEE7paddingERKNS0_4impl6PadderE
libicui18n.so.67:_ZNKR6icu_676number23NumberFormatterSettingsINS0_24LocalizedNumberFormatterEE7perUnitERKNS_11MeasureUnitE
libicui18n.so.67:_ZNKR6icu_676number23NumberFormatterSettingsINS0_24LocalizedNumberFormatterEE7symbolsERKNS_20DecimalFormatSymbolsE
libicui18n.so.67:_ZNKR6icu_676number23NumberFormatterSettingsINS0_24LocalizedNumberFormatterEE8groupingE23UNumberGroupingStrategy
libicui18n.so.67:_ZNKR6icu_676number23NumberFormatterSettingsINS0_24LocalizedNumberFormatterEE8notationERKNS0_8NotationE
libicui18n.so.67:_ZNKR6icu_676number23NumberFormatterSettingsINS0_24LocalizedNumberFormatterEE9adoptUnitEPNS_11MeasureUnitE
libicui18n.so.67:_ZNKR6icu_676number23NumberFormatterSettingsINS0_24LocalizedNumberFormatterEE9precisionERKNS0_9PrecisionE
libicui18n.so.67:_ZNKR6icu_676number23NumberFormatterSettingsINS0_24LocalizedNumberFormatterEE9thresholdEi
libicui18n.so.67:_ZNKR6icu_676number23NumberFormatterSettingsINS0_24LocalizedNumberFormatterEE9unitWidthE16UNumberUnitWidth
libicui18n.so.67:_ZNKR6icu_676number23NumberFormatterSettingsINS0_26UnlocalizedNumberFormatterEE12adoptPerUnitEPNS_11MeasureUnitE
libicui18n.so.67:_ZNKR6icu_676number23NumberFormatterSettingsINS0_26UnlocalizedNumberFormatterEE12adoptSymbolsEPNS_15NumberingSystemE
libicui18n.so.67:_ZNKR6icu_676number23NumberFormatterSettingsINS0_26UnlocalizedNumberFormatterEE12integerWidthERKNS0_12IntegerWidthE
libicui18n.so.67:_ZNKR6icu_676number23NumberFormatterSettingsINS0_26UnlocalizedNumberFormatterEE12roundingModeE25UNumberFormatRoundingMode
libicui18n.so.67:_ZNKR6icu_676number23NumberFormatterSettingsINS0_26UnlocalizedNumberFormatterEE4signE18UNumberSignDisplay
libicui18n.so.67:_ZNKR6icu_676number23NumberFormatterSettingsINS0_26UnlocalizedNumberFormatterEE4unitERKNS_11MeasureUnitE
libicui18n.so.67:_ZNKR6icu_676number23NumberFormatterSettingsINS0_26UnlocalizedNumberFormatterEE5cloneEv
libicui18n.so.67:_ZNKR6icu_676number23NumberFormatterSettingsINS0_26UnlocalizedNumberFormatterEE5scaleERKNS0_5ScaleE
libicui18n.so.67:_ZNKR6icu_676number23NumberFormatterSettingsINS0_26UnlocalizedNumberFormatterEE6macrosEONS0_4impl10MacroPropsE
libicui18n.so.67:_ZNKR6icu_676number23NumberFormatterSettingsINS0_26UnlocalizedNumberFormatterEE6macrosERKNS0_4impl10MacroPropsE
libicui18n.so.67:_ZNKR6icu_676number23NumberFormatterSettingsINS0_26UnlocalizedNumberFormatterEE7decimalE30UNumberDecimalSeparatorDisplay
libicui18n.so.67:_ZNKR6icu_676number23NumberFormatterSettingsINS0_26UnlocalizedNumberFormatterEE7paddingERKNS0_4impl6PadderE
libicui18n.so.67:_ZNKR6icu_676number23NumberFormatterSettingsINS0_26UnlocalizedNumberFormatterEE7perUnitERKNS_11MeasureUnitE
libicui18n.so.67:_ZNKR6icu_676number23NumberFormatterSettingsINS0_26UnlocalizedNumberFormatterEE7symbolsERKNS_20DecimalFormatSymbolsE
libicui18n.so.67:_ZNKR6icu_676number23NumberFormatterSettingsINS0_26UnlocalizedNumberFormatterEE8groupingE23UNumberGroupingStrategy
libicui18n.so.67:_ZNKR6icu_676number23NumberFormatterSettingsINS0_26UnlocalizedNumberFormatterEE8notationERKNS0_8NotationE
libicui18n.so.67:_ZNKR6icu_676number23NumberFormatterSettingsINS0_26UnlocalizedNumberFormatterEE9adoptUnitEPNS_11MeasureUnitE
libicui18n.so.67:_ZNKR6icu_676number23NumberFormatterSettingsINS0_26UnlocalizedNumberFormatterEE9precisionERKNS0_9PrecisionE
libicui18n.so.67:_ZNKR6icu_676number23NumberFormatterSettingsINS0_26UnlocalizedNumberFormatterEE9thresholdEi
libicui18n.so.67:_ZNKR6icu_676number23NumberFormatterSettingsINS0_26UnlocalizedNumberFormatterEE9unitWidthE16UNumberUnitWidth
libicui18n.so.67:_ZNKR6icu_676number26UnlocalizedNumberFormatter6localeERKNS_6LocaleE
libicui18n.so.67:_ZNKR6icu_676number28NumberRangeFormatterSettingsINS0_29LocalizedNumberRangeFormatterEE16identityFallbackE28UNumberRangeIdentityFallback
libicui18n.so.67:_ZNKR6icu_676number28NumberRangeFormatterSettingsINS0_29LocalizedNumberRangeFormatterEE19numberFormatterBothEONS0_26UnlocalizedNumberFormatterE
libicui18n.so.67:_ZNKR6icu_676number28NumberRangeFormatterSettingsINS0_29LocalizedNumberRangeFormatterEE19numberFormatterBothERKNS0_26UnlocalizedNumberFormatterE
libicui18n.so.67:_ZNKR6icu_676number28NumberRangeFormatterSettingsINS0_29LocalizedNumberRangeFormatterEE20numberFormatterFirstEONS0_26UnlocalizedNumberFormatterE
libicui18n.so.67:_ZNKR6icu_676number28NumberRangeFormatterSettingsINS0_29LocalizedNumberRangeFormatterEE20numberFormatterFirstERKNS0_26UnlocalizedNumberFormatterE
libicui18n.so.67:_ZNKR6icu_676number28NumberRangeFormatterSettingsINS0_29LocalizedNumberRangeFormatterEE21numberFormatterSecondEONS0_26UnlocalizedNumberFormatterE
libicui18n.so.67:_ZNKR6icu_676number28NumberRangeFormatterSettingsINS0_29LocalizedNumberRangeFormatterEE21numberFormatterSecondERKNS0_26UnlocalizedNumberFormatterE
libicui18n.so.67:_ZNKR6icu_676number28NumberRangeFormatterSettingsINS0_29LocalizedNumberRangeFormatterEE5cloneEv
libicui18n.so.67:_ZNKR6icu_676number28NumberRangeFormatterSettingsINS0_29LocalizedNumberRangeFormatterEE8collapseE20UNumberRangeCollapse
libicui18n.so.67:_ZNKR6icu_676number28NumberRangeFormatterSettingsINS0_31UnlocalizedNumberRangeFormatterEE16identityFallbackE28UNumberRangeIdentityFallback
libicui18n.so.67:_ZNKR6icu_676number28NumberRangeFormatterSettingsINS0_31UnlocalizedNumberRangeFormatterEE19numberFormatterBothEONS0_26UnlocalizedNumberFormatterE
libicui18n.so.67:_ZNKR6icu_676number28NumberRangeFormatterSettingsINS0_31UnlocalizedNumberRangeFormatterEE19numberFormatterBothERKNS0_26UnlocalizedNumberFormatterE
libicui18n.so.67:_ZNKR6icu_676number28NumberRangeFormatterSettingsINS0_31UnlocalizedNumberRangeFormatterEE20numberFormatterFirstEONS0_26UnlocalizedNumberFormatterE
libicui18n.so.67:_ZNKR6icu_676number28NumberRangeFormatterSettingsINS0_31UnlocalizedNumberRangeFormatterEE20numberFormatterFirstERKNS0_26UnlocalizedNumberFormatterE
libicui18n.so.67:_ZNKR6icu_676number28NumberRangeFormatterSettingsINS0_31UnlocalizedNumberRangeFormatterEE21numberFormatterSecondEONS0_26UnlocalizedNumberFormatterE
libicui18n.so.67:_ZNKR6icu_676number28NumberRangeFormatterSettingsINS0_31UnlocalizedNumberRangeFormatterEE21numberFormatterSecondERKNS0_26UnlocalizedNumberFormatterE
libicui18n.so.67:_ZNKR6icu_676number28NumberRangeFormatterSettingsINS0_31UnlocalizedNumberRangeFormatterEE5cloneEv
libicui18n.so.67:_ZNKR6icu_676number28NumberRangeFormatterSettingsINS0_31UnlocalizedNumberRangeFormatterEE8collapseE20UNumberRangeCollapse
libicui18n.so.67:_ZNKR6icu_676number31UnlocalizedNumberRangeFormatter6localeERKNS_6LocaleE
libicui18n.so.67:_ZNO6icu_6715MeasureUnitImpl5buildER10UErrorCode
libicui18n.so.67:_ZNO6icu_676number23NumberFormatterSettingsINS0_24LocalizedNumberFormatterEE12adoptPerUnitEPNS_11MeasureUnitE
libicui18n.so.67:_ZNO6icu_676number23NumberFormatterSettingsINS0_24LocalizedNumberFormatterEE12adoptSymbolsEPNS_15NumberingSystemE
libicui18n.so.67:_ZNO6icu_676number23NumberFormatterSettingsINS0_24LocalizedNumberFormatterEE12integerWidthERKNS0_12IntegerWidthE
libicui18n.so.67:_ZNO6icu_676number23NumberFormatterSettingsINS0_24LocalizedNumberFormatterEE12roundingModeE25UNumberFormatRoundingMode
libicui18n.so.67:_ZNO6icu_676number23NumberFormatterSettingsINS0_24LocalizedNumberFormatterEE4signE18UNumberSignDisplay
libicui18n.so.67:_ZNO6icu_676number23NumberFormatterSettingsINS0_24LocalizedNumberFormatterEE4unitERKNS_11MeasureUnitE
libicui18n.so.67:_ZNO6icu_676number23NumberFormatterSettingsINS0_24LocalizedNumberFormatterEE5cloneEv
libicui18n.so.67:_ZNO6icu_676number23NumberFormatterSettingsINS0_24LocalizedNumberFormatterEE5scaleERKNS0_5ScaleE
libicui18n.so.67:_ZNO6icu_676number23NumberFormatterSettingsINS0_24LocalizedNumberFormatterEE6macrosEONS0_4impl10MacroPropsE
libicui18n.so.67:_ZNO6icu_676number23NumberFormatterSettingsINS0_24LocalizedNumberFormatterEE6macrosERKNS0_4impl10MacroPropsE
libicui18n.so.67:_ZNO6icu_676number23NumberFormatterSettingsINS0_24LocalizedNumberFormatterEE7decimalE30UNumberDecimalSeparatorDisplay
libicui18n.so.67:_ZNO6icu_676number23NumberFormatterSettingsINS0_24LocalizedNumberFormatterEE7paddingERKNS0_4impl6PadderE
libicui18n.so.67:_ZNO6icu_676number23NumberFormatterSettingsINS0_24LocalizedNumberFormatterEE7perUnitERKNS_11MeasureUnitE
libicui18n.so.67:_ZNO6icu_676number23NumberFormatterSettingsINS0_24LocalizedNumberFormatterEE7symbolsERKNS_20DecimalFormatSymbolsE
libicui18n.so.67:_ZNO6icu_676number23NumberFormatterSettingsINS0_24LocalizedNumberFormatterEE8groupingE23UNumberGroupingStrategy
libicui18n.so.67:_ZNO6icu_676number23NumberFormatterSettingsINS0_24LocalizedNumberFormatterEE8notationERKNS0_8NotationE
libicui18n.so.67:_ZNO6icu_676number23NumberFormatterSettingsINS0_24LocalizedNumberFormatterEE9adoptUnitEPNS_11MeasureUnitE
libicui18n.so.67:_ZNO6icu_676number23NumberFormatterSettingsINS0_24LocalizedNumberFormatterEE9precisionERKNS0_9PrecisionE
libicui18n.so.67:_ZNO6icu_676number23NumberFormatterSettingsINS0_24LocalizedNumberFormatterEE9thresholdEi
libicui18n.so.67:_ZNO6icu_676number23NumberFormatterSettingsINS0_24LocalizedNumberFormatterEE9unitWidthE16UNumberUnitWidth
libicui18n.so.67:_ZNO6icu_676number23NumberFormatterSettingsINS0_26UnlocalizedNumberFormatterEE12adoptPerUnitEPNS_11MeasureUnitE
libicui18n.so.67:_ZNO6icu_676number23NumberFormatterSettingsINS0_26UnlocalizedNumberFormatterEE12adoptSymbolsEPNS_15NumberingSystemE
libicui18n.so.67:_ZNO6icu_676number23NumberFormatterSettingsINS0_26UnlocalizedNumberFormatterEE12integerWidthERKNS0_12IntegerWidthE
libicui18n.so.67:_ZNO6icu_676number23NumberFormatterSettingsINS0_26UnlocalizedNumberFormatterEE12roundingModeE25UNumberFormatRoundingMode
libicui18n.so.67:_ZNO6icu_676number23NumberFormatterSettingsINS0_26UnlocalizedNumberFormatterEE4signE18UNumberSignDisplay
libicui18n.so.67:_ZNO6icu_676number23NumberFormatterSettingsINS0_26UnlocalizedNumberFormatterEE4unitERKNS_11MeasureUnitE
libicui18n.so.67:_ZNO6icu_676number23NumberFormatterSettingsINS0_26UnlocalizedNumberFormatterEE5cloneEv
libicui18n.so.67:_ZNO6icu_676number23NumberFormatterSettingsINS0_26UnlocalizedNumberFormatterEE5scaleERKNS0_5ScaleE
libicui18n.so.67:_ZNO6icu_676number23NumberFormatterSettingsINS0_26UnlocalizedNumberFormatterEE6macrosEONS0_4impl10MacroPropsE
libicui18n.so.67:_ZNO6icu_676number23NumberFormatterSettingsINS0_26UnlocalizedNumberFormatterEE6macrosERKNS0_4impl10MacroPropsE
libicui18n.so.67:_ZNO6icu_676number23NumberFormatterSettingsINS0_26UnlocalizedNumberFormatterEE7decimalE30UNumberDecimalSeparatorDisplay
libicui18n.so.67:_ZNO6icu_676number23NumberFormatterSettingsINS0_26UnlocalizedNumberFormatterEE7paddingERKNS0_4impl6PadderE
libicui18n.so.67:_ZNO6icu_676number23NumberFormatterSettingsINS0_26UnlocalizedNumberFormatterEE7perUnitERKNS_11MeasureUnitE
libicui18n.so.67:_ZNO6icu_676number23NumberFormatterSettingsINS0_26UnlocalizedNumberFormatterEE7symbolsERKNS_20DecimalFormatSymbolsE
libicui18n.so.67:_ZNO6icu_676number23NumberFormatterSettingsINS0_26UnlocalizedNumberFormatterEE8groupingE23UNumberGroupingStrategy
libicui18n.so.67:_ZNO6icu_676number23NumberFormatterSettingsINS0_26UnlocalizedNumberFormatterEE8notationERKNS0_8NotationE
libicui18n.so.67:_ZNO6icu_676number23NumberFormatterSettingsINS0_26UnlocalizedNumberFormatterEE9adoptUnitEPNS_11MeasureUnitE
libicui18n.so.67:_ZNO6icu_676number23NumberFormatterSettingsINS0_26UnlocalizedNumberFormatterEE9precisionERKNS0_9PrecisionE
libicui18n.so.67:_ZNO6icu_676number23NumberFormatterSettingsINS0_26UnlocalizedNumberFormatterEE9thresholdEi
libicui18n.so.67:_ZNO6icu_676number23NumberFormatterSettingsINS0_26UnlocalizedNumberFormatterEE9unitWidthE16UNumberUnitWidth
libicui18n.so.67:_ZNO6icu_676number26UnlocalizedNumberFormatter6localeERKNS_6LocaleE
libicui18n.so.67:_ZNO6icu_676number28NumberRangeFormatterSettingsINS0_29LocalizedNumberRangeFormatterEE16identityFallbackE28UNumberRangeIdentityFallback
libicui18n.so.67:_ZNO6icu_676number28NumberRangeFormatterSettingsINS0_29LocalizedNumberRangeFormatterEE19numberFormatterBothEONS0_26UnlocalizedNumberFormatterE
libicui18n.so.67:_ZNO6icu_676number28NumberRangeFormatterSettingsINS0_29LocalizedNumberRangeFormatterEE19numberFormatterBothERKNS0_26UnlocalizedNumberFormatterE
libicui18n.so.67:_ZNO6icu_676number28NumberRangeFormatterSettingsINS0_29LocalizedNumberRangeFormatterEE20numberFormatterFirstEONS0_26UnlocalizedNumberFormatterE
libicui18n.so.67:_ZNO6icu_676number28NumberRangeFormatterSettingsINS0_29LocalizedNumberRangeFormatterEE20numberFormatterFirstERKNS0_26UnlocalizedNumberFormatterE
libicui18n.so.67:_ZNO6icu_676number28NumberRangeFormatterSettingsINS0_29LocalizedNumberRangeFormatterEE21numberFormatterSecondEONS0_26UnlocalizedNumberFormatterE
libicui18n.so.67:_ZNO6icu_676number28NumberRangeFormatterSettingsINS0_29LocalizedNumberRangeFormatterEE21numberFormatterSecondERKNS0_26UnlocalizedNumberFormatterE
libicui18n.so.67:_ZNO6icu_676number28NumberRangeFormatterSettingsINS0_29LocalizedNumberRangeFormatterEE5cloneEv
libicui18n.so.67:_ZNO6icu_676number28NumberRangeFormatterSettingsINS0_29LocalizedNumberRangeFormatterEE8collapseE20UNumberRangeCollapse
libicui18n.so.67:_ZNO6icu_676number28NumberRangeFormatterSettingsINS0_31UnlocalizedNumberRangeFormatterEE16identityFallbackE28UNumberRangeIdentityFallback
libicui18n.so.67:_ZNO6icu_676number28NumberRangeFormatterSettingsINS0_31UnlocalizedNumberRangeFormatterEE19numberFormatterBothEONS0_26UnlocalizedNumberFormatterE
libicui18n.so.67:_ZNO6icu_676number28NumberRangeFormatterSettingsINS0_31UnlocalizedNumberRangeFormatterEE19numberFormatterBothERKNS0_26UnlocalizedNumberFormatterE
libicui18n.so.67:_ZNO6icu_676number28NumberRangeFormatterSettingsINS0_31UnlocalizedNumberRangeFormatterEE20numberFormatterFirstEONS0_26UnlocalizedNumberFormatterE
libicui18n.so.67:_ZNO6icu_676number28NumberRangeFormatterSettingsINS0_31UnlocalizedNumberRangeFormatterEE20numberFormatterFirstERKNS0_26UnlocalizedNumberFormatterE
libicui18n.so.67:_ZNO6icu_676number28NumberRangeFormatterSettingsINS0_31UnlocalizedNumberRangeFormatterEE21numberFormatterSecondEONS0_26UnlocalizedNumberFormatterE
libicui18n.so.67:_ZNO6icu_676number28NumberRangeFormatterSettingsINS0_31UnlocalizedNumberRangeFormatterEE21numberFormatterSecondERKNS0_26UnlocalizedNumberFormatterE
libicui18n.so.67:_ZNO6icu_676number28NumberRangeFormatterSettingsINS0_31UnlocalizedNumberRangeFormatterEE5cloneEv
libicui18n.so.67:_ZNO6icu_676number28NumberRangeFormatterSettingsINS0_31UnlocalizedNumberRangeFormatterEE8collapseE20UNumberRangeCollapse
libicui18n.so.67:_ZNO6icu_676number31UnlocalizedNumberRangeFormatter6localeERKNS_6LocaleE
libicui18n.so.67:_ZThn16_N6icu_6713StringMatcher7replaceERNS_11ReplaceableEiiRi
libicui18n.so.67:_ZThn16_N6icu_6713StringMatcherD0Ev
libicui18n.so.67:_ZThn16_N6icu_6713StringMatcherD1Ev
libicui18n.so.67:_ZThn16_NK6icu_6713StringMatcher17toReplacerPatternERNS_13UnicodeStringEa
libicui18n.so.67:_ZThn16_NK6icu_6713StringMatcher19addReplacementSetToERNS_10UnicodeSetE
libicui18n.so.67:_ZThn16_NK6icu_676number4impl22MutablePatternModifier9getSymbolENS1_16AffixPatternTypeE
libicui18n.so.67:_ZThn8_N6icu_6710Quantifier7matchesERKNS_11ReplaceableERiia
libicui18n.so.67:_ZThn8_N6icu_6710QuantifierD0Ev
libicui18n.so.67:_ZThn8_N6icu_6710QuantifierD1Ev
libicui18n.so.67:_ZThn8_N6icu_6712FixedDecimalD0Ev
libicui18n.so.67:_ZThn8_N6icu_6712FixedDecimalD1Ev
libicui18n.so.67:_ZThn8_N6icu_6713StringMatcher7matchesERKNS_11ReplaceableERiia
libicui18n.so.67:_ZThn8_N6icu_6713StringMatcherD0Ev
libicui18n.so.67:_ZThn8_N6icu_6713StringMatcherD1Ev
libicui18n.so.67:_ZThn8_N6icu_6714StringReplacer7replaceERNS_11ReplaceableEiiRi
libicui18n.so.67:_ZThn8_N6icu_6714StringReplacerD0Ev
libicui18n.so.67:_ZThn8_N6icu_6714StringReplacerD1Ev
libicui18n.so.67:_ZThn8_N6icu_6716FunctionReplacer7replaceERNS_11ReplaceableEiiRi
libicui18n.so.67:_ZThn8_N6icu_6716FunctionReplacerD0Ev
libicui18n.so.67:_ZThn8_N6icu_6716FunctionReplacerD1Ev
libicui18n.so.67:_ZThn8_N6icu_678numparse4impl26AffixPatternMatcherBuilder10addMatcherERNS1_18NumberParseMatcherE
libicui18n.so.67:_ZThn8_NK6icu_6710Quantifier13addMatchSetToERNS_10UnicodeSetE
libicui18n.so.67:_ZThn8_NK6icu_6710Quantifier17matchesIndexValueEh
libicui18n.so.67:_ZThn8_NK6icu_6710Quantifier9toPatternERNS_13UnicodeStringEa
libicui18n.so.67:_ZThn8_NK6icu_6713StringMatcher13addMatchSetToERNS_10UnicodeSetE
libicui18n.so.67:_ZThn8_NK6icu_6713StringMatcher17matchesIndexValueEh
libicui18n.so.67:_ZThn8_NK6icu_6713StringMatcher9toPatternERNS_13UnicodeStringEa
libicui18n.so.67:_ZThn8_NK6icu_6714StringReplacer17toReplacerPatternERNS_13UnicodeStringEa
libicui18n.so.67:_ZThn8_NK6icu_6714StringReplacer19addReplacementSetToERNS_10UnicodeSetE
libicui18n.so.67:_ZThn8_NK6icu_6716FunctionReplacer17toReplacerPatternERNS_13UnicodeStringEa
libicui18n.so.67:_ZThn8_NK6icu_6716FunctionReplacer19addReplacementSetToERNS_10UnicodeSetE
libicui18n.so.67:_ZThn8_NK6icu_676number4impl15LongNameHandler11getModifierENS1_6SignumENS_14StandardPlural4FormE
libicui18n.so.67:_ZThn8_NK6icu_676number4impl17ScientificHandler13getMultiplierEi
libicui18n.so.67:_ZThn8_NK6icu_676number4impl22MutablePatternModifier13containsFieldENS_22FormattedStringBuilder5FieldE
libicui18n.so.67:_ZThn8_NK6icu_676number4impl22MutablePatternModifier13getParametersERNS1_8Modifier10ParametersE
libicui18n.so.67:_ZThn8_NK6icu_676number4impl22MutablePatternModifier15getPrefixLengthEv
libicui18n.so.67:_ZThn8_NK6icu_676number4impl22MutablePatternModifier17getCodePointCountEv
libicui18n.so.67:_ZThn8_NK6icu_676number4impl22MutablePatternModifier22semanticallyEquivalentERKNS1_8ModifierE
libicui18n.so.67:_ZThn8_NK6icu_676number4impl22MutablePatternModifier5applyERNS_22FormattedStringBuilderEiiR10UErrorCode
libicui18n.so.67:_ZThn8_NK6icu_676number4impl22MutablePatternModifier8isStrongEv
libicui18n.so.67:allowedHourFormatsCleanup_67
libicui18n.so.67:dayPeriodRulesCleanup_67
libicui18n.so.67:deleteAllowedHourFormats_67
libicui18n.so.67:initNumsysNames_67
libicui18n.so.67:izrule_clone_67
libicui18n.so.67:izrule_close_67
libicui18n.so.67:izrule_equals_67
libicui18n.so.67:izrule_getDSTSavings_67
libicui18n.so.67:izrule_getDynamicClassID_67
libicui18n.so.67:izrule_getFinalStart_67
libicui18n.so.67:izrule_getFirstStart_67
libicui18n.so.67:izrule_getName_67
libicui18n.so.67:izrule_getNextStart_67
libicui18n.so.67:izrule_getPreviousStart_67
libicui18n.so.67:izrule_getRawOffset_67
libicui18n.so.67:izrule_getStaticClassID_67
libicui18n.so.67:izrule_isEquivalentTo_67
libicui18n.so.67:izrule_open_67
libicui18n.so.67:numSysCleanup_67
libicui18n.so.67:u_formatMessageWithError_67
libicui18n.so.67:u_formatMessage_67
libicui18n.so.67:u_parseMessageWithError_67
libicui18n.so.67:u_parseMessage_67
libicui18n.so.67:u_vformatMessageWithError_67
libicui18n.so.67:u_vformatMessage_67
libicui18n.so.67:u_vparseMessageWithError_67
libicui18n.so.67:u_vparseMessage_67
libicui18n.so.67:u_writeIdenticalLevelRun_67
libicui18n.so.67:ucal_add_67
libicui18n.so.67:ucal_clearField_67
libicui18n.so.67:ucal_clear_67
libicui18n.so.67:ucal_clone_67
libicui18n.so.67:ucal_close_67
libicui18n.so.67:ucal_countAvailable_67
libicui18n.so.67:ucal_equivalentTo_67
libicui18n.so.67:ucal_getAttribute_67
libicui18n.so.67:ucal_getAvailable_67
libicui18n.so.67:ucal_getCanonicalTimeZoneID_67
libicui18n.so.67:ucal_getDSTSavings_67
libicui18n.so.67:ucal_getDayOfWeekType_67
libicui18n.so.67:ucal_getDefaultTimeZone_67
libicui18n.so.67:ucal_getFieldDifference_67
libicui18n.so.67:ucal_getGregorianChange_67
libicui18n.so.67:ucal_getHostTimeZone_67
libicui18n.so.67:ucal_getKeywordValuesForLocale_67
libicui18n.so.67:ucal_getLimit_67
libicui18n.so.67:ucal_getLocaleByType_67
libicui18n.so.67:ucal_getMillis_67
libicui18n.so.67:ucal_getNow_67
libicui18n.so.67:ucal_getTZDataVersion_67
libicui18n.so.67:ucal_getTimeZoneDisplayName_67
libicui18n.so.67:ucal_getTimeZoneIDForWindowsID_67
libicui18n.so.67:ucal_getTimeZoneID_67
libicui18n.so.67:ucal_getTimeZoneTransitionDate_67
libicui18n.so.67:ucal_getType_67
libicui18n.so.67:ucal_getWeekendTransition_67
libicui18n.so.67:ucal_getWindowsTimeZoneID_67
libicui18n.so.67:ucal_get_67
libicui18n.so.67:ucal_inDaylightTime_67
libicui18n.so.67:ucal_isSet_67
libicui18n.so.67:ucal_isWeekend_67
libicui18n.so.67:ucal_openCountryTimeZones_67
libicui18n.so.67:ucal_openTimeZoneIDEnumeration_67
libicui18n.so.67:ucal_openTimeZones_67
libicui18n.so.67:ucal_open_67
libicui18n.so.67:ucal_roll_67
libicui18n.so.67:ucal_setAttribute_67
libicui18n.so.67:ucal_setDateTime_67
libicui18n.so.67:ucal_setDate_67
libicui18n.so.67:ucal_setDefaultTimeZone_67
libicui18n.so.67:ucal_setGregorianChange_67
libicui18n.so.67:ucal_setMillis_67
libicui18n.so.67:ucal_setTimeZone_67
libicui18n.so.67:ucal_set_67
libicui18n.so.67:ucfpos_close_67
libicui18n.so.67:ucfpos_constrainCategory_67
libicui18n.so.67:ucfpos_constrainField_67
libicui18n.so.67:ucfpos_getCategory_67
libicui18n.so.67:ucfpos_getField_67
libicui18n.so.67:ucfpos_getIndexes_67
libicui18n.so.67:ucfpos_getInt64IterationContext_67
libicui18n.so.67:ucfpos_matchesField_67
libicui18n.so.67:ucfpos_open_67
libicui18n.so.67:ucfpos_reset_67
libicui18n.so.67:ucfpos_setInt64IterationContext_67
libicui18n.so.67:ucfpos_setState_67
libicui18n.so.67:ucln_i18n_registerCleanup_67
libicui18n.so.67:ucol_cloneBinary_67
libicui18n.so.67:ucol_closeElements_67
libicui18n.so.67:ucol_close_67
libicui18n.so.67:ucol_countAvailable_67
libicui18n.so.67:ucol_equal_67
libicui18n.so.67:ucol_equals_67
libicui18n.so.67:ucol_getAttribute_67
libicui18n.so.67:ucol_getAvailable_67
libicui18n.so.67:ucol_getBound_67
libicui18n.so.67:ucol_getContractionsAndExpansions_67
libicui18n.so.67:ucol_getContractions_67
libicui18n.so.67:ucol_getDisplayName_67
libicui18n.so.67:ucol_getEquivalentReorderCodes_67
libicui18n.so.67:ucol_getFunctionalEquivalent_67
libicui18n.so.67:ucol_getKeywordValuesForLocale_67
libicui18n.so.67:ucol_getKeywordValues_67
libicui18n.so.67:ucol_getKeywords_67
libicui18n.so.67:ucol_getLocaleByType_67
libicui18n.so.67:ucol_getLocale_67
libicui18n.so.67:ucol_getMaxExpansion_67
libicui18n.so.67:ucol_getMaxVariable_67
libicui18n.so.67:ucol_getOffset_67
libicui18n.so.67:ucol_getReorderCodes_67
libicui18n.so.67:ucol_getRulesEx_67
libicui18n.so.67:ucol_getRules_67
libicui18n.so.67:ucol_getShortDefinitionString_67
libicui18n.so.67:ucol_getSortKey_67
libicui18n.so.67:ucol_getStrength_67
libicui18n.so.67:ucol_getTailoredSet_67
libicui18n.so.67:ucol_getUCAVersion_67
libicui18n.so.67:ucol_getUnsafeSet_67
libicui18n.so.67:ucol_getVariableTop_67
libicui18n.so.67:ucol_getVersion_67
libicui18n.so.67:ucol_greaterOrEqual_67
libicui18n.so.67:ucol_greater_67
libicui18n.so.67:ucol_keyHashCode_67
libicui18n.so.67:ucol_mergeSortkeys_67
libicui18n.so.67:ucol_nextSortKeyPart_67
libicui18n.so.67:ucol_next_67
libicui18n.so.67:ucol_normalizeShortDefinitionString_67
libicui18n.so.67:ucol_openAvailableLocales_67
libicui18n.so.67:ucol_openBinary_67
libicui18n.so.67:ucol_openElements_67
libicui18n.so.67:ucol_openFromShortString_67
libicui18n.so.67:ucol_openRules_67
libicui18n.so.67:ucol_open_67
libicui18n.so.67:ucol_prepareShortStringOpen_67
libicui18n.so.67:ucol_previous_67
libicui18n.so.67:ucol_primaryOrder_67
libicui18n.so.67:ucol_reset_67
libicui18n.so.67:ucol_restoreVariableTop_67
libicui18n.so.67:ucol_safeClone_67
libicui18n.so.67:ucol_secondaryOrder_67
libicui18n.so.67:ucol_setAttribute_67
libicui18n.so.67:ucol_setMaxVariable_67
libicui18n.so.67:ucol_setOffset_67
libicui18n.so.67:ucol_setReorderCodes_67
libicui18n.so.67:ucol_setStrength_67
libicui18n.so.67:ucol_setText_67
libicui18n.so.67:ucol_setVariableTop_67
libicui18n.so.67:ucol_strcollIter_67
libicui18n.so.67:ucol_strcollUTF8_67
libicui18n.so.67:ucol_strcoll_67
libicui18n.so.67:ucol_tertiaryOrder_67
libicui18n.so.67:ucsdet_close_67
libicui18n.so.67:ucsdet_detectAll_67
libicui18n.so.67:ucsdet_detect_67
libicui18n.so.67:ucsdet_enableInputFilter_67
libicui18n.so.67:ucsdet_getAllDetectableCharsets_67
libicui18n.so.67:ucsdet_getConfidence_67
libicui18n.so.67:ucsdet_getDetectableCharsets_67
libicui18n.so.67:ucsdet_getLanguage_67
libicui18n.so.67:ucsdet_getName_67
libicui18n.so.67:ucsdet_getUChars_67
libicui18n.so.67:ucsdet_isInputFilterEnabled_67
libicui18n.so.67:ucsdet_open_67
libicui18n.so.67:ucsdet_setDeclaredEncoding_67
libicui18n.so.67:ucsdet_setDetectableCharset_67
libicui18n.so.67:ucsdet_setText_67
libicui18n.so.67:udat_adoptNumberFormatForFields_67
libicui18n.so.67:udat_adoptNumberFormat_67
libicui18n.so.67:udat_applyPatternRelative_67
libicui18n.so.67:udat_applyPattern_67
libicui18n.so.67:udat_clone_67
libicui18n.so.67:udat_close_67
libicui18n.so.67:udat_countAvailable_67
libicui18n.so.67:udat_countSymbols_67
libicui18n.so.67:udat_formatCalendarForFields_67
libicui18n.so.67:udat_formatCalendar_67
libicui18n.so.67:udat_formatForFields_67
libicui18n.so.67:udat_format_67
libicui18n.so.67:udat_get2DigitYearStart_67
libicui18n.so.67:udat_getAvailable_67
libicui18n.so.67:udat_getBooleanAttribute_67
libicui18n.so.67:udat_getCalendar_67
libicui18n.so.67:udat_getContext_67
libicui18n.so.67:udat_getLocaleByType_67
libicui18n.so.67:udat_getNumberFormatForField_67
libicui18n.so.67:udat_getNumberFormat_67
libicui18n.so.67:udat_getSymbols_67
libicui18n.so.67:udat_isLenient_67
libicui18n.so.67:udat_open_67
libicui18n.so.67:udat_parseCalendar_67
libicui18n.so.67:udat_parse_67
libicui18n.so.67:udat_registerOpener_67
libicui18n.so.67:udat_set2DigitYearStart_67
libicui18n.so.67:udat_setBooleanAttribute_67
libicui18n.so.67:udat_setCalendar_67
libicui18n.so.67:udat_setContext_67
libicui18n.so.67:udat_setLenient_67
libicui18n.so.67:udat_setNumberFormat_67
libicui18n.so.67:udat_setSymbols_67
libicui18n.so.67:udat_toCalendarDateField_67
libicui18n.so.67:udat_toPatternRelativeDate_67
libicui18n.so.67:udat_toPatternRelativeTime_67
libicui18n.so.67:udat_toPattern_67
libicui18n.so.67:udat_unregisterOpener_67
libicui18n.so.67:udatpg_addPattern_67
libicui18n.so.67:udatpg_clone_67
libicui18n.so.67:udatpg_close_67
libicui18n.so.67:udatpg_getAppendItemFormat_67
libicui18n.so.67:udatpg_getAppendItemName_67
libicui18n.so.67:udatpg_getBaseSkeleton_67
libicui18n.so.67:udatpg_getBestPatternWithOptions_67
libicui18n.so.67:udatpg_getBestPattern_67
libicui18n.so.67:udatpg_getDateTimeFormat_67
libicui18n.so.67:udatpg_getDecimal_67
libicui18n.so.67:udatpg_getDefaultHourCycle_67
libicui18n.so.67:udatpg_getFieldDisplayName_67
libicui18n.so.67:udatpg_getPatternForSkeleton_67
libicui18n.so.67:udatpg_getSkeleton_67
libicui18n.so.67:udatpg_openBaseSkeletons_67
libicui18n.so.67:udatpg_openEmpty_67
libicui18n.so.67:udatpg_openSkeletons_67
libicui18n.so.67:udatpg_open_67
libicui18n.so.67:udatpg_replaceFieldTypesWithOptions_67
libicui18n.so.67:udatpg_replaceFieldTypes_67
libicui18n.so.67:udatpg_setAppendItemFormat_67
libicui18n.so.67:udatpg_setAppendItemName_67
libicui18n.so.67:udatpg_setDateTimeFormat_67
libicui18n.so.67:udatpg_setDecimal_67
libicui18n.so.67:udtitvfmt_closeResult_67
libicui18n.so.67:udtitvfmt_close_67
libicui18n.so.67:udtitvfmt_formatCalendarToResult_67
libicui18n.so.67:udtitvfmt_formatToResult_67
libicui18n.so.67:udtitvfmt_format_67
libicui18n.so.67:udtitvfmt_openResult_67
libicui18n.so.67:udtitvfmt_open_67
libicui18n.so.67:udtitvfmt_resultAsValue_67
libicui18n.so.67:ufieldpositer_close_67
libicui18n.so.67:ufieldpositer_next_67
libicui18n.so.67:ufieldpositer_open_67
libicui18n.so.67:ufmt_close_67
libicui18n.so.67:ufmt_getArrayItemByIndex_67
libicui18n.so.67:ufmt_getArrayLength_67
libicui18n.so.67:ufmt_getDate_67
libicui18n.so.67:ufmt_getDecNumChars_67
libicui18n.so.67:ufmt_getDouble_67
libicui18n.so.67:ufmt_getInt64_67
libicui18n.so.67:ufmt_getLong_67
libicui18n.so.67:ufmt_getObject_67
libicui18n.so.67:ufmt_getType_67
libicui18n.so.67:ufmt_getUChars_67
libicui18n.so.67:ufmt_isNumeric_67
libicui18n.so.67:ufmt_open_67
libicui18n.so.67:ufmtval_getString_67
libicui18n.so.67:ufmtval_nextPosition_67
libicui18n.so.67:ugender_getInstance_67
libicui18n.so.67:ugender_getListGender_67
libicui18n.so.67:uhash_compareScriptSet_67
libicui18n.so.67:uhash_deleteScriptSet_67
libicui18n.so.67:uhash_equalsScriptSet_67
libicui18n.so.67:uhash_hashScriptSet_67
libicui18n.so.67:ulistfmt_closeResult_67
libicui18n.so.67:ulistfmt_close_67
libicui18n.so.67:ulistfmt_formatStringsToResult_67
libicui18n.so.67:ulistfmt_format_67
libicui18n.so.67:ulistfmt_openForType_67
libicui18n.so.67:ulistfmt_openResult_67
libicui18n.so.67:ulistfmt_open_67
libicui18n.so.67:ulistfmt_resultAsValue_67
libicui18n.so.67:ulocdata_close_67
libicui18n.so.67:ulocdata_getCLDRVersion_67
libicui18n.so.67:ulocdata_getDelimiter_67
libicui18n.so.67:ulocdata_getExemplarSet_67
libicui18n.so.67:ulocdata_getLocaleDisplayPattern_67
libicui18n.so.67:ulocdata_getLocaleSeparator_67
libicui18n.so.67:ulocdata_getMeasurementSystem_67
libicui18n.so.67:ulocdata_getNoSubstitute_67
libicui18n.so.67:ulocdata_getPaperSize_67
libicui18n.so.67:ulocdata_open_67
libicui18n.so.67:ulocdata_setNoSubstitute_67
libicui18n.so.67:umsg_applyPattern_67
libicui18n.so.67:umsg_autoQuoteApostrophe_67
libicui18n.so.67:umsg_clone_67
libicui18n.so.67:umsg_close_67
libicui18n.so.67:umsg_format_67
libicui18n.so.67:umsg_getLocale_67
libicui18n.so.67:umsg_open_67
libicui18n.so.67:umsg_parse_67
libicui18n.so.67:umsg_setLocale_67
libicui18n.so.67:umsg_toPattern_67
libicui18n.so.67:umsg_vformat_67
libicui18n.so.67:umsg_vparse_67
libicui18n.so.67:unum_applyPattern_67
libicui18n.so.67:unum_clone_67
libicui18n.so.67:unum_close_67
libicui18n.so.67:unum_countAvailable_67
libicui18n.so.67:unum_formatDecimal_67
libicui18n.so.67:unum_formatDoubleCurrency_67
libicui18n.so.67:unum_formatDoubleForFields_67
libicui18n.so.67:unum_formatDouble_67
libicui18n.so.67:unum_formatInt64_67
libicui18n.so.67:unum_formatUFormattable_67
libicui18n.so.67:unum_format_67
libicui18n.so.67:unum_getAttribute_67
libicui18n.so.67:unum_getAvailable_67
libicui18n.so.67:unum_getContext_67
libicui18n.so.67:unum_getDoubleAttribute_67
libicui18n.so.67:unum_getLocaleByType_67
libicui18n.so.67:unum_getSymbol_67
libicui18n.so.67:unum_getTextAttribute_67
libicui18n.so.67:unum_open_67
libicui18n.so.67:unum_parseDecimal_67
libicui18n.so.67:unum_parseDoubleCurrency_67
libicui18n.so.67:unum_parseDouble_67
libicui18n.so.67:unum_parseInt64_67
libicui18n.so.67:unum_parseToUFormattable_67
libicui18n.so.67:unum_parse_67
libicui18n.so.67:unum_setAttribute_67
libicui18n.so.67:unum_setContext_67
libicui18n.so.67:unum_setDoubleAttribute_67
libicui18n.so.67:unum_setSymbol_67
libicui18n.so.67:unum_setTextAttribute_67
libicui18n.so.67:unum_toPattern_67
libicui18n.so.67:unumf_closeResult_67
libicui18n.so.67:unumf_close_67
libicui18n.so.67:unumf_formatDecimal_67
libicui18n.so.67:unumf_formatDouble_67
libicui18n.so.67:unumf_formatInt_67
libicui18n.so.67:unumf_openForSkeletonAndLocaleWithError_67
libicui18n.so.67:unumf_openForSkeletonAndLocale_67
libicui18n.so.67:unumf_openResult_67
libicui18n.so.67:unumf_resultAsValue_67
libicui18n.so.67:unumf_resultGetAllFieldPositions_67
libicui18n.so.67:unumf_resultNextFieldPosition_67
libicui18n.so.67:unumf_resultToString_67
libicui18n.so.67:unumsys_close_67
libicui18n.so.67:unumsys_getDescription_67
libicui18n.so.67:unumsys_getName_67
libicui18n.so.67:unumsys_getRadix_67
libicui18n.so.67:unumsys_isAlgorithmic_67
libicui18n.so.67:unumsys_openAvailableNames_67
libicui18n.so.67:unumsys_openByName_67
libicui18n.so.67:unumsys_open_67
libicui18n.so.67:uplrules_close_67
libicui18n.so.67:uplrules_getKeywords_67
libicui18n.so.67:uplrules_openForType_67
libicui18n.so.67:uplrules_open_67
libicui18n.so.67:uplrules_selectFormatted_67
libicui18n.so.67:uplrules_selectWithFormat_67
libicui18n.so.67:uplrules_select_67
libicui18n.so.67:uprv_decContextClearStatus_67
libicui18n.so.67:uprv_decContextDefault_67
libicui18n.so.67:uprv_decContextGetRounding_67
libicui18n.so.67:uprv_decContextGetStatus_67
libicui18n.so.67:uprv_decContextRestoreStatus_67
libicui18n.so.67:uprv_decContextSaveStatus_67
libicui18n.so.67:uprv_decContextSetRounding_67
libicui18n.so.67:uprv_decContextSetStatusFromStringQuiet_67
libicui18n.so.67:uprv_decContextSetStatusFromString_67
libicui18n.so.67:uprv_decContextSetStatusQuiet_67
libicui18n.so.67:uprv_decContextSetStatus_67
libicui18n.so.67:uprv_decContextStatusToString_67
libicui18n.so.67:uprv_decContextTestSavedStatus_67
libicui18n.so.67:uprv_decContextTestStatus_67
libicui18n.so.67:uprv_decContextZeroStatus_67
libicui18n.so.67:uprv_decNumberAbs_67
libicui18n.so.67:uprv_decNumberAdd_67
libicui18n.so.67:uprv_decNumberAnd_67
libicui18n.so.67:uprv_decNumberClassToString_67
libicui18n.so.67:uprv_decNumberCompareSignal_67
libicui18n.so.67:uprv_decNumberCompareTotalMag_67
libicui18n.so.67:uprv_decNumberCompareTotal_67
libicui18n.so.67:uprv_decNumberCompare_67
libicui18n.so.67:uprv_decNumberCopyAbs_67
libicui18n.so.67:uprv_decNumberCopyNegate_67
libicui18n.so.67:uprv_decNumberCopySign_67
libicui18n.so.67:uprv_decNumberCopy_67
libicui18n.so.67:uprv_decNumberDivideInteger_67
libicui18n.so.67:uprv_decNumberDivide_67
libicui18n.so.67:uprv_decNumberExp_67
